
DRL-101_NRF_PWMno반전_retern.elf:     file format elf32-avr

Sections:
Idx Name          Size      VMA       LMA       File off  Algn
  0 .data         0000000a  00800100  00000fc0  00001054  2**0
                  CONTENTS, ALLOC, LOAD, DATA
  1 .text         00000fc0  00000000  00000000  00000094  2**1
                  CONTENTS, ALLOC, LOAD, READONLY, CODE
  2 .bss          000000ff  0080010a  0080010a  0000105e  2**0
                  ALLOC
  3 .stab         000035d0  00000000  00000000  00001060  2**2
                  CONTENTS, READONLY, DEBUGGING
  4 .stabstr      0000194e  00000000  00000000  00004630  2**0
                  CONTENTS, READONLY, DEBUGGING

Disassembly of section .text:

00000000 <__vectors>:
   0:	0c 94 34 00 	jmp	0x68	; 0x68 <__ctors_end>
   4:	0c 94 51 00 	jmp	0xa2	; 0xa2 <__bad_interrupt>
   8:	0c 94 51 00 	jmp	0xa2	; 0xa2 <__bad_interrupt>
   c:	0c 94 51 00 	jmp	0xa2	; 0xa2 <__bad_interrupt>
  10:	0c 94 51 00 	jmp	0xa2	; 0xa2 <__bad_interrupt>
  14:	0c 94 51 00 	jmp	0xa2	; 0xa2 <__bad_interrupt>
  18:	0c 94 51 00 	jmp	0xa2	; 0xa2 <__bad_interrupt>
  1c:	0c 94 51 00 	jmp	0xa2	; 0xa2 <__bad_interrupt>
  20:	0c 94 51 00 	jmp	0xa2	; 0xa2 <__bad_interrupt>
  24:	0c 94 51 00 	jmp	0xa2	; 0xa2 <__bad_interrupt>
  28:	0c 94 51 00 	jmp	0xa2	; 0xa2 <__bad_interrupt>
  2c:	0c 94 51 00 	jmp	0xa2	; 0xa2 <__bad_interrupt>
  30:	0c 94 51 00 	jmp	0xa2	; 0xa2 <__bad_interrupt>
  34:	0c 94 51 00 	jmp	0xa2	; 0xa2 <__bad_interrupt>
  38:	0c 94 51 00 	jmp	0xa2	; 0xa2 <__bad_interrupt>
  3c:	0c 94 51 00 	jmp	0xa2	; 0xa2 <__bad_interrupt>
  40:	0c 94 68 07 	jmp	0xed0	; 0xed0 <__vector_16>
  44:	0c 94 51 00 	jmp	0xa2	; 0xa2 <__bad_interrupt>
  48:	0c 94 b4 03 	jmp	0x768	; 0x768 <__vector_18>
  4c:	0c 94 51 00 	jmp	0xa2	; 0xa2 <__bad_interrupt>
  50:	0c 94 51 00 	jmp	0xa2	; 0xa2 <__bad_interrupt>
  54:	0c 94 51 00 	jmp	0xa2	; 0xa2 <__bad_interrupt>
  58:	0c 94 51 00 	jmp	0xa2	; 0xa2 <__bad_interrupt>
  5c:	0c 94 51 00 	jmp	0xa2	; 0xa2 <__bad_interrupt>
  60:	0c 94 51 00 	jmp	0xa2	; 0xa2 <__bad_interrupt>
  64:	0c 94 51 00 	jmp	0xa2	; 0xa2 <__bad_interrupt>

00000068 <__ctors_end>:
  68:	11 24       	eor	r1, r1
  6a:	1f be       	out	0x3f, r1	; 63
  6c:	cf ef       	ldi	r28, 0xFF	; 255
  6e:	d8 e0       	ldi	r29, 0x08	; 8
  70:	de bf       	out	0x3e, r29	; 62
  72:	cd bf       	out	0x3d, r28	; 61

00000074 <__do_copy_data>:
  74:	11 e0       	ldi	r17, 0x01	; 1
  76:	a0 e0       	ldi	r26, 0x00	; 0
  78:	b1 e0       	ldi	r27, 0x01	; 1
  7a:	e0 ec       	ldi	r30, 0xC0	; 192
  7c:	ff e0       	ldi	r31, 0x0F	; 15
  7e:	02 c0       	rjmp	.+4      	; 0x84 <.do_copy_data_start>

00000080 <.do_copy_data_loop>:
  80:	05 90       	lpm	r0, Z+
  82:	0d 92       	st	X+, r0

00000084 <.do_copy_data_start>:
  84:	aa 30       	cpi	r26, 0x0A	; 10
  86:	b1 07       	cpc	r27, r17
  88:	d9 f7       	brne	.-10     	; 0x80 <.do_copy_data_loop>

0000008a <__do_clear_bss>:
  8a:	12 e0       	ldi	r17, 0x02	; 2
  8c:	aa e0       	ldi	r26, 0x0A	; 10
  8e:	b1 e0       	ldi	r27, 0x01	; 1
  90:	01 c0       	rjmp	.+2      	; 0x94 <.do_clear_bss_start>

00000092 <.do_clear_bss_loop>:
  92:	1d 92       	st	X+, r1

00000094 <.do_clear_bss_start>:
  94:	a9 30       	cpi	r26, 0x09	; 9
  96:	b1 07       	cpc	r27, r17
  98:	e1 f7       	brne	.-8      	; 0x92 <.do_clear_bss_loop>
  9a:	0e 94 b6 05 	call	0xb6c	; 0xb6c <main>
  9e:	0c 94 de 07 	jmp	0xfbc	; 0xfbc <_exit>

000000a2 <__bad_interrupt>:
  a2:	0c 94 00 00 	jmp	0	; 0x0 <__vectors>

000000a6 <REMOVE_UINT08>:

#include "byte_util.h"



uint8 REMOVE_UINT08(uint8 **p) {
  a6:	fc 01       	movw	r30, r24
	uint8 value = *(*p);
  a8:	a0 81       	ld	r26, Z
  aa:	b1 81       	ldd	r27, Z+1	; 0x01
  ac:	8d 91       	ld	r24, X+
	(*p)++;
  ae:	b1 83       	std	Z+1, r27	; 0x01
  b0:	a0 83       	st	Z, r26
	return value;

}
  b2:	08 95       	ret

000000b4 <REMOVE_UINT16>:
uint16 REMOVE_UINT16(uint8 **p) {
  b4:	dc 01       	movw	r26, r24
	uint16 value = (uint16) ((((uint8) (*p)[0]) << 8) | ((uint8) (*p)[1]));
  b6:	ed 91       	ld	r30, X+
  b8:	fc 91       	ld	r31, X
  ba:	11 97       	sbiw	r26, 0x01	; 1
  bc:	21 81       	ldd	r18, Z+1	; 0x01
  be:	30 e0       	ldi	r19, 0x00	; 0
  c0:	90 81       	ld	r25, Z
  c2:	80 e0       	ldi	r24, 0x00	; 0
  c4:	28 2b       	or	r18, r24
  c6:	39 2b       	or	r19, r25
	(*p) += 2;
  c8:	32 96       	adiw	r30, 0x02	; 2
  ca:	ed 93       	st	X+, r30
  cc:	fc 93       	st	X, r31
	return value;
}
  ce:	c9 01       	movw	r24, r18
  d0:	08 95       	ret

000000d2 <REMOVE_UINT32>:

uint32 REMOVE_UINT32(uint8 **p) {
  d2:	bc 01       	movw	r22, r24
	uint32 value = MAKE_UINT32((*p)[0], (*p)[1], (*p)[2], (*p)[3]);
  d4:	dc 01       	movw	r26, r24
  d6:	ed 91       	ld	r30, X+
  d8:	fc 91       	ld	r31, X
  da:	23 81       	ldd	r18, Z+3	; 0x03
  dc:	30 e0       	ldi	r19, 0x00	; 0
  de:	40 e0       	ldi	r20, 0x00	; 0
  e0:	50 e0       	ldi	r21, 0x00	; 0
  e2:	80 81       	ld	r24, Z
  e4:	90 e0       	ldi	r25, 0x00	; 0
  e6:	a0 e0       	ldi	r26, 0x00	; 0
  e8:	b0 e0       	ldi	r27, 0x00	; 0
  ea:	b8 2f       	mov	r27, r24
  ec:	aa 27       	eor	r26, r26
  ee:	99 27       	eor	r25, r25
  f0:	88 27       	eor	r24, r24
  f2:	28 2b       	or	r18, r24
  f4:	39 2b       	or	r19, r25
  f6:	4a 2b       	or	r20, r26
  f8:	5b 2b       	or	r21, r27
  fa:	81 81       	ldd	r24, Z+1	; 0x01
  fc:	90 e0       	ldi	r25, 0x00	; 0
  fe:	a0 e0       	ldi	r26, 0x00	; 0
 100:	b0 e0       	ldi	r27, 0x00	; 0
 102:	dc 01       	movw	r26, r24
 104:	99 27       	eor	r25, r25
 106:	88 27       	eor	r24, r24
 108:	28 2b       	or	r18, r24
 10a:	39 2b       	or	r19, r25
 10c:	4a 2b       	or	r20, r26
 10e:	5b 2b       	or	r21, r27
 110:	82 81       	ldd	r24, Z+2	; 0x02
 112:	90 e0       	ldi	r25, 0x00	; 0
 114:	a0 e0       	ldi	r26, 0x00	; 0
 116:	b0 e0       	ldi	r27, 0x00	; 0
 118:	ba 2f       	mov	r27, r26
 11a:	a9 2f       	mov	r26, r25
 11c:	98 2f       	mov	r25, r24
 11e:	88 27       	eor	r24, r24
 120:	28 2b       	or	r18, r24
 122:	39 2b       	or	r19, r25
 124:	4a 2b       	or	r20, r26
 126:	5b 2b       	or	r21, r27
	(*p) += 4;
 128:	34 96       	adiw	r30, 0x04	; 4
 12a:	db 01       	movw	r26, r22
 12c:	ed 93       	st	X+, r30
 12e:	fc 93       	st	X, r31
	return value;
}
 130:	b9 01       	movw	r22, r18
 132:	ca 01       	movw	r24, r20
 134:	08 95       	ret

00000136 <APPEND_UINT08>:

void APPEND_UINT08(uint8 *buff, size_t *index, uint8 value) {
 136:	db 01       	movw	r26, r22
	buff[*index] = value;
 138:	ed 91       	ld	r30, X+
 13a:	fc 91       	ld	r31, X
 13c:	11 97       	sbiw	r26, 0x01	; 1
 13e:	e8 0f       	add	r30, r24
 140:	f9 1f       	adc	r31, r25
 142:	40 83       	st	Z, r20
	(*index)++;
 144:	8d 91       	ld	r24, X+
 146:	9c 91       	ld	r25, X
 148:	11 97       	sbiw	r26, 0x01	; 1
 14a:	01 96       	adiw	r24, 0x01	; 1
 14c:	8d 93       	st	X+, r24
 14e:	9c 93       	st	X, r25
}
 150:	08 95       	ret

00000152 <APPEND_UINT16>:

void APPEND_UINT16(uint8 *buff, size_t *index, uint16 value) {
 152:	dc 01       	movw	r26, r24
	buff[(*index)++] = GET_BYTE1(value);
 154:	fb 01       	movw	r30, r22
 156:	80 81       	ld	r24, Z
 158:	91 81       	ldd	r25, Z+1	; 0x01
 15a:	fd 01       	movw	r30, r26
 15c:	e8 0f       	add	r30, r24
 15e:	f9 1f       	adc	r31, r25
 160:	50 83       	st	Z, r21
 162:	01 96       	adiw	r24, 0x01	; 1
	buff[(*index)++] = GET_BYTE0(value);
 164:	a8 0f       	add	r26, r24
 166:	b9 1f       	adc	r27, r25
 168:	4c 93       	st	X, r20
 16a:	01 96       	adiw	r24, 0x01	; 1
 16c:	fb 01       	movw	r30, r22
 16e:	91 83       	std	Z+1, r25	; 0x01
 170:	80 83       	st	Z, r24
}
 172:	08 95       	ret

00000174 <APPEND_UINT32>:

void APPEND_UINT32(uint8 *buff, size_t *index, uint32 value) {
 174:	ef 92       	push	r14
 176:	ff 92       	push	r15
 178:	0f 93       	push	r16
 17a:	1f 93       	push	r17
 17c:	8c 01       	movw	r16, r24
 17e:	7b 01       	movw	r14, r22
	buff[(*index)++] = GET_BYTE3(value);
 180:	fb 01       	movw	r30, r22
 182:	60 81       	ld	r22, Z
 184:	71 81       	ldd	r23, Z+1	; 0x01
 186:	fc 01       	movw	r30, r24
 188:	e6 0f       	add	r30, r22
 18a:	f7 1f       	adc	r31, r23
 18c:	85 2f       	mov	r24, r21
 18e:	99 27       	eor	r25, r25
 190:	aa 27       	eor	r26, r26
 192:	bb 27       	eor	r27, r27
 194:	80 83       	st	Z, r24
 196:	6f 5f       	subi	r22, 0xFF	; 255
 198:	7f 4f       	sbci	r23, 0xFF	; 255
	buff[(*index)++] = GET_BYTE2(value);
 19a:	f8 01       	movw	r30, r16
 19c:	e6 0f       	add	r30, r22
 19e:	f7 1f       	adc	r31, r23
 1a0:	ca 01       	movw	r24, r20
 1a2:	aa 27       	eor	r26, r26
 1a4:	bb 27       	eor	r27, r27
 1a6:	80 83       	st	Z, r24
 1a8:	6f 5f       	subi	r22, 0xFF	; 255
 1aa:	7f 4f       	sbci	r23, 0xFF	; 255
	buff[(*index)++] = GET_BYTE1(value);
 1ac:	f8 01       	movw	r30, r16
 1ae:	e6 0f       	add	r30, r22
 1b0:	f7 1f       	adc	r31, r23
 1b2:	bb 27       	eor	r27, r27
 1b4:	a5 2f       	mov	r26, r21
 1b6:	94 2f       	mov	r25, r20
 1b8:	83 2f       	mov	r24, r19
 1ba:	80 83       	st	Z, r24
 1bc:	6f 5f       	subi	r22, 0xFF	; 255
 1be:	7f 4f       	sbci	r23, 0xFF	; 255
	buff[(*index)++] = GET_BYTE0(value);
 1c0:	06 0f       	add	r16, r22
 1c2:	17 1f       	adc	r17, r23
 1c4:	f8 01       	movw	r30, r16
 1c6:	20 83       	st	Z, r18
 1c8:	6f 5f       	subi	r22, 0xFF	; 255
 1ca:	7f 4f       	sbci	r23, 0xFF	; 255
 1cc:	f7 01       	movw	r30, r14
 1ce:	71 83       	std	Z+1, r23	; 0x01
 1d0:	60 83       	st	Z, r22
}
 1d2:	1f 91       	pop	r17
 1d4:	0f 91       	pop	r16
 1d6:	ff 90       	pop	r15
 1d8:	ef 90       	pop	r14
 1da:	08 95       	ret

000001dc <rtrim>:
	while (isspace(*s))
		s++;
	return s;
}

char *rtrim(char *s) {
 1dc:	ef 92       	push	r14
 1de:	ff 92       	push	r15
 1e0:	0f 93       	push	r16
 1e2:	1f 93       	push	r17
 1e4:	cf 93       	push	r28
 1e6:	df 93       	push	r29
 1e8:	7c 01       	movw	r14, r24
	char* back;
	int len = strlen(s);
 1ea:	dc 01       	movw	r26, r24
 1ec:	0d 90       	ld	r0, X+
 1ee:	00 20       	and	r0, r0
 1f0:	e9 f7       	brne	.-6      	; 0x1ec <rtrim+0x10>
 1f2:	11 97       	sbiw	r26, 0x01	; 1
 1f4:	a8 1b       	sub	r26, r24
 1f6:	b9 0b       	sbc	r27, r25

	if (len == 0)
 1f8:	79 f0       	breq	.+30     	; 0x218 <rtrim+0x3c>
		return (s);

	back = s + len;
 1fa:	ec 01       	movw	r28, r24
 1fc:	ca 0f       	add	r28, r26
 1fe:	db 1f       	adc	r29, r27
	while (isspace(*--back))
 200:	fe 01       	movw	r30, r28
 202:	82 91       	ld	r24, -Z
 204:	8f 01       	movw	r16, r30
 206:	90 e0       	ldi	r25, 0x00	; 0
 208:	0e 94 bd 07 	call	0xf7a	; 0xf7a <isspace>
 20c:	9e 01       	movw	r18, r28
 20e:	e8 01       	movw	r28, r16
 210:	89 2b       	or	r24, r25
 212:	b1 f7       	brne	.-20     	; 0x200 <rtrim+0x24>
 214:	f9 01       	movw	r30, r18
		;
	*(back + 1) = '\0';
 216:	10 82       	st	Z, r1
	return s;
}
 218:	c7 01       	movw	r24, r14
 21a:	df 91       	pop	r29
 21c:	cf 91       	pop	r28
 21e:	1f 91       	pop	r17
 220:	0f 91       	pop	r16
 222:	ff 90       	pop	r15
 224:	ef 90       	pop	r14
 226:	08 95       	ret

00000228 <ltrim>:
#include <ctype.h> // isspace()
#include <string.h> // strcpy_s() strlen()
#define MAX_STR_LEN 4000

// 문자열 우측 공백문자 삭제 함수
char *ltrim(char *s) {
 228:	cf 93       	push	r28
 22a:	df 93       	push	r29
 22c:	ec 01       	movw	r28, r24
 22e:	01 c0       	rjmp	.+2      	; 0x232 <ltrim+0xa>
	while (isspace(*s))
		s++;
 230:	21 96       	adiw	r28, 0x01	; 1
#include <string.h> // strcpy_s() strlen()
#define MAX_STR_LEN 4000

// 문자열 우측 공백문자 삭제 함수
char *ltrim(char *s) {
	while (isspace(*s))
 232:	88 81       	ld	r24, Y
 234:	90 e0       	ldi	r25, 0x00	; 0
 236:	0e 94 bd 07 	call	0xf7a	; 0xf7a <isspace>
 23a:	89 2b       	or	r24, r25
 23c:	c9 f7       	brne	.-14     	; 0x230 <ltrim+0x8>
		s++;
	return s;
}
 23e:	ce 01       	movw	r24, r28
 240:	df 91       	pop	r29
 242:	cf 91       	pop	r28
 244:	08 95       	ret

00000246 <trim>:
	*(back + 1) = '\0';
	return s;
}

char *trim(char *s) {
	return rtrim(ltrim(s));
 246:	0e 94 14 01 	call	0x228	; 0x228 <ltrim>
 24a:	0e 94 ee 00 	call	0x1dc	; 0x1dc <rtrim>
}
 24e:	08 95       	ret

00000250 <SPI_RW>:
uint8_t TX_BUF[TX_PLOAD_WIDTH];

uint8_t RF_CHANNEL;

uint8_t SPI_RW(uint8_t Data) {
	SPDR = Data;
 250:	8e bd       	out	0x2e, r24	; 46
 252:	01 c0       	rjmp	.+2      	; 0x256 <SPI_RW+0x6>

	while (!(SPSR & 0x80)) {
		wdt_reset();
 254:	a8 95       	wdr
uint8_t RF_CHANNEL;

uint8_t SPI_RW(uint8_t Data) {
	SPDR = Data;

	while (!(SPSR & 0x80)) {
 256:	0d b4       	in	r0, 0x2d	; 45
 258:	07 fe       	sbrs	r0, 7
 25a:	fc cf       	rjmp	.-8      	; 0x254 <SPI_RW+0x4>
		wdt_reset();
	};
	return SPDR;
 25c:	8e b5       	in	r24, 0x2e	; 46
}
 25e:	08 95       	ret

00000260 <SPI_RW_Reg>:

/****Reg to register a byte written while returning state bytes****/
uint8_t SPI_RW_Reg(uint8_t reg, uint8_t value) {
	uint8_t status;

	CSN_0;
 260:	5f 98       	cbi	0x0b, 7	; 11
uint8_t TX_BUF[TX_PLOAD_WIDTH];

uint8_t RF_CHANNEL;

uint8_t SPI_RW(uint8_t Data) {
	SPDR = Data;
 262:	8e bd       	out	0x2e, r24	; 46
 264:	01 c0       	rjmp	.+2      	; 0x268 <SPI_RW_Reg+0x8>

	while (!(SPSR & 0x80)) {
		wdt_reset();
 266:	a8 95       	wdr
uint8_t RF_CHANNEL;

uint8_t SPI_RW(uint8_t Data) {
	SPDR = Data;

	while (!(SPSR & 0x80)) {
 268:	0d b4       	in	r0, 0x2d	; 45
 26a:	07 fe       	sbrs	r0, 7
 26c:	fc cf       	rjmp	.-8      	; 0x266 <SPI_RW_Reg+0x6>
		wdt_reset();
	};
	return SPDR;
 26e:	8e b5       	in	r24, 0x2e	; 46
uint8_t TX_BUF[TX_PLOAD_WIDTH];

uint8_t RF_CHANNEL;

uint8_t SPI_RW(uint8_t Data) {
	SPDR = Data;
 270:	6e bd       	out	0x2e, r22	; 46
 272:	01 c0       	rjmp	.+2      	; 0x276 <SPI_RW_Reg+0x16>

	while (!(SPSR & 0x80)) {
		wdt_reset();
 274:	a8 95       	wdr
uint8_t RF_CHANNEL;

uint8_t SPI_RW(uint8_t Data) {
	SPDR = Data;

	while (!(SPSR & 0x80)) {
 276:	0d b4       	in	r0, 0x2d	; 45
 278:	07 fe       	sbrs	r0, 7
 27a:	fc cf       	rjmp	.-8      	; 0x274 <SPI_RW_Reg+0x14>
		wdt_reset();
	};
	return SPDR;
 27c:	9e b5       	in	r25, 0x2e	; 46
	uint8_t status;

	CSN_0;
	status = SPI_RW(reg); //select register  and write value to it
	SPI_RW(value);
	CSN_1;
 27e:	5f 9a       	sbi	0x0b, 7	; 11
	return (status);
}
 280:	08 95       	ret

00000282 <SPI_Read_Reg>:
/****To register reg read a byte, and return to state bytes*****/
uint8_t SPI_Read_Reg(uint8_t reg) {
	uint8_t status;
	CSN_0;
 282:	5f 98       	cbi	0x0b, 7	; 11
uint8_t TX_BUF[TX_PLOAD_WIDTH];

uint8_t RF_CHANNEL;

uint8_t SPI_RW(uint8_t Data) {
	SPDR = Data;
 284:	8e bd       	out	0x2e, r24	; 46
 286:	01 c0       	rjmp	.+2      	; 0x28a <SPI_Read_Reg+0x8>

	while (!(SPSR & 0x80)) {
		wdt_reset();
 288:	a8 95       	wdr
uint8_t RF_CHANNEL;

uint8_t SPI_RW(uint8_t Data) {
	SPDR = Data;

	while (!(SPSR & 0x80)) {
 28a:	0d b4       	in	r0, 0x2d	; 45
 28c:	07 fe       	sbrs	r0, 7
 28e:	fc cf       	rjmp	.-8      	; 0x288 <SPI_Read_Reg+0x6>
		wdt_reset();
	};
	return SPDR;
 290:	8e b5       	in	r24, 0x2e	; 46
/****To register reg read a byte, and return to state bytes*****/
uint8_t SPI_Read_Reg(uint8_t reg) {
	uint8_t status;
	CSN_0;
	SPI_RW(reg);
	wdt_reset();
 292:	a8 95       	wdr
uint8_t TX_BUF[TX_PLOAD_WIDTH];

uint8_t RF_CHANNEL;

uint8_t SPI_RW(uint8_t Data) {
	SPDR = Data;
 294:	1e bc       	out	0x2e, r1	; 46
 296:	01 c0       	rjmp	.+2      	; 0x29a <SPI_Read_Reg+0x18>

	while (!(SPSR & 0x80)) {
		wdt_reset();
 298:	a8 95       	wdr
uint8_t RF_CHANNEL;

uint8_t SPI_RW(uint8_t Data) {
	SPDR = Data;

	while (!(SPSR & 0x80)) {
 29a:	0d b4       	in	r0, 0x2d	; 45
 29c:	07 fe       	sbrs	r0, 7
 29e:	fc cf       	rjmp	.-8      	; 0x298 <SPI_Read_Reg+0x16>
		wdt_reset();
	};
	return SPDR;
 2a0:	8e b5       	in	r24, 0x2e	; 46
	CSN_0;
	SPI_RW(reg);
	wdt_reset();
	status = SPI_RW(0);

	CSN_1;
 2a2:	5f 9a       	sbi	0x0b, 7	; 11
	return (status);
}
 2a4:	08 95       	ret

000002a6 <SPI_Read_Buf>:
/********Read the bytes bytes of data****************/

uint8_t SPI_Read_Buf(uint8_t reg, uint8_t *pBuf, uint8_t bytes) {
	uint8_t status, byte_ctr;

	CSN_0;
 2a6:	5f 98       	cbi	0x0b, 7	; 11
uint8_t TX_BUF[TX_PLOAD_WIDTH];

uint8_t RF_CHANNEL;

uint8_t SPI_RW(uint8_t Data) {
	SPDR = Data;
 2a8:	8e bd       	out	0x2e, r24	; 46
 2aa:	01 c0       	rjmp	.+2      	; 0x2ae <SPI_Read_Buf+0x8>

	while (!(SPSR & 0x80)) {
		wdt_reset();
 2ac:	a8 95       	wdr
uint8_t RF_CHANNEL;

uint8_t SPI_RW(uint8_t Data) {
	SPDR = Data;

	while (!(SPSR & 0x80)) {
 2ae:	0d b4       	in	r0, 0x2d	; 45
 2b0:	07 fe       	sbrs	r0, 7
 2b2:	fc cf       	rjmp	.-8      	; 0x2ac <SPI_Read_Buf+0x6>
		wdt_reset();
	};
	return SPDR;
 2b4:	5e b5       	in	r21, 0x2e	; 46
 2b6:	fb 01       	movw	r30, r22
 2b8:	90 e0       	ldi	r25, 0x00	; 0
 2ba:	0a c0       	rjmp	.+20     	; 0x2d0 <SPI_Read_Buf+0x2a>
	uint8_t status, byte_ctr;

	CSN_0;
	status = SPI_RW(reg);
	for (byte_ctr = 0; byte_ctr < bytes; byte_ctr++) {
		wdt_reset();
 2bc:	a8 95       	wdr
uint8_t TX_BUF[TX_PLOAD_WIDTH];

uint8_t RF_CHANNEL;

uint8_t SPI_RW(uint8_t Data) {
	SPDR = Data;
 2be:	1e bc       	out	0x2e, r1	; 46
 2c0:	01 c0       	rjmp	.+2      	; 0x2c4 <SPI_Read_Buf+0x1e>

	while (!(SPSR & 0x80)) {
		wdt_reset();
 2c2:	a8 95       	wdr
uint8_t RF_CHANNEL;

uint8_t SPI_RW(uint8_t Data) {
	SPDR = Data;

	while (!(SPSR & 0x80)) {
 2c4:	0d b4       	in	r0, 0x2d	; 45
 2c6:	07 fe       	sbrs	r0, 7
 2c8:	fc cf       	rjmp	.-8      	; 0x2c2 <SPI_Read_Buf+0x1c>
		wdt_reset();
	};
	return SPDR;
 2ca:	8e b5       	in	r24, 0x2e	; 46

	CSN_0;
	status = SPI_RW(reg);
	for (byte_ctr = 0; byte_ctr < bytes; byte_ctr++) {
		wdt_reset();
		pBuf[byte_ctr] = SPI_RW(0);
 2cc:	81 93       	st	Z+, r24
uint8_t SPI_Read_Buf(uint8_t reg, uint8_t *pBuf, uint8_t bytes) {
	uint8_t status, byte_ctr;

	CSN_0;
	status = SPI_RW(reg);
	for (byte_ctr = 0; byte_ctr < bytes; byte_ctr++) {
 2ce:	9f 5f       	subi	r25, 0xFF	; 255
 2d0:	94 17       	cp	r25, r20
 2d2:	a0 f3       	brcs	.-24     	; 0x2bc <SPI_Read_Buf+0x16>
		wdt_reset();
		pBuf[byte_ctr] = SPI_RW(0);
	}
	CSN_1;
 2d4:	5f 9a       	sbi	0x0b, 7	; 11
	return (status);
}
 2d6:	85 2f       	mov	r24, r21
 2d8:	08 95       	ret

000002da <SPI_Write_Buf>:

/****************Write bytes bytes of data*************/
uint8_t SPI_Write_Buf(uint8_t reg, uint8_t *pBuf, uint8_t bytes) {
	uint8_t status, byte_ctr;
	CSN_0;
 2da:	5f 98       	cbi	0x0b, 7	; 11
uint8_t TX_BUF[TX_PLOAD_WIDTH];

uint8_t RF_CHANNEL;

uint8_t SPI_RW(uint8_t Data) {
	SPDR = Data;
 2dc:	8e bd       	out	0x2e, r24	; 46
 2de:	01 c0       	rjmp	.+2      	; 0x2e2 <SPI_Write_Buf+0x8>

	while (!(SPSR & 0x80)) {
		wdt_reset();
 2e0:	a8 95       	wdr
uint8_t RF_CHANNEL;

uint8_t SPI_RW(uint8_t Data) {
	SPDR = Data;

	while (!(SPSR & 0x80)) {
 2e2:	0d b4       	in	r0, 0x2d	; 45
 2e4:	07 fe       	sbrs	r0, 7
 2e6:	fc cf       	rjmp	.-8      	; 0x2e0 <SPI_Write_Buf+0x6>
		wdt_reset();
	};
	return SPDR;
 2e8:	5e b5       	in	r21, 0x2e	; 46
    can be achieved.
*/
void
_delay_loop_1(uint8_t __count)
{
	__asm__ volatile (
 2ea:	8a e1       	ldi	r24, 0x1A	; 26
 2ec:	8a 95       	dec	r24
 2ee:	f1 f7       	brne	.-4      	; 0x2ec <SPI_Write_Buf+0x12>
 2f0:	fb 01       	movw	r30, r22
 2f2:	09 c0       	rjmp	.+18     	; 0x306 <SPI_Write_Buf+0x2c>
	uint8_t status, byte_ctr;
	CSN_0;
	status = SPI_RW(reg);
	_delay_us(10);
	for (byte_ctr = 0; byte_ctr < bytes; byte_ctr++)
		SPI_RW(*pBuf++);
 2f4:	80 81       	ld	r24, Z
uint8_t TX_BUF[TX_PLOAD_WIDTH];

uint8_t RF_CHANNEL;

uint8_t SPI_RW(uint8_t Data) {
	SPDR = Data;
 2f6:	8e bd       	out	0x2e, r24	; 46
 2f8:	01 c0       	rjmp	.+2      	; 0x2fc <SPI_Write_Buf+0x22>

	while (!(SPSR & 0x80)) {
		wdt_reset();
 2fa:	a8 95       	wdr
uint8_t RF_CHANNEL;

uint8_t SPI_RW(uint8_t Data) {
	SPDR = Data;

	while (!(SPSR & 0x80)) {
 2fc:	0d b4       	in	r0, 0x2d	; 45
 2fe:	07 fe       	sbrs	r0, 7
 300:	fc cf       	rjmp	.-8      	; 0x2fa <SPI_Write_Buf+0x20>
	uint8_t status, byte_ctr;
	CSN_0;
	status = SPI_RW(reg);
	_delay_us(10);
	for (byte_ctr = 0; byte_ctr < bytes; byte_ctr++)
		SPI_RW(*pBuf++);
 302:	31 96       	adiw	r30, 0x01	; 1
	SPDR = Data;

	while (!(SPSR & 0x80)) {
		wdt_reset();
	};
	return SPDR;
 304:	8e b5       	in	r24, 0x2e	; 46
uint8_t SPI_Write_Buf(uint8_t reg, uint8_t *pBuf, uint8_t bytes) {
	uint8_t status, byte_ctr;
	CSN_0;
	status = SPI_RW(reg);
	_delay_us(10);
	for (byte_ctr = 0; byte_ctr < bytes; byte_ctr++)
 306:	8e 2f       	mov	r24, r30
 308:	86 1b       	sub	r24, r22
 30a:	84 17       	cp	r24, r20
 30c:	98 f3       	brcs	.-26     	; 0x2f4 <SPI_Write_Buf+0x1a>
		SPI_RW(*pBuf++);
	CSN_1;
 30e:	5f 9a       	sbi	0x0b, 7	; 11
	return (status);
}
 310:	85 2f       	mov	r24, r21
 312:	08 95       	ret

00000314 <nRF24L01_RxPacket>:

/*Receive function, and returns 1 said data received, or no data to receive*/
uint8_t nRF24L01_RxPacket(uint8_t* rx_buf) {
 314:	0f 93       	push	r16
 316:	1f 93       	push	r17
 318:	bc 01       	movw	r22, r24
	uint8_t status, revale = 0;
	CE_0;
 31a:	5e 98       	cbi	0x0b, 6	; 11
 31c:	8a e1       	ldi	r24, 0x1A	; 26
 31e:	8a 95       	dec	r24
 320:	f1 f7       	brne	.-4      	; 0x31e <nRF24L01_RxPacket+0xa>
uint8_t TX_BUF[TX_PLOAD_WIDTH];

uint8_t RF_CHANNEL;

uint8_t SPI_RW(uint8_t Data) {
	SPDR = Data;
 322:	87 e0       	ldi	r24, 0x07	; 7
 324:	8e bd       	out	0x2e, r24	; 46
 326:	01 c0       	rjmp	.+2      	; 0x32a <nRF24L01_RxPacket+0x16>

	while (!(SPSR & 0x80)) {
		wdt_reset();
 328:	a8 95       	wdr
uint8_t RF_CHANNEL;

uint8_t SPI_RW(uint8_t Data) {
	SPDR = Data;

	while (!(SPSR & 0x80)) {
 32a:	0d b4       	in	r0, 0x2d	; 45
 32c:	07 fe       	sbrs	r0, 7
 32e:	fc cf       	rjmp	.-8      	; 0x328 <nRF24L01_RxPacket+0x14>
		wdt_reset();
	};
	return SPDR;
 330:	0e b5       	in	r16, 0x2e	; 46
	_delay_us(10);
	status = SPI_RW(STATUS); //(Check the state judge read data receiving condition)

//	printf("STATUS쌈肝榴檄：0x%2x\r\n", status);

	if (status & RX_DR) //(Judge whether to receive data)
 332:	06 fd       	sbrc	r16, 6
 334:	02 c0       	rjmp	.+4      	; 0x33a <nRF24L01_RxPacket+0x26>
 336:	10 e0       	ldi	r17, 0x00	; 0
 338:	05 c0       	rjmp	.+10     	; 0x344 <nRF24L01_RxPacket+0x30>
	{
		SPI_Read_Buf(RD_RX_PLOAD, rx_buf, TX_PLOAD_WIDTH); // read receive payload from RX_FIFO buffer
 33a:	81 e6       	ldi	r24, 0x61	; 97
 33c:	40 e2       	ldi	r20, 0x20	; 32
 33e:	0e 94 53 01 	call	0x2a6	; 0x2a6 <SPI_Read_Buf>
 342:	11 e0       	ldi	r17, 0x01	; 1

		revale = 1;
	}
	SPI_RW_Reg(WRITE_REG_NRF24L01 + STATUS, status); //
 344:	87 e2       	ldi	r24, 0x27	; 39
 346:	60 2f       	mov	r22, r16
 348:	0e 94 30 01 	call	0x260	; 0x260 <SPI_RW_Reg>
	CE_1;
 34c:	5e 9a       	sbi	0x0b, 6	; 11
	return revale;
}
 34e:	81 2f       	mov	r24, r17
 350:	1f 91       	pop	r17
 352:	0f 91       	pop	r16
 354:	08 95       	ret

00000356 <nRF24L01_TxPacket>:

/****************랙箇변鑒***************************/
void nRF24L01_TxPacket(unsigned char * tx_buf) {
 356:	0f 93       	push	r16
 358:	1f 93       	push	r17
 35a:	8c 01       	movw	r16, r24
	CE_0; //StandBy I친駕
 35c:	5e 98       	cbi	0x0b, 6	; 11
	SPI_Write_Buf(WRITE_REG_NRF24L01 + RX_ADDR_P0, TX_ADDRESS, TX_ADR_WIDTH); //(Loading the receiver address)
 35e:	8a e2       	ldi	r24, 0x2A	; 42
 360:	61 e0       	ldi	r22, 0x01	; 1
 362:	71 e0       	ldi	r23, 0x01	; 1
 364:	45 e0       	ldi	r20, 0x05	; 5
 366:	0e 94 6d 01 	call	0x2da	; 0x2da <SPI_Write_Buf>
	SPI_Write_Buf(WR_TX_PLOAD, tx_buf, TX_PLOAD_WIDTH); // (Load data)
 36a:	80 ea       	ldi	r24, 0xA0	; 160
 36c:	b8 01       	movw	r22, r16
 36e:	40 e2       	ldi	r20, 0x20	; 32
 370:	0e 94 6d 01 	call	0x2da	; 0x2da <SPI_Write_Buf>
	SPI_RW_Reg(WRITE_REG_NRF24L01 + CONFIG, 0x0e); // (IRQ transceiver complete interrupt response, 16 CRC, the Lord sent)
 374:	80 e2       	ldi	r24, 0x20	; 32
 376:	6e e0       	ldi	r22, 0x0E	; 14
 378:	0e 94 30 01 	call	0x260	; 0x260 <SPI_RW_Reg>
	CE_1; //(Buy high CE, stimulate the data sent)
 37c:	5e 9a       	sbi	0x0b, 6	; 11
 37e:	8a e1       	ldi	r24, 0x1A	; 26
 380:	8a 95       	dec	r24
 382:	f1 f7       	brne	.-4      	; 0x380 <nRF24L01_TxPacket+0x2a>
	_delay_us(10);
}
 384:	1f 91       	pop	r17
 386:	0f 91       	pop	r16
 388:	08 95       	ret

0000038a <RX_Mode>:

void RX_Mode(void) {
	CE_0;
 38a:	5e 98       	cbi	0x0b, 6	; 11
	SPI_Write_Buf(WRITE_REG_NRF24L01 + RX_ADDR_P0, TX_ADDRESS, TX_ADR_WIDTH); // (Receiving device to receive and transmit channels 0 to use the device to send the same address)
 38c:	8a e2       	ldi	r24, 0x2A	; 42
 38e:	61 e0       	ldi	r22, 0x01	; 1
 390:	71 e0       	ldi	r23, 0x01	; 1
 392:	45 e0       	ldi	r20, 0x05	; 5
 394:	0e 94 6d 01 	call	0x2da	; 0x2da <SPI_Write_Buf>
	SPI_RW_Reg(WRITE_REG_NRF24L01 + RX_PW_P0, TX_PLOAD_WIDTH); //  (Receive Channel 0 select and send the same channel width of valid data)
 398:	81 e3       	ldi	r24, 0x31	; 49
 39a:	60 e2       	ldi	r22, 0x20	; 32
 39c:	0e 94 30 01 	call	0x260	; 0x260 <SPI_RW_Reg>
	wdt_reset();
 3a0:	a8 95       	wdr
	SPI_RW_Reg(WRITE_REG_NRF24L01 + EN_AA, 0x3f); // (Enable automatic answering receive channel 0)
 3a2:	81 e2       	ldi	r24, 0x21	; 33
 3a4:	6f e3       	ldi	r22, 0x3F	; 63
 3a6:	0e 94 30 01 	call	0x260	; 0x260 <SPI_RW_Reg>
	wdt_reset();
 3aa:	a8 95       	wdr
	SPI_RW_Reg(WRITE_REG_NRF24L01 + EN_RXADDR, 0x3f); // (Enable Receive Channel 0)
 3ac:	82 e2       	ldi	r24, 0x22	; 34
 3ae:	6f e3       	ldi	r22, 0x3F	; 63
 3b0:	0e 94 30 01 	call	0x260	; 0x260 <SPI_RW_Reg>
	wdt_reset();
 3b4:	a8 95       	wdr
	SPI_RW_Reg(WRITE_REG_NRF24L01 + RF_CH, RF_CHANNEL); // (Select the RF channel 0x40)
 3b6:	85 e2       	ldi	r24, 0x25	; 37
 3b8:	60 91 1a 01 	lds	r22, 0x011A
 3bc:	0e 94 30 01 	call	0x260	; 0x260 <SPI_RW_Reg>
	wdt_reset();
 3c0:	a8 95       	wdr
	SPI_RW_Reg(WRITE_REG_NRF24L01 + RF_SETUP, 0x07); // (Data transfer rate 1Mbps, transmitting power 0dBm, low-noise amplifier gain)
 3c2:	86 e2       	ldi	r24, 0x26	; 38
 3c4:	67 e0       	ldi	r22, 0x07	; 7
 3c6:	0e 94 30 01 	call	0x260	; 0x260 <SPI_RW_Reg>
	wdt_reset();
 3ca:	a8 95       	wdr
	SPI_RW_Reg(WRITE_REG_NRF24L01 + CONFIG, 0x0f); // (CRC is enabled, the 16-bit CRC, the power, the receive mode)
 3cc:	80 e2       	ldi	r24, 0x20	; 32
 3ce:	6f e0       	ldi	r22, 0x0F	; 15
 3d0:	0e 94 30 01 	call	0x260	; 0x260 <SPI_RW_Reg>
	wdt_reset();
 3d4:	a8 95       	wdr
	CE_1;
 3d6:	5e 9a       	sbi	0x0b, 6	; 11
 3d8:	8a e1       	ldi	r24, 0x1A	; 26
 3da:	8a 95       	dec	r24
 3dc:	f1 f7       	brne	.-4      	; 0x3da <RX_Mode+0x50>
	_delay_us(10);
}
 3de:	08 95       	ret

000003e0 <TX_Mode>:

void TX_Mode(uint8_t * tx_buf) {
 3e0:	ef 92       	push	r14
 3e2:	ff 92       	push	r15
 3e4:	0f 93       	push	r16
 3e6:	1f 93       	push	r17
 3e8:	7c 01       	movw	r14, r24
	CE_0;
 3ea:	5e 98       	cbi	0x0b, 6	; 11
	SPI_Write_Buf(WRITE_REG_NRF24L01 + TX_ADDR, TX_ADDRESS, TX_ADR_WIDTH); //(Written to the transmit address)
 3ec:	01 e0       	ldi	r16, 0x01	; 1
 3ee:	11 e0       	ldi	r17, 0x01	; 1
 3f0:	80 e3       	ldi	r24, 0x30	; 48
 3f2:	b8 01       	movw	r22, r16
 3f4:	45 e0       	ldi	r20, 0x05	; 5
 3f6:	0e 94 6d 01 	call	0x2da	; 0x2da <SPI_Write_Buf>
	SPI_Write_Buf(WRITE_REG_NRF24L01 + RX_ADDR_P0, TX_ADDRESS, TX_ADR_WIDTH); // (In order to answer the receiving device, the receiving channel 0 address and send the address the same)
 3fa:	8a e2       	ldi	r24, 0x2A	; 42
 3fc:	b8 01       	movw	r22, r16
 3fe:	45 e0       	ldi	r20, 0x05	; 5
 400:	0e 94 6d 01 	call	0x2da	; 0x2da <SPI_Write_Buf>
	SPI_Write_Buf(WR_TX_PLOAD, tx_buf, TX_PLOAD_WIDTH); // (Loading data)
 404:	80 ea       	ldi	r24, 0xA0	; 160
 406:	b7 01       	movw	r22, r14
 408:	40 e2       	ldi	r20, 0x20	; 32
 40a:	0e 94 6d 01 	call	0x2da	; 0x2da <SPI_Write_Buf>
	SPI_RW_Reg(WRITE_REG_NRF24L01 + EN_AA, 0x3f); // (Enable automatic answering receive channel 0)
 40e:	81 e2       	ldi	r24, 0x21	; 33
 410:	6f e3       	ldi	r22, 0x3F	; 63
 412:	0e 94 30 01 	call	0x260	; 0x260 <SPI_RW_Reg>
	SPI_RW_Reg(WRITE_REG_NRF24L01 + EN_RXADDR, 0x3f); //(Enable Receive Channel 0)
 416:	82 e2       	ldi	r24, 0x22	; 34
 418:	6f e3       	ldi	r22, 0x3F	; 63
 41a:	0e 94 30 01 	call	0x260	; 0x260 <SPI_RW_Reg>
	SPI_RW_Reg(WRITE_REG_NRF24L01 + SETUP_RETR, 0x0a); // (Automatic retransmission delay to wait 250us +86 us, automatic repeat 10 times)
 41e:	84 e2       	ldi	r24, 0x24	; 36
 420:	6a e0       	ldi	r22, 0x0A	; 10
 422:	0e 94 30 01 	call	0x260	; 0x260 <SPI_RW_Reg>
	SPI_RW_Reg(WRITE_REG_NRF24L01 + RF_CH, RF_CHANNEL); // 0(Select the RF channel 0x40)
 426:	85 e2       	ldi	r24, 0x25	; 37
 428:	60 91 1a 01 	lds	r22, 0x011A
 42c:	0e 94 30 01 	call	0x260	; 0x260 <SPI_RW_Reg>
	SPI_RW_Reg(WRITE_REG_NRF24L01 + RF_SETUP, 0x07); //(Data transfer rate 1Mbps, transmitting power 0dBm, low-noise amplifier gain)
 430:	86 e2       	ldi	r24, 0x26	; 38
 432:	67 e0       	ldi	r22, 0x07	; 7
 434:	0e 94 30 01 	call	0x260	; 0x260 <SPI_RW_Reg>
	SPI_RW_Reg(WRITE_REG_NRF24L01 + RX_PW_P0, TX_PLOAD_WIDTH); /// / Receive channel 0 select and send the same channel width of valid data)
 438:	81 e3       	ldi	r24, 0x31	; 49
 43a:	60 e2       	ldi	r22, 0x20	; 32
 43c:	0e 94 30 01 	call	0x260	; 0x260 <SPI_RW_Reg>
	SPI_RW_Reg(WRITE_REG_NRF24L01 + CONFIG, 0x0e); // (CRC is enabled, the 16-bit CRC, power)
 440:	80 e2       	ldi	r24, 0x20	; 32
 442:	6e e0       	ldi	r22, 0x0E	; 14
 444:	0e 94 30 01 	call	0x260	; 0x260 <SPI_RW_Reg>
	CE_1;
 448:	5e 9a       	sbi	0x0b, 6	; 11
 44a:	8a e1       	ldi	r24, 0x1A	; 26
 44c:	8a 95       	dec	r24
 44e:	f1 f7       	brne	.-4      	; 0x44c <TX_Mode+0x6c>
	_delay_us(10);
}
 450:	1f 91       	pop	r17
 452:	0f 91       	pop	r16
 454:	ff 90       	pop	r15
 456:	ef 90       	pop	r14
 458:	08 95       	ret

0000045a <nRF24L01_Initial>:
//		PORTB |=  (1<<3) |(1<<4) |(1<<2) |(1<<1);
//		PORTB &= ~(1<<0);
//
//		DDRD |= (1<<6) | (1<<7);
//		PORTD |=  (1<<6) |(1<<7);
	DDRB |= (1 << 2) | (1 << 3) | (1 << 5);
 45a:	84 b1       	in	r24, 0x04	; 4
 45c:	8c 62       	ori	r24, 0x2C	; 44
 45e:	84 b9       	out	0x04, r24	; 4
	DDRB &= ~(1 << 4);
 460:	24 98       	cbi	0x04, 4	; 4
	PORTB |= (1 << 3) | (1 << 4) | (1 << 5);
 462:	85 b1       	in	r24, 0x05	; 5
 464:	88 63       	ori	r24, 0x38	; 56
 466:	85 b9       	out	0x05, r24	; 5

	DDRD |= (1 << 6) | (1 << 7);
 468:	8a b1       	in	r24, 0x0a	; 10
 46a:	80 6c       	ori	r24, 0xC0	; 192
 46c:	8a b9       	out	0x0a, r24	; 10
	DDRD &= ~(1 << 2);
 46e:	52 98       	cbi	0x0a, 2	; 10
	PORTD |= (1 << 2) | (1 << 6) | (1 << 7);
 470:	8b b1       	in	r24, 0x0b	; 11
 472:	84 6c       	ori	r24, 0xC4	; 196
 474:	8b b9       	out	0x0b, r24	; 11
	//    while(1);
//	SPCR = 0X5E;
//    SPSR=0x00;
	SPCR = 0x50; //
 476:	80 e5       	ldi	r24, 0x50	; 80
 478:	8c bd       	out	0x2c, r24	; 44
	SPSR = 0x00; //setup SPI
 47a:	1d bc       	out	0x2d, r1	; 45

	CSN_1;
 47c:	5f 9a       	sbi	0x0b, 7	; 11
	CE_0;
 47e:	5e 98       	cbi	0x0b, 6	; 11
}
 480:	08 95       	ret

00000482 <nRF24L01_Config>:

void nRF24L01_Config(void) {

	SPI_RW_Reg(WRITE_REG_NRF24L01 + CONFIG, 0x0e); // Set PWR_UP bit, enable CRC(2 bytes) &Prim:RX. RX_DR enabled..
 482:	80 e2       	ldi	r24, 0x20	; 32
 484:	6e e0       	ldi	r22, 0x0E	; 14
 486:	0e 94 30 01 	call	0x260	; 0x260 <SPI_RW_Reg>
	SPI_RW_Reg(WRITE_REG_NRF24L01 + EN_AA, 0x3f);
 48a:	81 e2       	ldi	r24, 0x21	; 33
 48c:	6f e3       	ldi	r22, 0x3F	; 63
 48e:	0e 94 30 01 	call	0x260	; 0x260 <SPI_RW_Reg>
	SPI_RW_Reg(WRITE_REG_NRF24L01 + EN_RXADDR, 0x3f); // Enable Pipe0
 492:	82 e2       	ldi	r24, 0x22	; 34
 494:	6f e3       	ldi	r22, 0x3F	; 63
 496:	0e 94 30 01 	call	0x260	; 0x260 <SPI_RW_Reg>
//	SPI_RW_Reg(WRITE_REG_NRF24L01 + SETUP_AW, 0x02); // Setup address width=5 bytes
//	SPI_RW_Reg(WRITE_REG_NRF24L01 + SETUP_RETR, 0x1a); // 500us + 86us, 10 retrans...
	SPI_RW_Reg(WRITE_REG_NRF24L01 + RF_CH, RF_CHANNEL);
 49a:	85 e2       	ldi	r24, 0x25	; 37
 49c:	60 91 1a 01 	lds	r22, 0x011A
 4a0:	0e 94 30 01 	call	0x260	; 0x260 <SPI_RW_Reg>
	SPI_RW_Reg(WRITE_REG_NRF24L01 + RF_SETUP, 0x07); // TX_PWR:0dBm, Datarate:2Mbps,
 4a4:	86 e2       	ldi	r24, 0x26	; 38
 4a6:	67 e0       	ldi	r22, 0x07	; 7
 4a8:	0e 94 30 01 	call	0x260	; 0x260 <SPI_RW_Reg>
}
 4ac:	08 95       	ret

000004ae <NRF24L01_Send>:

void NRF24L01_Send(void) {
	uint8_t status = 0x00;

	CE_0;
 4ae:	5e 98       	cbi	0x0b, 6	; 11
	TX_Mode(RX_BUF);
 4b0:	8b e1       	ldi	r24, 0x1B	; 27
 4b2:	91 e0       	ldi	r25, 0x01	; 1
 4b4:	0e 94 f0 01 	call	0x3e0	; 0x3e0 <TX_Mode>
 4b8:	8a e1       	ldi	r24, 0x1A	; 26
 4ba:	8a 95       	dec	r24
 4bc:	f1 f7       	brne	.-4      	; 0x4ba <NRF24L01_Send+0xc>
//	while(IRQ);
	_delay_us(10);
	status = SPI_Read_Reg(STATUS); // (Read the status register to determine its data reception status)
 4be:	87 e0       	ldi	r24, 0x07	; 7
 4c0:	0e 94 41 01 	call	0x282	; 0x282 <SPI_Read_Reg>
//	printf("STATUS=0x%2x\r\n", status);
	if (status & TX_DS) /*tx_ds == 0x20*/
 4c4:	85 ff       	sbrs	r24, 5
 4c6:	03 c0       	rjmp	.+6      	; 0x4ce <NRF24L01_Send+0x20>
	{
//		printf("STATUS=0x%x\r\n", status);
//		printf("XXXXXX!!\r\n");
		SPI_RW_Reg(WRITE_REG_NRF24L01 + STATUS, 0x20); // ；(Clear TX, let IRQ low;)
 4c8:	87 e2       	ldi	r24, 0x27	; 39
 4ca:	60 e2       	ldi	r22, 0x20	; 32
 4cc:	04 c0       	rjmp	.+8      	; 0x4d6 <NRF24L01_Send+0x28>
	} else if (status & MAX_RT) /* status = 0x10*/
 4ce:	84 ff       	sbrs	r24, 4
 4d0:	04 c0       	rjmp	.+8      	; 0x4da <NRF24L01_Send+0x2c>
	{
//		printf("Send to achieve maximum number of sending!!\r\n");
		SPI_RW_Reg(WRITE_REG_NRF24L01 + STATUS, 0x10); //；	(Clear TX, let IRQ low;)
 4d2:	87 e2       	ldi	r24, 0x27	; 39
 4d4:	60 e1       	ldi	r22, 0x10	; 16
 4d6:	0e 94 30 01 	call	0x260	; 0x260 <SPI_RW_Reg>
	}
	CE_1;
 4da:	5e 9a       	sbi	0x0b, 6	; 11
}
 4dc:	08 95       	ret

000004de <NRF24L01_Receive>:

void NRF24L01_Receive(void) {
 4de:	cf 93       	push	r28
 4e0:	df 93       	push	r29
	uint8_t status = 0x01;
	uint8_t checkSum = 0;
	flag = 1;
 4e2:	81 e0       	ldi	r24, 0x01	; 1
 4e4:	80 93 00 01 	sts	0x0100, r24

//	RX_Mode();
	wdt_reset();
 4e8:	a8 95       	wdr
	CE_0;
 4ea:	5e 98       	cbi	0x0b, 6	; 11
 4ec:	8a e1       	ldi	r24, 0x1A	; 26
 4ee:	8a 95       	dec	r24
 4f0:	f1 f7       	brne	.-4      	; 0x4ee <NRF24L01_Receive+0x10>
	_delay_us(10);
	status = SPI_Read_Reg(STATUS); // (Read the status register to determine its data reception status)
 4f2:	87 e0       	ldi	r24, 0x07	; 7
 4f4:	0e 94 41 01 	call	0x282	; 0x282 <SPI_Read_Reg>
	if (status & 0x40) //(Receive Interrupt Flag bit)
 4f8:	86 ff       	sbrs	r24, 6
 4fa:	5c c0       	rjmp	.+184    	; 0x5b4 <NRF24L01_Receive+0xd6>
			{
		SPI_Read_Buf(RD_RX_PLOAD, RX_BUF, TX_PLOAD_WIDTH); // read receive payload from RX_FIFO buffer
 4fc:	81 e6       	ldi	r24, 0x61	; 97
 4fe:	6b e1       	ldi	r22, 0x1B	; 27
 500:	71 e0       	ldi	r23, 0x01	; 1
 502:	40 e2       	ldi	r20, 0x20	; 32
 504:	0e 94 53 01 	call	0x2a6	; 0x2a6 <SPI_Read_Buf>
		SPI_RW_Reg(WRITE_REG_NRF24L01 + STATUS, 0x40); // (Clear TX, let IRQ low)
 508:	87 e2       	ldi	r24, 0x27	; 39
 50a:	60 e4       	ldi	r22, 0x40	; 64
 50c:	0e 94 30 01 	call	0x260	; 0x260 <SPI_RW_Reg>
//		printf("Receiving data: channel : 0x%02x        data : 0x%02x\r\n",
//				RX_BUF[13], RX_BUF[14]);
		wdt_reset();
 510:	a8 95       	wdr
////		dimmingLevel = RX_BUF[14];
//		DEBUG("seqcode = 0x%02X\n\r", seqcode);
//		DEBUG("RX_BUF  = 0x%02X\n\r", RX_BUF[5]);

//		if (seqcode < RX_BUF[5]) {
		if (RX_BUF[2] == 0x80) {
 512:	80 91 1d 01 	lds	r24, 0x011D
 516:	80 38       	cpi	r24, 0x80	; 128
 518:	09 f0       	breq	.+2      	; 0x51c <NRF24L01_Receive+0x3e>
 51a:	4c c0       	rjmp	.+152    	; 0x5b4 <NRF24L01_Receive+0xd6>
			if (RX_BUF[3] == 0x11) {
 51c:	80 91 1e 01 	lds	r24, 0x011E
 520:	81 31       	cpi	r24, 0x11	; 17
 522:	09 f0       	breq	.+2      	; 0x526 <NRF24L01_Receive+0x48>
 524:	47 c0       	rjmp	.+142    	; 0x5b4 <NRF24L01_Receive+0xd6>
 526:	ed e1       	ldi	r30, 0x1D	; 29
 528:	f1 e0       	ldi	r31, 0x01	; 1
 52a:	90 e0       	ldi	r25, 0x00	; 0
				for (int i = 2; i < (2 + 19); i++) {
					checkSum += (RX_BUF[i] & 0xFF);
 52c:	81 91       	ld	r24, Z+
 52e:	98 0f       	add	r25, r24
//		DEBUG("RX_BUF  = 0x%02X\n\r", RX_BUF[5]);

//		if (seqcode < RX_BUF[5]) {
		if (RX_BUF[2] == 0x80) {
			if (RX_BUF[3] == 0x11) {
				for (int i = 2; i < (2 + 19); i++) {
 530:	81 e0       	ldi	r24, 0x01	; 1
 532:	e0 33       	cpi	r30, 0x30	; 48
 534:	f8 07       	cpc	r31, r24
 536:	d1 f7       	brne	.-12     	; 0x52c <NRF24L01_Receive+0x4e>
					checkSum += (RX_BUF[i] & 0xFF);
				}
				if (RX_BUF[21] == (uint8) checkSum) {
 538:	80 81       	ld	r24, Z
 53a:	89 17       	cp	r24, r25
 53c:	c1 f5       	brne	.+112    	; 0x5ae <NRF24L01_Receive+0xd0>
					if (RX_BUF[13] == 0x00) {
 53e:	80 91 28 01 	lds	r24, 0x0128
 542:	88 23       	and	r24, r24
 544:	51 f4       	brne	.+20     	; 0x55a <NRF24L01_Receive+0x7c>
						if (g_DimmingLevel[0] != RX_BUF[14]) {
 546:	90 91 29 01 	lds	r25, 0x0129
 54a:	80 91 dd 01 	lds	r24, 0x01DD
 54e:	89 17       	cp	r24, r25
 550:	11 f0       	breq	.+4      	; 0x556 <NRF24L01_Receive+0x78>
							flag = 0;
 552:	10 92 00 01 	sts	0x0100, r1
						}

						g_DimmingLevel[0] = RX_BUF[14];
 556:	90 93 dd 01 	sts	0x01DD, r25
//						g_DimmingLevel[0] = PWM_change(RX_BUF[14]);
//						DEBUG("channel 0 : 0x%02X\n\r", RX_BUF[14]);
					}
					if (RX_BUF[15] == 0x01) {
 55a:	80 91 2a 01 	lds	r24, 0x012A
 55e:	81 30       	cpi	r24, 0x01	; 1
 560:	51 f4       	brne	.+20     	; 0x576 <NRF24L01_Receive+0x98>
						if (g_DimmingLevel[1] != RX_BUF[16]) {
 562:	90 91 2b 01 	lds	r25, 0x012B
 566:	80 91 de 01 	lds	r24, 0x01DE
 56a:	89 17       	cp	r24, r25
 56c:	11 f0       	breq	.+4      	; 0x572 <NRF24L01_Receive+0x94>
							flag = 0;
 56e:	10 92 00 01 	sts	0x0100, r1
						}
						g_DimmingLevel[1] = RX_BUF[16];
 572:	90 93 de 01 	sts	0x01DE, r25
//						g_DimmingLevel[1] = PWM_change(RX_BUF[16]);
//						DEBUG("channel 1 : 0x%02X\n\r", RX_BUF[16]);
					}
					if (RX_BUF[17] == 0x02) {
 576:	80 91 2c 01 	lds	r24, 0x012C
 57a:	82 30       	cpi	r24, 0x02	; 2
 57c:	51 f4       	brne	.+20     	; 0x592 <NRF24L01_Receive+0xb4>
						if (g_DimmingLevel[2] != RX_BUF[18]) {
 57e:	90 91 2d 01 	lds	r25, 0x012D
 582:	80 91 df 01 	lds	r24, 0x01DF
 586:	89 17       	cp	r24, r25
 588:	11 f0       	breq	.+4      	; 0x58e <NRF24L01_Receive+0xb0>
							flag = 0;
 58a:	10 92 00 01 	sts	0x0100, r1
						}
						g_DimmingLevel[2] = RX_BUF[18];
 58e:	90 93 df 01 	sts	0x01DF, r25
//						g_DimmingLevel[2] = PWM_change(RX_BUF[18]);
//						DEBUG("channel 2 : 0x%02X\n\r", RX_BUF[18]);
					}
					if (RX_BUF[19] == 0x03) {
 592:	80 91 2e 01 	lds	r24, 0x012E
 596:	83 30       	cpi	r24, 0x03	; 3
 598:	51 f4       	brne	.+20     	; 0x5ae <NRF24L01_Receive+0xd0>
						if (g_DimmingLevel[3] != RX_BUF[20]) {
 59a:	90 91 2f 01 	lds	r25, 0x012F
 59e:	80 91 e0 01 	lds	r24, 0x01E0
 5a2:	89 17       	cp	r24, r25
 5a4:	11 f0       	breq	.+4      	; 0x5aa <NRF24L01_Receive+0xcc>
							flag = 0;
 5a6:	10 92 00 01 	sts	0x0100, r1
						}
						g_DimmingLevel[3] = RX_BUF[20];
 5aa:	90 93 e0 01 	sts	0x01E0, r25
//						g_DimmingLevel[3] = PWM_change(RX_BUF[20]);
//						DEBUG("channel 3 : 0x%02X\n\r", RX_BUF[20]);
					}
				}
				g_TestFlag = 1;
 5ae:	81 e0       	ldi	r24, 0x01	; 1
 5b0:	80 93 19 01 	sts	0x0119, r24
			}
		}

	}
//	}
	CE_1;
 5b4:	5e 9a       	sbi	0x0b, 6	; 11
    milliseconds can be achieved.
 */
void
_delay_loop_2(uint16_t __count)
{
	__asm__ volatile (
 5b6:	c0 ed       	ldi	r28, 0xD0	; 208
 5b8:	d7 e0       	ldi	r29, 0x07	; 7
 5ba:	ce 01       	movw	r24, r28
 5bc:	01 97       	sbiw	r24, 0x01	; 1
 5be:	f1 f7       	brne	.-4      	; 0x5bc <NRF24L01_Receive+0xde>
	_delay_ms(1);
	if (flag == 0) {
 5c0:	80 91 00 01 	lds	r24, 0x0100
 5c4:	88 23       	and	r24, r24
 5c6:	39 f4       	brne	.+14     	; 0x5d6 <NRF24L01_Receive+0xf8>
		NRF24L01_Send();
 5c8:	0e 94 57 02 	call	0x4ae	; 0x4ae <NRF24L01_Send>
 5cc:	ce 01       	movw	r24, r28
 5ce:	01 97       	sbiw	r24, 0x01	; 1
 5d0:	f1 f7       	brne	.-4      	; 0x5ce <NRF24L01_Receive+0xf0>
		_delay_ms(1);
		RX_Mode();
 5d2:	0e 94 c5 01 	call	0x38a	; 0x38a <RX_Mode>
	}
}
 5d6:	df 91       	pop	r29
 5d8:	cf 91       	pop	r28
 5da:	08 95       	ret

000005dc <PWM_change>:
#include <avr/eeprom.h>
#include "Debug.h"
uint8 isWatchdogEnabled = 255;
uint8 watchdogResetCount = 255;

uint8 PWM_change(uint8 data) {
 5dc:	40 e0       	ldi	r20, 0x00	; 0
 5de:	20 e0       	ldi	r18, 0x00	; 0
 5e0:	30 e0       	ldi	r19, 0x00	; 0
	uint8 out_data = 0;

	for (int i = 0; i < 254; i++) {
		if (data == i) {
 5e2:	90 e0       	ldi	r25, 0x00	; 0
 5e4:	82 17       	cp	r24, r18
 5e6:	93 07       	cpc	r25, r19
 5e8:	11 f4       	brne	.+4      	; 0x5ee <PWM_change+0x12>
			out_data = 255 - i;
 5ea:	48 2f       	mov	r20, r24
 5ec:	40 95       	com	r20
uint8 watchdogResetCount = 255;

uint8 PWM_change(uint8 data) {
	uint8 out_data = 0;

	for (int i = 0; i < 254; i++) {
 5ee:	2f 5f       	subi	r18, 0xFF	; 255
 5f0:	3f 4f       	sbci	r19, 0xFF	; 255
 5f2:	2e 3f       	cpi	r18, 0xFE	; 254
 5f4:	31 05       	cpc	r19, r1
 5f6:	b1 f7       	brne	.-20     	; 0x5e4 <PWM_change+0x8>
		if (data == i) {
			out_data = 255 - i;
		}
	}
	return out_data;
}
 5f8:	84 2f       	mov	r24, r20
 5fa:	08 95       	ret

000005fc <MDP_SetWatchdogResetCount>:
				(uint8_t*) WATCHDOG_RESET_COUNT_VALUE);
	}
	return watchdogResetCount;
}

uint8 MDP_SetWatchdogResetCount(uint8 value) {
 5fc:	68 2f       	mov	r22, r24
	if (watchdogResetCount != value) {
 5fe:	80 91 07 01 	lds	r24, 0x0107
 602:	86 17       	cp	r24, r22
 604:	31 f0       	breq	.+12     	; 0x612 <MDP_SetWatchdogResetCount+0x16>
		watchdogResetCount = value;
 606:	60 93 07 01 	sts	0x0107, r22
		eeprom_write_byte((uint8_t*) WATCHDOG_RESET_COUNT_VALUE, value);
 60a:	88 ec       	ldi	r24, 0xC8	; 200
 60c:	90 e0       	ldi	r25, 0x00	; 0
 60e:	0e 94 cd 07 	call	0xf9a	; 0xf9a <__eewr_byte_m328p>
	}
	return 0;
}
 612:	80 e0       	ldi	r24, 0x00	; 0
 614:	08 95       	ret

00000616 <MDP_GetWatchdogResetCount>:
	}
	return isWatchdogEnabled;
}

uint8 MDP_GetWatchdogResetCount() {
	if (watchdogResetCount == 255) {
 616:	80 91 07 01 	lds	r24, 0x0107
 61a:	8f 3f       	cpi	r24, 0xFF	; 255
 61c:	31 f4       	brne	.+12     	; 0x62a <MDP_GetWatchdogResetCount+0x14>
		watchdogResetCount = eeprom_read_byte(
 61e:	88 ec       	ldi	r24, 0xC8	; 200
 620:	90 e0       	ldi	r25, 0x00	; 0
 622:	0e 94 c5 07 	call	0xf8a	; 0xf8a <__eerd_byte_m328p>
 626:	80 93 07 01 	sts	0x0107, r24
				(uint8_t*) WATCHDOG_RESET_COUNT_VALUE);
	}
	return watchdogResetCount;
}
 62a:	80 91 07 01 	lds	r24, 0x0107
 62e:	08 95       	ret

00000630 <MDP_ProcessDimmingReq>:
	default:
		break;
	}
}

void MDP_ProcessDimmingReq(uint8 msg[], int length) {
 630:	fc 01       	movw	r30, r24
	uint8 channelId = 0;
	uint8 dimmingLevel = 0;

	channelId = msg[11];
	dimmingLevel = msg[12];
	if (msg[11] == 0x00) {
 632:	83 85       	ldd	r24, Z+11	; 0x0b
 634:	88 23       	and	r24, r24
 636:	89 f4       	brne	.+34     	; 0x65a <MDP_ProcessDimmingReq+0x2a>
//		g_DimmingLevel[0] = msg[12];
		g_DimmingLevel[0] = PWM_change(msg[12]);
 638:	84 85       	ldd	r24, Z+12	; 0x0c
 63a:	20 e0       	ldi	r18, 0x00	; 0
 63c:	30 e0       	ldi	r19, 0x00	; 0
 63e:	40 e0       	ldi	r20, 0x00	; 0

uint8 PWM_change(uint8 data) {
	uint8 out_data = 0;

	for (int i = 0; i < 254; i++) {
		if (data == i) {
 640:	90 e0       	ldi	r25, 0x00	; 0
 642:	82 17       	cp	r24, r18
 644:	93 07       	cpc	r25, r19
 646:	11 f4       	brne	.+4      	; 0x64c <MDP_ProcessDimmingReq+0x1c>
			out_data = 255 - i;
 648:	48 2f       	mov	r20, r24
 64a:	40 95       	com	r20
uint8 watchdogResetCount = 255;

uint8 PWM_change(uint8 data) {
	uint8 out_data = 0;

	for (int i = 0; i < 254; i++) {
 64c:	2f 5f       	subi	r18, 0xFF	; 255
 64e:	3f 4f       	sbci	r19, 0xFF	; 255
 650:	2e 3f       	cpi	r18, 0xFE	; 254
 652:	31 05       	cpc	r19, r1
 654:	b1 f7       	brne	.-20     	; 0x642 <MDP_ProcessDimmingReq+0x12>

	channelId = msg[11];
	dimmingLevel = msg[12];
	if (msg[11] == 0x00) {
//		g_DimmingLevel[0] = msg[12];
		g_DimmingLevel[0] = PWM_change(msg[12]);
 656:	40 93 dd 01 	sts	0x01DD, r20
//		DEBUG("channel 0 : 0x%02X\n\r", msg[12]);

	}
	if (msg[13] == 0x01) {
 65a:	85 85       	ldd	r24, Z+13	; 0x0d
 65c:	81 30       	cpi	r24, 0x01	; 1
 65e:	89 f4       	brne	.+34     	; 0x682 <MDP_ProcessDimmingReq+0x52>
//		g_DimmingLevel[1] = msg[14];
		g_DimmingLevel[1] = PWM_change(msg[14]);
 660:	86 85       	ldd	r24, Z+14	; 0x0e
 662:	20 e0       	ldi	r18, 0x00	; 0
 664:	30 e0       	ldi	r19, 0x00	; 0
 666:	40 e0       	ldi	r20, 0x00	; 0

uint8 PWM_change(uint8 data) {
	uint8 out_data = 0;

	for (int i = 0; i < 254; i++) {
		if (data == i) {
 668:	90 e0       	ldi	r25, 0x00	; 0
 66a:	82 17       	cp	r24, r18
 66c:	93 07       	cpc	r25, r19
 66e:	11 f4       	brne	.+4      	; 0x674 <MDP_ProcessDimmingReq+0x44>
			out_data = 255 - i;
 670:	48 2f       	mov	r20, r24
 672:	40 95       	com	r20
uint8 watchdogResetCount = 255;

uint8 PWM_change(uint8 data) {
	uint8 out_data = 0;

	for (int i = 0; i < 254; i++) {
 674:	2f 5f       	subi	r18, 0xFF	; 255
 676:	3f 4f       	sbci	r19, 0xFF	; 255
 678:	2e 3f       	cpi	r18, 0xFE	; 254
 67a:	31 05       	cpc	r19, r1
 67c:	b1 f7       	brne	.-20     	; 0x66a <MDP_ProcessDimmingReq+0x3a>
//		DEBUG("channel 0 : 0x%02X\n\r", msg[12]);

	}
	if (msg[13] == 0x01) {
//		g_DimmingLevel[1] = msg[14];
		g_DimmingLevel[1] = PWM_change(msg[14]);
 67e:	40 93 de 01 	sts	0x01DE, r20
//		DEBUG("channel 1 : 0x%02X\n\r", msg[14]);
	}
	if (msg[15] == 0x02) {
 682:	87 85       	ldd	r24, Z+15	; 0x0f
 684:	82 30       	cpi	r24, 0x02	; 2
 686:	89 f4       	brne	.+34     	; 0x6aa <MDP_ProcessDimmingReq+0x7a>
//		g_DimmingLevel[2] = msg[16];
		g_DimmingLevel[2] = PWM_change(msg[16]);
 688:	80 89       	ldd	r24, Z+16	; 0x10
 68a:	20 e0       	ldi	r18, 0x00	; 0
 68c:	30 e0       	ldi	r19, 0x00	; 0
 68e:	40 e0       	ldi	r20, 0x00	; 0

uint8 PWM_change(uint8 data) {
	uint8 out_data = 0;

	for (int i = 0; i < 254; i++) {
		if (data == i) {
 690:	90 e0       	ldi	r25, 0x00	; 0
 692:	82 17       	cp	r24, r18
 694:	93 07       	cpc	r25, r19
 696:	11 f4       	brne	.+4      	; 0x69c <MDP_ProcessDimmingReq+0x6c>
			out_data = 255 - i;
 698:	48 2f       	mov	r20, r24
 69a:	40 95       	com	r20
uint8 watchdogResetCount = 255;

uint8 PWM_change(uint8 data) {
	uint8 out_data = 0;

	for (int i = 0; i < 254; i++) {
 69c:	2f 5f       	subi	r18, 0xFF	; 255
 69e:	3f 4f       	sbci	r19, 0xFF	; 255
 6a0:	2e 3f       	cpi	r18, 0xFE	; 254
 6a2:	31 05       	cpc	r19, r1
 6a4:	b1 f7       	brne	.-20     	; 0x692 <MDP_ProcessDimmingReq+0x62>
		g_DimmingLevel[1] = PWM_change(msg[14]);
//		DEBUG("channel 1 : 0x%02X\n\r", msg[14]);
	}
	if (msg[15] == 0x02) {
//		g_DimmingLevel[2] = msg[16];
		g_DimmingLevel[2] = PWM_change(msg[16]);
 6a6:	40 93 df 01 	sts	0x01DF, r20
//		DEBUG("channel 2 : 0x%02X\n\r", msg[16]);
	}
	if (msg[17] == 0x03) {
 6aa:	81 89       	ldd	r24, Z+17	; 0x11
 6ac:	83 30       	cpi	r24, 0x03	; 3
 6ae:	89 f4       	brne	.+34     	; 0x6d2 <MDP_ProcessDimmingReq+0xa2>
//		g_DimmingLevel[3] = msg[18];
		g_DimmingLevel[3] = PWM_change(msg[18]);
 6b0:	82 89       	ldd	r24, Z+18	; 0x12
 6b2:	20 e0       	ldi	r18, 0x00	; 0
 6b4:	30 e0       	ldi	r19, 0x00	; 0
 6b6:	40 e0       	ldi	r20, 0x00	; 0

uint8 PWM_change(uint8 data) {
	uint8 out_data = 0;

	for (int i = 0; i < 254; i++) {
		if (data == i) {
 6b8:	90 e0       	ldi	r25, 0x00	; 0
 6ba:	82 17       	cp	r24, r18
 6bc:	93 07       	cpc	r25, r19
 6be:	11 f4       	brne	.+4      	; 0x6c4 <MDP_ProcessDimmingReq+0x94>
			out_data = 255 - i;
 6c0:	48 2f       	mov	r20, r24
 6c2:	40 95       	com	r20
uint8 watchdogResetCount = 255;

uint8 PWM_change(uint8 data) {
	uint8 out_data = 0;

	for (int i = 0; i < 254; i++) {
 6c4:	2f 5f       	subi	r18, 0xFF	; 255
 6c6:	3f 4f       	sbci	r19, 0xFF	; 255
 6c8:	2e 3f       	cpi	r18, 0xFE	; 254
 6ca:	31 05       	cpc	r19, r1
 6cc:	b1 f7       	brne	.-20     	; 0x6ba <MDP_ProcessDimmingReq+0x8a>
		g_DimmingLevel[2] = PWM_change(msg[16]);
//		DEBUG("channel 2 : 0x%02X\n\r", msg[16]);
	}
	if (msg[17] == 0x03) {
//		g_DimmingLevel[3] = msg[18];
		g_DimmingLevel[3] = PWM_change(msg[18]);
 6ce:	40 93 e0 01 	sts	0x01E0, r20
//		DEBUG("channel 3 : 0x%02X\n\r", msg[18]);
	}

	g_TestFlag = 1;
 6d2:	81 e0       	ldi	r24, 0x01	; 1
 6d4:	80 93 19 01 	sts	0x0119, r24

	PORTD ^= 0x40;
 6d8:	8b b1       	in	r24, 0x0b	; 11
 6da:	90 e4       	ldi	r25, 0x40	; 64
 6dc:	89 27       	eor	r24, r25
 6de:	8b b9       	out	0x0b, r24	; 11

	if (MDP_GetWatchdogResetCount() > 0) {
 6e0:	0e 94 0b 03 	call	0x616	; 0x616 <MDP_GetWatchdogResetCount>
 6e4:	88 23       	and	r24, r24
 6e6:	19 f0       	breq	.+6      	; 0x6ee <MDP_ProcessDimmingReq+0xbe>
		MDP_SetWatchdogResetCount(0);
 6e8:	80 e0       	ldi	r24, 0x00	; 0
 6ea:	0e 94 fe 02 	call	0x5fc	; 0x5fc <MDP_SetWatchdogResetCount>
 6ee:	08 95       	ret

000006f0 <MDP_IsWatchdogEnable>:
	if (eeprom_read_byte((uint8_t*) WATCHDOG_ENABLE_VALUE) != isWatchdogEnabled)
		eeprom_write_byte((uint8_t*) WATCHDOG_ENABLE_VALUE, isWatchdogEnabled);
}

uint8 MDP_IsWatchdogEnable() {
	if (isWatchdogEnabled == 255) {
 6f0:	80 91 06 01 	lds	r24, 0x0106
 6f4:	8f 3f       	cpi	r24, 0xFF	; 255
 6f6:	31 f4       	brne	.+12     	; 0x704 <MDP_IsWatchdogEnable+0x14>
		isWatchdogEnabled = eeprom_read_byte((uint8_t*) WATCHDOG_ENABLE_VALUE);
 6f8:	84 e6       	ldi	r24, 0x64	; 100
 6fa:	90 e0       	ldi	r25, 0x00	; 0
 6fc:	0e 94 c5 07 	call	0xf8a	; 0xf8a <__eerd_byte_m328p>
 700:	80 93 06 01 	sts	0x0106, r24
	}
	return isWatchdogEnabled;
}
 704:	80 91 06 01 	lds	r24, 0x0106
 708:	08 95       	ret

0000070a <MDP_ProcessSetWatchdogReq>:
	if (MDP_GetWatchdogResetCount() > 0) {
		MDP_SetWatchdogResetCount(0);
	}
}

void MDP_ProcessSetWatchdogReq(uint8 msg[], int length) {
 70a:	1f 93       	push	r17
	isWatchdogEnabled = msg[11];
 70c:	fc 01       	movw	r30, r24
 70e:	13 85       	ldd	r17, Z+11	; 0x0b
 710:	10 93 06 01 	sts	0x0106, r17
	if (eeprom_read_byte((uint8_t*) WATCHDOG_ENABLE_VALUE) != isWatchdogEnabled)
 714:	84 e6       	ldi	r24, 0x64	; 100
 716:	90 e0       	ldi	r25, 0x00	; 0
 718:	0e 94 c5 07 	call	0xf8a	; 0xf8a <__eerd_byte_m328p>
 71c:	81 17       	cp	r24, r17
 71e:	29 f0       	breq	.+10     	; 0x72a <MDP_ProcessSetWatchdogReq+0x20>
		eeprom_write_byte((uint8_t*) WATCHDOG_ENABLE_VALUE, isWatchdogEnabled);
 720:	84 e6       	ldi	r24, 0x64	; 100
 722:	90 e0       	ldi	r25, 0x00	; 0
 724:	61 2f       	mov	r22, r17
 726:	0e 94 cd 07 	call	0xf9a	; 0xf9a <__eewr_byte_m328p>
}
 72a:	1f 91       	pop	r17
 72c:	08 95       	ret

0000072e <MDP_ProcessMessage>:
		}
	}
	return out_data;
}

void MDP_ProcessMessage(uint8 msg[], int length) {
 72e:	fc 01       	movw	r30, r24
	uint8 msgType;

	msgType = msg[8];

	switch (msgType) { // Msg Type of NCP
 730:	80 85       	ldd	r24, Z+8	; 0x08
 732:	82 33       	cpi	r24, 0x32	; 50
 734:	19 f0       	breq	.+6      	; 0x73c <MDP_ProcessMessage+0xe>
 736:	80 34       	cpi	r24, 0x40	; 64
 738:	41 f4       	brne	.+16     	; 0x74a <MDP_ProcessMessage+0x1c>
 73a:	04 c0       	rjmp	.+8      	; 0x744 <MDP_ProcessMessage+0x16>
	case PLCS_DP_REQ_DIMMING:
		MDP_ProcessDimmingReq(msg, length);
 73c:	cf 01       	movw	r24, r30
 73e:	0e 94 18 03 	call	0x630	; 0x630 <MDP_ProcessDimmingReq>
 742:	08 95       	ret
		break;
	case PLCS_DP_REQ_WATCHDOG:
		MDP_ProcessSetWatchdogReq(msg, length);
 744:	cf 01       	movw	r24, r30
 746:	0e 94 85 03 	call	0x70a	; 0x70a <MDP_ProcessSetWatchdogReq>
 74a:	08 95       	ret

0000074c <InitUART>:
//	UCSRB = 0x90;
//	UCSRC = 0x86;
//	UBRRH = 0x00;
//	UBRRL = 0x33; //9600

	UCSR0A = 0x00; // U2X = 0
 74c:	10 92 c0 00 	sts	0x00C0, r1
	UCSR0B = 0x98;
 750:	88 e9       	ldi	r24, 0x98	; 152
 752:	80 93 c1 00 	sts	0x00C1, r24
	UCSR0C = 0x06;
 756:	86 e0       	ldi	r24, 0x06	; 6
 758:	80 93 c2 00 	sts	0x00C2, r24
	UBRR0H = 0x00;
 75c:	10 92 c5 00 	sts	0x00C5, r1
	UBRR0L = 0x33; // 9600
 760:	83 e3       	ldi	r24, 0x33	; 51
 762:	80 93 c4 00 	sts	0x00C4, r24
}
 766:	08 95       	ret

00000768 <__vector_18>:

//--------------------- USART0 -------------------------//
//------------------------------------------------------//
uint8 status;
uint8 data;
ISR(USART_RX_vect) {
 768:	1f 92       	push	r1
 76a:	0f 92       	push	r0
 76c:	0f b6       	in	r0, 0x3f	; 63
 76e:	0f 92       	push	r0
 770:	11 24       	eor	r1, r1
 772:	2f 93       	push	r18
 774:	8f 93       	push	r24
 776:	9f 93       	push	r25
 778:	ef 93       	push	r30
 77a:	ff 93       	push	r31
	DISABLE_INTERRUPT();
 77c:	f8 94       	cli
	while (((status = UCSR0A) & (1 << RXC0)) == 0)
 77e:	80 91 c0 00 	lds	r24, 0x00C0
 782:	87 ff       	sbrs	r24, 7
 784:	fc cf       	rjmp	.-8      	; 0x77e <__vector_18+0x16>
 786:	80 93 9c 01 	sts	0x019C, r24
		;

	data = UDR0;
 78a:	20 91 c6 00 	lds	r18, 0x00C6
 78e:	20 93 5b 01 	sts	0x015B, r18

	uart_rx_buff[uart_rx_tail] = data;
 792:	80 91 0d 01 	lds	r24, 0x010D
 796:	90 e0       	ldi	r25, 0x00	; 0
 798:	fc 01       	movw	r30, r24
 79a:	e4 5a       	subi	r30, 0xA4	; 164
 79c:	fe 4f       	sbci	r31, 0xFE	; 254
 79e:	20 83       	st	Z, r18
	uart_rx_tail = (uart_rx_tail + 1) % USART_BUFF_SIZE;
 7a0:	01 96       	adiw	r24, 0x01	; 1
 7a2:	8f 73       	andi	r24, 0x3F	; 63
 7a4:	90 70       	andi	r25, 0x00	; 0
 7a6:	80 93 0d 01 	sts	0x010D, r24
	uart_rx_len++;
 7aa:	80 91 0e 01 	lds	r24, 0x010E
 7ae:	8f 5f       	subi	r24, 0xFF	; 255
 7b0:	80 93 0e 01 	sts	0x010E, r24
	ENABLE_INTERRUPT();
 7b4:	78 94       	sei
}
 7b6:	ff 91       	pop	r31
 7b8:	ef 91       	pop	r30
 7ba:	9f 91       	pop	r25
 7bc:	8f 91       	pop	r24
 7be:	2f 91       	pop	r18
 7c0:	0f 90       	pop	r0
 7c2:	0f be       	out	0x3f, r0	; 63
 7c4:	0f 90       	pop	r0
 7c6:	1f 90       	pop	r1
 7c8:	18 95       	reti

000007ca <USART_Receive>:

//------------------------------------------------------//

//------------------------------------------------------//
int USART_Receive(uint8 *buff) {
 7ca:	dc 01       	movw	r26, r24

	DISABLE_INTERRUPT();
 7cc:	f8 94       	cli

	if (uart_rx_len > 0) {
 7ce:	80 91 0e 01 	lds	r24, 0x010E
 7d2:	88 23       	and	r24, r24
 7d4:	b1 f0       	breq	.+44     	; 0x802 <USART_Receive+0x38>
		uart_rx_len--;
 7d6:	81 50       	subi	r24, 0x01	; 1
 7d8:	80 93 0e 01 	sts	0x010E, r24
		ENABLE_INTERRUPT();
 7dc:	78 94       	sei
		*buff = uart_rx_buff[uart_rx_front];
 7de:	e0 91 0c 01 	lds	r30, 0x010C
 7e2:	f0 e0       	ldi	r31, 0x00	; 0
 7e4:	e4 5a       	subi	r30, 0xA4	; 164
 7e6:	fe 4f       	sbci	r31, 0xFE	; 254
 7e8:	80 81       	ld	r24, Z
 7ea:	8c 93       	st	X, r24
		uart_rx_front = (uart_rx_front + 1) % USART_BUFF_SIZE;
 7ec:	80 91 0c 01 	lds	r24, 0x010C
 7f0:	90 e0       	ldi	r25, 0x00	; 0
 7f2:	01 96       	adiw	r24, 0x01	; 1
 7f4:	8f 73       	andi	r24, 0x3F	; 63
 7f6:	90 70       	andi	r25, 0x00	; 0
 7f8:	80 93 0c 01 	sts	0x010C, r24
 7fc:	21 e0       	ldi	r18, 0x01	; 1
 7fe:	30 e0       	ldi	r19, 0x00	; 0
 800:	03 c0       	rjmp	.+6      	; 0x808 <USART_Receive+0x3e>

		return 1;
	}

	ENABLE_INTERRUPT();
 802:	78 94       	sei
 804:	20 e0       	ldi	r18, 0x00	; 0
 806:	30 e0       	ldi	r19, 0x00	; 0

	return 0;
}
 808:	c9 01       	movw	r24, r18
 80a:	08 95       	ret

0000080c <USART_Transmit>:

int USART_Transmit(uint8 buff) {
 80c:	98 2f       	mov	r25, r24
	while ((UCSR0A & (1 << UDRE0)) == 0)
 80e:	80 91 c0 00 	lds	r24, 0x00C0
 812:	85 ff       	sbrs	r24, 5
 814:	fc cf       	rjmp	.-8      	; 0x80e <USART_Transmit+0x2>
		;
	// tx isr.

	UDR0 = buff;
 816:	90 93 c6 00 	sts	0x00C6, r25
	return 1;
}
 81a:	81 e0       	ldi	r24, 0x01	; 1
 81c:	90 e0       	ldi	r25, 0x00	; 0
 81e:	08 95       	ret

00000820 <XNetHandler>:
#include <string.h>
#include "NC_Protocol.h"
#include "Xcps.h"
#include "MD_Protocol.h"
#include "Debug.h"
uint8 XNetHandler(uint8 buff[], int buff_length) {
 820:	fc 01       	movw	r30, r24
	uint8 pid;
	uint8 subPid;

	pid = buff[0];
	subPid = buff[1];
 822:	91 81       	ldd	r25, Z+1	; 0x01
//		DEBUG("%02X ", buff[i]);
//
//	}
//	DEBUG("\n\r");

	switch (pid) {
 824:	80 81       	ld	r24, Z
 826:	80 38       	cpi	r24, 0x80	; 128
 828:	29 f4       	brne	.+10     	; 0x834 <XNetHandler+0x14>
	case NCP_PROTOCOL_ID: {
		switch (subPid) {
 82a:	91 31       	cpi	r25, 0x11	; 17
 82c:	19 f4       	brne	.+6      	; 0x834 <XNetHandler+0x14>
		case PLCS_DP_PROTOCOL_ID:
			MDP_ProcessMessage(buff, buff_length);
 82e:	cf 01       	movw	r24, r30
 830:	0e 94 97 03 	call	0x72e	; 0x72e <MDP_ProcessMessage>
	default:
		break;
	}

	return 1;
}
 834:	81 e0       	ldi	r24, 0x01	; 1
 836:	08 95       	ret

00000838 <xcps_init>:

/**

 **/
int xcps_init(usart_getter getter, usart_putter putter) {
	xcps_getter = getter;
 838:	90 93 14 01 	sts	0x0114, r25
 83c:	80 93 13 01 	sts	0x0113, r24
	xcps_putter = putter;
 840:	70 93 18 01 	sts	0x0118, r23
 844:	60 93 17 01 	sts	0x0117, r22

	return 0;
}
 848:	80 e0       	ldi	r24, 0x00	; 0
 84a:	90 e0       	ldi	r25, 0x00	; 0
 84c:	08 95       	ret

0000084e <xcps_recv>:

int xcps_recv(uint8 *buff, int buff_length) {
 84e:	0f 93       	push	r16
 850:	1f 93       	push	r17
 852:	df 93       	push	r29
 854:	cf 93       	push	r28
 856:	0f 92       	push	r0
 858:	cd b7       	in	r28, 0x3d	; 61
 85a:	de b7       	in	r29, 0x3e	; 62
 85c:	8c 01       	movw	r16, r24
	uint8 temp;
	int i;
	int checkSum = 0;

	// check getter.
	if (!xcps_getter)
 85e:	e0 91 13 01 	lds	r30, 0x0113
 862:	f0 91 14 01 	lds	r31, 0x0114
 866:	30 97       	sbiw	r30, 0x00	; 0
 868:	19 f4       	brne	.+6      	; 0x870 <xcps_recv+0x22>
 86a:	2f ef       	ldi	r18, 0xFF	; 255
 86c:	3f ef       	ldi	r19, 0xFF	; 255
 86e:	ac c0       	rjmp	.+344    	; 0x9c8 <__stack+0xc9>
		return -1;

	if (xcps_getter(&temp) < 1)
 870:	ce 01       	movw	r24, r28
 872:	01 96       	adiw	r24, 0x01	; 1
 874:	09 95       	icall
 876:	18 16       	cp	r1, r24
 878:	19 06       	cpc	r1, r25
 87a:	0c f0       	brlt	.+2      	; 0x87e <xcps_recv+0x30>
 87c:	a3 c0       	rjmp	.+326    	; 0x9c4 <__stack+0xc5>
		return 0;

	if (xcps_rxlen >= XCPS_MAX_PDU)
 87e:	20 91 0f 01 	lds	r18, 0x010F
 882:	30 91 10 01 	lds	r19, 0x0110
 886:	20 34       	cpi	r18, 0x40	; 64
 888:	31 05       	cpc	r19, r1
 88a:	24 f0       	brlt	.+8      	; 0x894 <xcps_recv+0x46>
		xcps_state = 0;
 88c:	10 92 16 01 	sts	0x0116, r1
 890:	10 92 15 01 	sts	0x0115, r1

	switch (xcps_state) {
 894:	80 91 15 01 	lds	r24, 0x0115
 898:	90 91 16 01 	lds	r25, 0x0116
 89c:	82 30       	cpi	r24, 0x02	; 2
 89e:	91 05       	cpc	r25, r1
 8a0:	09 f4       	brne	.+2      	; 0x8a4 <xcps_recv+0x56>
 8a2:	46 c0       	rjmp	.+140    	; 0x930 <__stack+0x31>
 8a4:	83 30       	cpi	r24, 0x03	; 3
 8a6:	91 05       	cpc	r25, r1
 8a8:	34 f4       	brge	.+12     	; 0x8b6 <xcps_recv+0x68>
 8aa:	00 97       	sbiw	r24, 0x00	; 0
 8ac:	b1 f0       	breq	.+44     	; 0x8da <xcps_recv+0x8c>
 8ae:	01 97       	sbiw	r24, 0x01	; 1
 8b0:	09 f0       	breq	.+2      	; 0x8b4 <xcps_recv+0x66>
 8b2:	84 c0       	rjmp	.+264    	; 0x9bc <__stack+0xbd>
 8b4:	27 c0       	rjmp	.+78     	; 0x904 <__stack+0x5>
 8b6:	83 30       	cpi	r24, 0x03	; 3
 8b8:	91 05       	cpc	r25, r1
 8ba:	21 f0       	breq	.+8      	; 0x8c4 <xcps_recv+0x76>
 8bc:	04 97       	sbiw	r24, 0x04	; 4
 8be:	09 f0       	breq	.+2      	; 0x8c2 <xcps_recv+0x74>
 8c0:	7d c0       	rjmp	.+250    	; 0x9bc <__stack+0xbd>
 8c2:	61 c0       	rjmp	.+194    	; 0x986 <__stack+0x87>
			xcps_state = 3;

		break;

	case 3: // data end, check checksum.
		for (i = 2; i < (2 + xcps_pdu_len); i++)
 8c4:	60 91 11 01 	lds	r22, 0x0111
 8c8:	70 91 12 01 	lds	r23, 0x0112
 8cc:	6f 5f       	subi	r22, 0xFF	; 255
 8ce:	7f 4f       	sbci	r23, 0xFF	; 255
 8d0:	22 e0       	ldi	r18, 0x02	; 2
 8d2:	30 e0       	ldi	r19, 0x00	; 0
 8d4:	40 e0       	ldi	r20, 0x00	; 0
 8d6:	50 e0       	ldi	r21, 0x00	; 0
 8d8:	49 c0       	rjmp	.+146    	; 0x96c <__stack+0x6d>
	if (xcps_rxlen >= XCPS_MAX_PDU)
		xcps_state = 0;

	switch (xcps_state) {
	case 0:
		xcps_rxlen = 0;
 8da:	10 92 10 01 	sts	0x0110, r1
 8de:	10 92 0f 01 	sts	0x010F, r1

		if (temp == ZS_SFLAG) {
 8e2:	29 81       	ldd	r18, Y+1	; 0x01
 8e4:	2a 3f       	cpi	r18, 0xFA	; 250
 8e6:	09 f0       	breq	.+2      	; 0x8ea <xcps_recv+0x9c>
 8e8:	6d c0       	rjmp	.+218    	; 0x9c4 <__stack+0xc5>
			xcps_state = 1;
 8ea:	81 e0       	ldi	r24, 0x01	; 1
 8ec:	90 e0       	ldi	r25, 0x00	; 0
 8ee:	90 93 16 01 	sts	0x0116, r25
 8f2:	80 93 15 01 	sts	0x0115, r24
			xcps_rx_packet[xcps_rxlen++] = temp;
 8f6:	20 93 9d 01 	sts	0x019D, r18
 8fa:	90 93 10 01 	sts	0x0110, r25
 8fe:	80 93 0f 01 	sts	0x010F, r24
 902:	60 c0       	rjmp	.+192    	; 0x9c4 <__stack+0xc5>
			// don't change state, keep find start flag.
		}
		break;

	case 1: // found start flag
		xcps_rx_packet[xcps_rxlen++] = temp;
 904:	89 81       	ldd	r24, Y+1	; 0x01
 906:	f9 01       	movw	r30, r18
 908:	e3 56       	subi	r30, 0x63	; 99
 90a:	fe 4f       	sbci	r31, 0xFE	; 254
 90c:	80 83       	st	Z, r24
 90e:	2f 5f       	subi	r18, 0xFF	; 255
 910:	3f 4f       	sbci	r19, 0xFF	; 255
 912:	30 93 10 01 	sts	0x0110, r19
 916:	20 93 0f 01 	sts	0x010F, r18
		xcps_state = 2;
 91a:	22 e0       	ldi	r18, 0x02	; 2
 91c:	30 e0       	ldi	r19, 0x00	; 0
 91e:	30 93 16 01 	sts	0x0116, r19
 922:	20 93 15 01 	sts	0x0115, r18
		xcps_pdu_len = temp;
 926:	80 93 11 01 	sts	0x0111, r24
 92a:	10 92 12 01 	sts	0x0112, r1
 92e:	4a c0       	rjmp	.+148    	; 0x9c4 <__stack+0xc5>

		break;

	case 2: // found length
		// fill data.
		xcps_rx_packet[xcps_rxlen++] = temp;
 930:	f9 01       	movw	r30, r18
 932:	e3 56       	subi	r30, 0x63	; 99
 934:	fe 4f       	sbci	r31, 0xFE	; 254
 936:	89 81       	ldd	r24, Y+1	; 0x01
 938:	80 83       	st	Z, r24
 93a:	2f 5f       	subi	r18, 0xFF	; 255
 93c:	3f 4f       	sbci	r19, 0xFF	; 255
 93e:	30 93 10 01 	sts	0x0110, r19
 942:	20 93 0f 01 	sts	0x010F, r18

		// check length.
		if (xcps_rxlen >= (2 + xcps_pdu_len))
 946:	80 91 11 01 	lds	r24, 0x0111
 94a:	90 91 12 01 	lds	r25, 0x0112
 94e:	01 96       	adiw	r24, 0x01	; 1
 950:	82 17       	cp	r24, r18
 952:	93 07       	cpc	r25, r19
 954:	bc f5       	brge	.+110    	; 0x9c4 <__stack+0xc5>
			xcps_state = 3;
 956:	83 e0       	ldi	r24, 0x03	; 3
 958:	90 e0       	ldi	r25, 0x00	; 0
 95a:	10 c0       	rjmp	.+32     	; 0x97c <__stack+0x7d>

		break;

	case 3: // data end, check checksum.
		for (i = 2; i < (2 + xcps_pdu_len); i++)
			checkSum += (xcps_rx_packet[i] & 0xFF);
 95c:	f9 01       	movw	r30, r18
 95e:	e3 56       	subi	r30, 0x63	; 99
 960:	fe 4f       	sbci	r31, 0xFE	; 254
 962:	80 81       	ld	r24, Z
 964:	48 0f       	add	r20, r24
 966:	51 1d       	adc	r21, r1
			xcps_state = 3;

		break;

	case 3: // data end, check checksum.
		for (i = 2; i < (2 + xcps_pdu_len); i++)
 968:	2f 5f       	subi	r18, 0xFF	; 255
 96a:	3f 4f       	sbci	r19, 0xFF	; 255
 96c:	62 17       	cp	r22, r18
 96e:	73 07       	cpc	r23, r19
 970:	ac f7       	brge	.-22     	; 0x95c <__stack+0x5d>
			checkSum += (xcps_rx_packet[i] & 0xFF);

		if (temp == (uint8) checkSum) // Checksum ok.
 972:	89 81       	ldd	r24, Y+1	; 0x01
 974:	84 17       	cp	r24, r20
 976:	11 f5       	brne	.+68     	; 0x9bc <__stack+0xbd>
			xcps_state = 4;
 978:	84 e0       	ldi	r24, 0x04	; 4
 97a:	90 e0       	ldi	r25, 0x00	; 0
 97c:	90 93 16 01 	sts	0x0116, r25
 980:	80 93 15 01 	sts	0x0115, r24
 984:	1f c0       	rjmp	.+62     	; 0x9c4 <__stack+0xc5>
		else
			xcps_state = 0;
		break;

	case 4:
		if (temp == ZS_EFLAG) {
 986:	89 81       	ldd	r24, Y+1	; 0x01
 988:	8f 3a       	cpi	r24, 0xAF	; 175
 98a:	c1 f4       	brne	.+48     	; 0x9bc <__stack+0xbd>
			xcps_state = 0;
 98c:	10 92 16 01 	sts	0x0116, r1
 990:	10 92 15 01 	sts	0x0115, r1
 994:	af e9       	ldi	r26, 0x9F	; 159
 996:	b1 e0       	ldi	r27, 0x01	; 1
 998:	40 e0       	ldi	r20, 0x00	; 0
 99a:	50 e0       	ldi	r21, 0x00	; 0
 99c:	07 c0       	rjmp	.+14     	; 0x9ac <__stack+0xad>

			// return data to caller.
			for (i = 0; i < xcps_pdu_len; i++)
				buff[i] = xcps_rx_packet[2 + i];
 99e:	f8 01       	movw	r30, r16
 9a0:	e4 0f       	add	r30, r20
 9a2:	f5 1f       	adc	r31, r21
 9a4:	8d 91       	ld	r24, X+
 9a6:	80 83       	st	Z, r24
	case 4:
		if (temp == ZS_EFLAG) {
			xcps_state = 0;

			// return data to caller.
			for (i = 0; i < xcps_pdu_len; i++)
 9a8:	4f 5f       	subi	r20, 0xFF	; 255
 9aa:	5f 4f       	sbci	r21, 0xFF	; 255
 9ac:	20 91 11 01 	lds	r18, 0x0111
 9b0:	30 91 12 01 	lds	r19, 0x0112
 9b4:	42 17       	cp	r20, r18
 9b6:	53 07       	cpc	r21, r19
 9b8:	94 f3       	brlt	.-28     	; 0x99e <__stack+0x9f>
 9ba:	06 c0       	rjmp	.+12     	; 0x9c8 <__stack+0xc9>
		}
		break;

	default:
		// if you here, something wrong. --> recover to state 0.
		xcps_state = 0;
 9bc:	10 92 16 01 	sts	0x0116, r1
 9c0:	10 92 15 01 	sts	0x0115, r1
 9c4:	20 e0       	ldi	r18, 0x00	; 0
 9c6:	30 e0       	ldi	r19, 0x00	; 0
		break;
	}
	return 0;
}
 9c8:	c9 01       	movw	r24, r18
 9ca:	0f 90       	pop	r0
 9cc:	cf 91       	pop	r28
 9ce:	df 91       	pop	r29
 9d0:	1f 91       	pop	r17
 9d2:	0f 91       	pop	r16
 9d4:	08 95       	ret

000009d6 <xcps_getOriginalCode>:

int xcps_getOriginalCode(uint8 *resultBuff, uint8 *buff, int buff_length) {
 9d6:	0f 93       	push	r16
 9d8:	1f 93       	push	r17
 9da:	a0 e0       	ldi	r26, 0x00	; 0
 9dc:	b0 e0       	ldi	r27, 0x00	; 0
			if (buff[i + 1] == 0xFF)
				resultBuff[resultLen++] = 0xFF;
			else if (buff[i + 1] == 0x01)
				resultBuff[resultLen++] = 0xFA;
			else if (buff[i + 1] == 0x02)
				resultBuff[resultLen++] = 0xAF;
 9de:	0f ea       	ldi	r16, 0xAF	; 175
	for (i = 0; i < buff_length; i++) {
		if (buff[i] == 0xFF) {
			if (buff[i + 1] == 0xFF)
				resultBuff[resultLen++] = 0xFF;
			else if (buff[i + 1] == 0x01)
				resultBuff[resultLen++] = 0xFA;
 9e0:	1a ef       	ldi	r17, 0xFA	; 250
 9e2:	24 c0       	rjmp	.+72     	; 0xa2c <xcps_getOriginalCode+0x56>

int xcps_getOriginalCode(uint8 *resultBuff, uint8 *buff, int buff_length) {
	unsigned char resultLen = 0;
	unsigned char i = 0;
	for (i = 0; i < buff_length; i++) {
		if (buff[i] == 0xFF) {
 9e4:	fb 01       	movw	r30, r22
 9e6:	e2 0f       	add	r30, r18
 9e8:	f3 1f       	adc	r31, r19
 9ea:	20 81       	ld	r18, Z
 9ec:	2f 3f       	cpi	r18, 0xFF	; 255
 9ee:	c1 f4       	brne	.+48     	; 0xa20 <xcps_getOriginalCode+0x4a>
			if (buff[i + 1] == 0xFF)
 9f0:	21 81       	ldd	r18, Z+1	; 0x01
 9f2:	2f 3f       	cpi	r18, 0xFF	; 255
 9f4:	29 f4       	brne	.+10     	; 0xa00 <xcps_getOriginalCode+0x2a>
				resultBuff[resultLen++] = 0xFF;
 9f6:	fc 01       	movw	r30, r24
 9f8:	ea 0f       	add	r30, r26
 9fa:	f1 1d       	adc	r31, r1
 9fc:	20 83       	st	Z, r18
 9fe:	0d c0       	rjmp	.+26     	; 0xa1a <xcps_getOriginalCode+0x44>
			else if (buff[i + 1] == 0x01)
 a00:	21 30       	cpi	r18, 0x01	; 1
 a02:	29 f4       	brne	.+10     	; 0xa0e <xcps_getOriginalCode+0x38>
				resultBuff[resultLen++] = 0xFA;
 a04:	fc 01       	movw	r30, r24
 a06:	ea 0f       	add	r30, r26
 a08:	f1 1d       	adc	r31, r1
 a0a:	10 83       	st	Z, r17
 a0c:	06 c0       	rjmp	.+12     	; 0xa1a <xcps_getOriginalCode+0x44>
			else if (buff[i + 1] == 0x02)
 a0e:	22 30       	cpi	r18, 0x02	; 2
 a10:	29 f4       	brne	.+10     	; 0xa1c <xcps_getOriginalCode+0x46>
				resultBuff[resultLen++] = 0xAF;
 a12:	fc 01       	movw	r30, r24
 a14:	ea 0f       	add	r30, r26
 a16:	f1 1d       	adc	r31, r1
 a18:	00 83       	st	Z, r16
 a1a:	af 5f       	subi	r26, 0xFF	; 255
			i++;
 a1c:	bf 5f       	subi	r27, 0xFF	; 255
 a1e:	05 c0       	rjmp	.+10     	; 0xa2a <xcps_getOriginalCode+0x54>
		} else
			resultBuff[resultLen++] = buff[i];
 a20:	fc 01       	movw	r30, r24
 a22:	ea 0f       	add	r30, r26
 a24:	f1 1d       	adc	r31, r1
 a26:	20 83       	st	Z, r18
 a28:	af 5f       	subi	r26, 0xFF	; 255
}

int xcps_getOriginalCode(uint8 *resultBuff, uint8 *buff, int buff_length) {
	unsigned char resultLen = 0;
	unsigned char i = 0;
	for (i = 0; i < buff_length; i++) {
 a2a:	bf 5f       	subi	r27, 0xFF	; 255
 a2c:	2b 2f       	mov	r18, r27
 a2e:	30 e0       	ldi	r19, 0x00	; 0
 a30:	24 17       	cp	r18, r20
 a32:	35 07       	cpc	r19, r21
 a34:	bc f2       	brlt	.-82     	; 0x9e4 <xcps_getOriginalCode+0xe>
			i++;
		} else
			resultBuff[resultLen++] = buff[i];
	}
	return resultLen;
}
 a36:	8a 2f       	mov	r24, r26
 a38:	90 e0       	ldi	r25, 0x00	; 0
 a3a:	1f 91       	pop	r17
 a3c:	0f 91       	pop	r16
 a3e:	08 95       	ret

00000a40 <xcps_getTrnalatedCode>:
int xcps_getTrnalatedCode(uint8 *resultBuff, uint8 *buff, int buff_length) {
 a40:	0f 93       	push	r16
 a42:	1f 93       	push	r17
 a44:	9c 01       	movw	r18, r24
 a46:	80 e0       	ldi	r24, 0x00	; 0
 a48:	a0 e0       	ldi	r26, 0x00	; 0
	for (i = 0; i < buff_length; i++) {
		if (buff[i] == 0xFA) {
			resultBuff[resultLen++] = 0xFF;
			resultBuff[resultLen++] = 0x01;
		} else if (buff[i] == 0xAF) {
			resultBuff[resultLen++] = 0xFF;
 a4a:	bf ef       	ldi	r27, 0xFF	; 255
			resultBuff[resultLen++] = 0x02;
 a4c:	02 e0       	ldi	r16, 0x02	; 2
	unsigned char resultLen = 0;
	unsigned char i = 0;
	for (i = 0; i < buff_length; i++) {
		if (buff[i] == 0xFA) {
			resultBuff[resultLen++] = 0xFF;
			resultBuff[resultLen++] = 0x01;
 a4e:	11 e0       	ldi	r17, 0x01	; 1
 a50:	2d c0       	rjmp	.+90     	; 0xaac <xcps_getTrnalatedCode+0x6c>
}
int xcps_getTrnalatedCode(uint8 *resultBuff, uint8 *buff, int buff_length) {
	unsigned char resultLen = 0;
	unsigned char i = 0;
	for (i = 0; i < buff_length; i++) {
		if (buff[i] == 0xFA) {
 a52:	e6 0f       	add	r30, r22
 a54:	f7 1f       	adc	r31, r23
 a56:	90 81       	ld	r25, Z
 a58:	9a 3f       	cpi	r25, 0xFA	; 250
 a5a:	51 f4       	brne	.+20     	; 0xa70 <xcps_getTrnalatedCode+0x30>
			resultBuff[resultLen++] = 0xFF;
 a5c:	f9 01       	movw	r30, r18
 a5e:	e8 0f       	add	r30, r24
 a60:	f1 1d       	adc	r31, r1
 a62:	b0 83       	st	Z, r27
 a64:	8f 5f       	subi	r24, 0xFF	; 255
			resultBuff[resultLen++] = 0x01;
 a66:	f9 01       	movw	r30, r18
 a68:	e8 0f       	add	r30, r24
 a6a:	f1 1d       	adc	r31, r1
 a6c:	10 83       	st	Z, r17
 a6e:	0b c0       	rjmp	.+22     	; 0xa86 <xcps_getTrnalatedCode+0x46>
		} else if (buff[i] == 0xAF) {
 a70:	9f 3a       	cpi	r25, 0xAF	; 175
 a72:	59 f4       	brne	.+22     	; 0xa8a <xcps_getTrnalatedCode+0x4a>
			resultBuff[resultLen++] = 0xFF;
 a74:	f9 01       	movw	r30, r18
 a76:	e8 0f       	add	r30, r24
 a78:	f1 1d       	adc	r31, r1
 a7a:	b0 83       	st	Z, r27
 a7c:	8f 5f       	subi	r24, 0xFF	; 255
			resultBuff[resultLen++] = 0x02;
 a7e:	f9 01       	movw	r30, r18
 a80:	e8 0f       	add	r30, r24
 a82:	f1 1d       	adc	r31, r1
 a84:	00 83       	st	Z, r16
 a86:	8f 5f       	subi	r24, 0xFF	; 255
 a88:	10 c0       	rjmp	.+32     	; 0xaaa <xcps_getTrnalatedCode+0x6a>
 a8a:	e8 2f       	mov	r30, r24
 a8c:	f0 e0       	ldi	r31, 0x00	; 0
 a8e:	8f 5f       	subi	r24, 0xFF	; 255
		} else if (buff[i] == 0xFF) {
 a90:	9f 3f       	cpi	r25, 0xFF	; 255
 a92:	41 f4       	brne	.+16     	; 0xaa4 <xcps_getTrnalatedCode+0x64>
			resultBuff[resultLen++] = 0xFF;
 a94:	e2 0f       	add	r30, r18
 a96:	f3 1f       	adc	r31, r19
 a98:	90 83       	st	Z, r25
			resultBuff[resultLen++] = 0xFF;
 a9a:	f9 01       	movw	r30, r18
 a9c:	e8 0f       	add	r30, r24
 a9e:	f1 1d       	adc	r31, r1
 aa0:	90 83       	st	Z, r25
 aa2:	f1 cf       	rjmp	.-30     	; 0xa86 <xcps_getTrnalatedCode+0x46>
		} else
			resultBuff[resultLen++] = buff[i];
 aa4:	e2 0f       	add	r30, r18
 aa6:	f3 1f       	adc	r31, r19
 aa8:	90 83       	st	Z, r25
	return resultLen;
}
int xcps_getTrnalatedCode(uint8 *resultBuff, uint8 *buff, int buff_length) {
	unsigned char resultLen = 0;
	unsigned char i = 0;
	for (i = 0; i < buff_length; i++) {
 aaa:	af 5f       	subi	r26, 0xFF	; 255
 aac:	ea 2f       	mov	r30, r26
 aae:	f0 e0       	ldi	r31, 0x00	; 0
 ab0:	e4 17       	cp	r30, r20
 ab2:	f5 07       	cpc	r31, r21
 ab4:	74 f2       	brlt	.-100    	; 0xa52 <xcps_getTrnalatedCode+0x12>
			resultBuff[resultLen++] = 0xFF;
		} else
			resultBuff[resultLen++] = buff[i];
	}
	return resultLen;
}
 ab6:	90 e0       	ldi	r25, 0x00	; 0
 ab8:	1f 91       	pop	r17
 aba:	0f 91       	pop	r16
 abc:	08 95       	ret

00000abe <rotary__GetValue>:
//	for (i = 0; i < 5; i++)
//		;
//}
void rotary__GetValue() {
	//id
	DDRC &= ~_BV(PC2) | _BV(PC3) | _BV(PC4) | _BV(PC5);
 abe:	3a 98       	cbi	0x07, 2	; 7
	PORTC |= _BV(PC2) | _BV(PC3) | _BV(PC4) | _BV(PC5);
 ac0:	88 b1       	in	r24, 0x08	; 8
 ac2:	8c 63       	ori	r24, 0x3C	; 60
 ac4:	88 b9       	out	0x08, r24	; 8
 ac6:	80 ed       	ldi	r24, 0xD0	; 208
 ac8:	97 e0       	ldi	r25, 0x07	; 7
 aca:	01 97       	sbiw	r24, 0x01	; 1
 acc:	f1 f7       	brne	.-4      	; 0xaca <rotary__GetValue+0xc>

	_delay_ms(1);

	uint8 id = 0;

	if ((PINC & _BV(5)) == 0) {
 ace:	35 99       	sbic	0x06, 5	; 6
 ad0:	02 c0       	rjmp	.+4      	; 0xad6 <rotary__GetValue+0x18>
 ad2:	88 e0       	ldi	r24, 0x08	; 8
 ad4:	01 c0       	rjmp	.+2      	; 0xad8 <rotary__GetValue+0x1a>
 ad6:	80 e0       	ldi	r24, 0x00	; 0
		id |= _BV(3);
	}
	if ((PINC & _BV(4)) == 0) {
 ad8:	34 9b       	sbis	0x06, 4	; 6
		id |= _BV(2);
 ada:	84 60       	ori	r24, 0x04	; 4
	}
	if ((PINC & _BV(3)) == 0) {
 adc:	33 9b       	sbis	0x06, 3	; 6
		id |= _BV(1);
 ade:	82 60       	ori	r24, 0x02	; 2
	}
	if ((PINC & _BV(2)) == 0) {
 ae0:	32 9b       	sbis	0x06, 2	; 6
		id |= _BV(0);
 ae2:	81 60       	ori	r24, 0x01	; 1
	}

	if (id == 0) {
 ae4:	88 23       	and	r24, r24
 ae6:	11 f4       	brne	.+4      	; 0xaec <rotary__GetValue+0x2e>
		RF_CHANNEL = 94;
 ae8:	8e e5       	ldi	r24, 0x5E	; 94
 aea:	04 c0       	rjmp	.+8      	; 0xaf4 <rotary__GetValue+0x36>
	} else {
		RF_CHANNEL = 94 + (2 * id);
 aec:	90 e0       	ldi	r25, 0x00	; 0
 aee:	8f 96       	adiw	r24, 0x2f	; 47
 af0:	88 0f       	add	r24, r24
 af2:	99 1f       	adc	r25, r25
 af4:	80 93 1a 01 	sts	0x011A, r24
 af8:	08 95       	ret

00000afa <delay>:
void at8_init(void);

void delay(long t) {
	while (t--)
		;
}
 afa:	08 95       	ret

00000afc <at8_init>:
	//-------------------------------
//	PORTB = 0x3F;
//	DDRB = 0x00;
//	PORTC = 0x00;
//	DDRC = 0x00;
	PORTB = 0x3F;
 afc:	8f e3       	ldi	r24, 0x3F	; 63
 afe:	85 b9       	out	0x05, r24	; 5
	DDRB = 0x00;
 b00:	14 b8       	out	0x04, r1	; 4
	DDRC = 0x00;
 b02:	17 b8       	out	0x07, r1	; 7
	PORTC |= _BV(PC0) | _BV(PC1);
 b04:	88 b1       	in	r24, 0x08	; 8
 b06:	83 60       	ori	r24, 0x03	; 3
 b08:	88 b9       	out	0x08, r24	; 8
	DDRD &= ~_BV(PD3) | _BV(PD4);
 b0a:	53 98       	cbi	0x0a, 3	; 10
	PORTD |= _BV(PD3) | _BV(PD4);
 b0c:	8b b1       	in	r24, 0x0b	; 11
 b0e:	88 61       	ori	r24, 0x18	; 24
 b10:	8b b9       	out	0x0b, r24	; 11
//	DDRB = 0x02;
//	PORTC = 0x1E;
//	DDRC &= ~(0x1E);
//
//	DDRD = 0x60;
	PORTB = 0x02;
 b12:	82 e0       	ldi	r24, 0x02	; 2
 b14:	85 b9       	out	0x05, r24	; 5
	DDRB = 0x02;
 b16:	84 b9       	out	0x04, r24	; 4
	//	PORTC = 0x1E;
	//	DDRC &= ~(0x1E);

	DDRD |= _BV(PD6) | _BV(PD5);
 b18:	8a b1       	in	r24, 0x0a	; 10
 b1a:	80 66       	ori	r24, 0x60	; 96
 b1c:	8a b9       	out	0x0a, r24	; 10
	//-------------------------------
	// Timer/Counter 0 initialization
	// Clock source: System Clock
	// Clock value: 15.625 kHz
	TCCR0B = 0x05;
 b1e:	85 e0       	ldi	r24, 0x05	; 5
 b20:	85 bd       	out	0x25, r24	; 37
	TCNT0 = 0xF0;
 b22:	80 ef       	ldi	r24, 0xF0	; 240
 b24:	86 bd       	out	0x26, r24	; 38
	// Input Capture on Falling Edge
	// Timer 1 Overflow Interrupt: Off
	// Input Capture Interrupt: Off
	// Compare A Match Interrupt: Off
	// Compare B Match Interrupt: Off
	TCCR1A = 0xA1; // 0xA2: 9 bit. top=0x01FF., 0xA1: 8 bit. top=0x00FF.
 b26:	81 ea       	ldi	r24, 0xA1	; 161
 b28:	80 93 80 00 	sts	0x0080, r24
	TCCR1B = 0x03; // no prescaling, 2=1/8 prescale, 3=1/64 prescale, ...
 b2c:	83 e0       	ldi	r24, 0x03	; 3
 b2e:	80 93 81 00 	sts	0x0081, r24
	TCNT1H = 0x00; // initial counting value
 b32:	10 92 85 00 	sts	0x0085, r1
	TCNT1L = 0x00;
 b36:	10 92 84 00 	sts	0x0084, r1
	ICR1H = 0x00;
 b3a:	10 92 87 00 	sts	0x0087, r1
	ICR1L = 0x00; //0x00;
 b3e:	10 92 86 00 	sts	0x0086, r1
	OCR1AH = 0x00;
 b42:	10 92 89 00 	sts	0x0089, r1
	OCR1AL = 0x00; //0x00; (A-port) dimming control value. (initial value)
 b46:	10 92 88 00 	sts	0x0088, r1
	OCR1BH = 0x00;
 b4a:	10 92 8b 00 	sts	0x008B, r1
	OCR1BL = 0x00; //0x00; (B-port) dimming control value. (initial value)
 b4e:	10 92 8a 00 	sts	0x008A, r1
	// Timer/Counter 2 initialization
	// Clock source: System Clock
	// Clock value: Timer 2 Stopped
	// Mode: Normal top=FFh
	// OC2 output: Disconnected
	ASSR = 0x00;
 b52:	10 92 b6 00 	sts	0x00B6, r1
	TCCR2B = 0x00;
 b56:	10 92 b1 00 	sts	0x00B1, r1
	TCNT2 = 0x00;
 b5a:	10 92 b2 00 	sts	0x00B2, r1
	OCR2A = 0x00;
 b5e:	10 92 b3 00 	sts	0x00B3, r1

	// External Interrupt(s) initialization
	// INT0: Off
	// INT1: Off
	MCUCR = 0x00;
 b62:	15 be       	out	0x35, r1	; 53

	// Timer(s)/Counter(s) Interrupt(s) initialization
	TIMSK0 = 0x01;
 b64:	81 e0       	ldi	r24, 0x01	; 1
 b66:	80 93 6e 00 	sts	0x006E, r24
}
 b6a:	08 95       	ret

00000b6c <main>:

uint8 g_DimmingLevel[4];
uint8 g_TestFlag = 0;
uint8 TestFlag = 221;

int main() {
 b6c:	af 92       	push	r10
 b6e:	bf 92       	push	r11
 b70:	cf 92       	push	r12
 b72:	df 92       	push	r13
 b74:	ef 92       	push	r14
 b76:	ff 92       	push	r15
 b78:	0f 93       	push	r16
 b7a:	1f 93       	push	r17
 b7c:	df 93       	push	r29
 b7e:	cf 93       	push	r28
 b80:	cd b7       	in	r28, 0x3d	; 61
 b82:	de b7       	in	r29, 0x3e	; 62
 b84:	c1 54       	subi	r28, 0x41	; 65
 b86:	d0 40       	sbci	r29, 0x00	; 0
 b88:	0f b6       	in	r0, 0x3f	; 63
 b8a:	f8 94       	cli
 b8c:	de bf       	out	0x3e, r29	; 62
 b8e:	0f be       	out	0x3f, r0	; 63
 b90:	cd bf       	out	0x3d, r28	; 61
	wdt_enable(WDTO_2S);
 b92:	2f e0       	ldi	r18, 0x0F	; 15
 b94:	88 e1       	ldi	r24, 0x18	; 24
 b96:	90 e0       	ldi	r25, 0x00	; 0
 b98:	0f b6       	in	r0, 0x3f	; 63
 b9a:	f8 94       	cli
 b9c:	a8 95       	wdr
 b9e:	80 93 60 00 	sts	0x0060, r24
 ba2:	0f be       	out	0x3f, r0	; 63
 ba4:	20 93 60 00 	sts	0x0060, r18
	wdt_reset();
 ba8:	a8 95       	wdr
	uint8 value = 0;
	uint8 fadeOutCnt = 0;
	uint8 Recvlen = 0;
	uint8 UsartPacket[64];

	wdt_reset();
 baa:	a8 95       	wdr
 bac:	80 e1       	ldi	r24, 0x10	; 16
 bae:	97 e2       	ldi	r25, 0x27	; 39
 bb0:	28 ec       	ldi	r18, 0xC8	; 200
 bb2:	30 e0       	ldi	r19, 0x00	; 0
 bb4:	f9 01       	movw	r30, r18
 bb6:	31 97       	sbiw	r30, 0x01	; 1
 bb8:	f1 f7       	brne	.-4      	; 0xbb6 <main+0x4a>
		__ticks = (uint16_t) (__ms * 10.0);
		while(__ticks)
		{
			// wait 1/10 ms
			_delay_loop_2(((F_CPU) / 4e3) / 10);
			__ticks --;
 bba:	01 97       	sbiw	r24, 0x01	; 1
		__ticks = 1;
	else if (__tmp > 65535)
	{
		//	__ticks = requested delay in 1/10 ms
		__ticks = (uint16_t) (__ms * 10.0);
		while(__ticks)
 bbc:	d9 f7       	brne	.-10     	; 0xbb4 <main+0x48>
	MSLEEP(1000);
	wdt_reset();
 bbe:	a8 95       	wdr

	//
//	_WDR();
	//
	at8_init();
 bc0:	0e 94 7e 05 	call	0xafc	; 0xafc <at8_init>

	// init system timer. (using TIM0)
	timer_init();
 bc4:	0e 94 54 07 	call	0xea8	; 0xea8 <timer_init>

	asm("sei");
 bc8:	78 94       	sei
	// Global enable interrupts

//	_WDR();
	wdt_reset();
 bca:	a8 95       	wdr

// initialize dmx driver
	InitUART();
 bcc:	0e 94 a6 03 	call	0x74c	; 0x74c <InitUART>
	xcps_init(USART_Receive, USART_Transmit);
 bd0:	85 ee       	ldi	r24, 0xE5	; 229
 bd2:	93 e0       	ldi	r25, 0x03	; 3
 bd4:	66 e0       	ldi	r22, 0x06	; 6
 bd6:	74 e0       	ldi	r23, 0x04	; 4
 bd8:	0e 94 1c 04 	call	0x838	; 0x838 <xcps_init>
	nRF24L01_Initial();
 bdc:	0e 94 2d 02 	call	0x45a	; 0x45a <nRF24L01_Initial>
	rotary__GetValue();
 be0:	0e 94 5f 05 	call	0xabe	; 0xabe <rotary__GetValue>
	RX_Mode();
 be4:	0e 94 c5 01 	call	0x38a	; 0x38a <RX_Mode>
// initialize dmx buffer, dmxID = 0
	g_DimmingLevel[0] = g_DimmingLevel[1] = g_DimmingLevel[2] =
 be8:	10 92 e0 01 	sts	0x01E0, r1
 bec:	10 92 df 01 	sts	0x01DF, r1
 bf0:	10 92 de 01 	sts	0x01DE, r1
 bf4:	10 92 dd 01 	sts	0x01DD, r1
			g_DimmingLevel[3] = 0x00;

	// Shutdown is toggled for stabilization of led driver chipset
	timer_set(0, 100);
 bf8:	80 e0       	ldi	r24, 0x00	; 0
 bfa:	90 e0       	ldi	r25, 0x00	; 0
 bfc:	44 e6       	ldi	r20, 0x64	; 100
 bfe:	50 e0       	ldi	r21, 0x00	; 0
 c00:	60 e0       	ldi	r22, 0x00	; 0
 c02:	70 e0       	ldi	r23, 0x00	; 0
 c04:	0e 94 12 07 	call	0xe24	; 0xe24 <timer_set>

	//fadeIn, fadeOut Dimming control timer
	timer_set(1, 50);
 c08:	81 e0       	ldi	r24, 0x01	; 1
 c0a:	90 e0       	ldi	r25, 0x00	; 0
 c0c:	42 e3       	ldi	r20, 0x32	; 50
 c0e:	50 e0       	ldi	r21, 0x00	; 0
 c10:	60 e0       	ldi	r22, 0x00	; 0
 c12:	70 e0       	ldi	r23, 0x00	; 0
 c14:	0e 94 12 07 	call	0xe24	; 0xe24 <timer_set>

	//ChannelId reading timer: Rotary Switch.
	timer_set(2, 1000);
 c18:	82 e0       	ldi	r24, 0x02	; 2
 c1a:	90 e0       	ldi	r25, 0x00	; 0
 c1c:	48 ee       	ldi	r20, 0xE8	; 232
 c1e:	53 e0       	ldi	r21, 0x03	; 3
 c20:	60 e0       	ldi	r22, 0x00	; 0
 c22:	70 e0       	ldi	r23, 0x00	; 0
 c24:	0e 94 12 07 	call	0xe24	; 0xe24 <timer_set>
	timer_set(3, 1000); // 1sec
 c28:	83 e0       	ldi	r24, 0x03	; 3
 c2a:	90 e0       	ldi	r25, 0x00	; 0
 c2c:	48 ee       	ldi	r20, 0xE8	; 232
 c2e:	53 e0       	ldi	r21, 0x03	; 3
 c30:	60 e0       	ldi	r22, 0x00	; 0
 c32:	70 e0       	ldi	r23, 0x00	; 0
 c34:	0e 94 12 07 	call	0xe24	; 0xe24 <timer_set>
	timer_set(5, 1000); // 1sec
 c38:	85 e0       	ldi	r24, 0x05	; 5
 c3a:	90 e0       	ldi	r25, 0x00	; 0
 c3c:	48 ee       	ldi	r20, 0xE8	; 232
 c3e:	53 e0       	ldi	r21, 0x03	; 3
 c40:	60 e0       	ldi	r22, 0x00	; 0
 c42:	70 e0       	ldi	r23, 0x00	; 0
 c44:	0e 94 12 07 	call	0xe24	; 0xe24 <timer_set>
//	stdout = &mystdout;
//
//	DEBUG("\n\r=========START PROGRAM ===========\n\r");

	while (1) {
		SHUT_DOWN(ENABLE);
 c48:	40 98       	cbi	0x08, 0	; 8
		SHUT_DOWN(DISABLE);
 c4a:	40 9a       	sbi	0x08, 0	; 8
		if (timer_isfired(0)) {
 c4c:	80 e0       	ldi	r24, 0x00	; 0
 c4e:	90 e0       	ldi	r25, 0x00	; 0
 c50:	0e 94 27 07 	call	0xe4e	; 0xe4e <timer_get>
 c54:	89 2b       	or	r24, r25
 c56:	c1 f7       	brne	.-16     	; 0xc48 <main+0xdc>
			break;
		}
	}
	SHUT_DOWN(DISABLE);
 c58:	40 9a       	sbi	0x08, 0	; 8
	PWM_OUT(0xFF);
 c5a:	8f ef       	ldi	r24, 0xFF	; 255
 c5c:	80 93 88 00 	sts	0x0088, r24
 c60:	ee 24       	eor	r14, r14
 c62:	ff 24       	eor	r15, r15
 c64:	22 96       	adiw	r28, 0x02	; 2
 c66:	1f ae       	std	Y+63, r1	; 0x3f
 c68:	22 97       	sbiw	r28, 0x02	; 2
 c6a:	dd 24       	eor	r13, r13
		if (IRQ == 0) {
			timer_set(6, 60000);

			NRF24L01_Receive();
		}
		if ((Recvlen = xcps_recv(UsartPacket, 64)) > 0) {
 c6c:	5e 01       	movw	r10, r28
 c6e:	08 94       	sec
 c70:	a1 1c       	adc	r10, r1
 c72:	b1 1c       	adc	r11, r1

			XNetHandler(UsartPacket, Recvlen);
		}
		if (timer_isfired(3)) {
			wdt_reset();
			PORTD ^= 0x20;
 c74:	40 e2       	ldi	r20, 0x20	; 32
 c76:	c4 2e       	mov	r12, r20
	}
	SHUT_DOWN(DISABLE);
	PWM_OUT(0xFF);

	while (1) {
		if (IRQ == 0) {
 c78:	4a 99       	sbic	0x09, 2	; 9
 c7a:	0a c0       	rjmp	.+20     	; 0xc90 <main+0x124>
			timer_set(6, 60000);
 c7c:	86 e0       	ldi	r24, 0x06	; 6
 c7e:	90 e0       	ldi	r25, 0x00	; 0
 c80:	40 e6       	ldi	r20, 0x60	; 96
 c82:	5a ee       	ldi	r21, 0xEA	; 234
 c84:	60 e0       	ldi	r22, 0x00	; 0
 c86:	70 e0       	ldi	r23, 0x00	; 0
 c88:	0e 94 12 07 	call	0xe24	; 0xe24 <timer_set>

			NRF24L01_Receive();
 c8c:	0e 94 6f 02 	call	0x4de	; 0x4de <NRF24L01_Receive>
		}
		if ((Recvlen = xcps_recv(UsartPacket, 64)) > 0) {
 c90:	c5 01       	movw	r24, r10
 c92:	60 e4       	ldi	r22, 0x40	; 64
 c94:	70 e0       	ldi	r23, 0x00	; 0
 c96:	0e 94 27 04 	call	0x84e	; 0x84e <xcps_recv>
 c9a:	18 2f       	mov	r17, r24
 c9c:	88 23       	and	r24, r24
 c9e:	69 f0       	breq	.+26     	; 0xcba <main+0x14e>
			timer_set(6, 60000);
 ca0:	86 e0       	ldi	r24, 0x06	; 6
 ca2:	90 e0       	ldi	r25, 0x00	; 0
 ca4:	40 e6       	ldi	r20, 0x60	; 96
 ca6:	5a ee       	ldi	r21, 0xEA	; 234
 ca8:	60 e0       	ldi	r22, 0x00	; 0
 caa:	70 e0       	ldi	r23, 0x00	; 0
 cac:	0e 94 12 07 	call	0xe24	; 0xe24 <timer_set>

			XNetHandler(UsartPacket, Recvlen);
 cb0:	c5 01       	movw	r24, r10
 cb2:	61 2f       	mov	r22, r17
 cb4:	70 e0       	ldi	r23, 0x00	; 0
 cb6:	0e 94 10 04 	call	0x820	; 0x820 <XNetHandler>
		}
		if (timer_isfired(3)) {
 cba:	83 e0       	ldi	r24, 0x03	; 3
 cbc:	90 e0       	ldi	r25, 0x00	; 0
 cbe:	0e 94 27 07 	call	0xe4e	; 0xe4e <timer_get>
 cc2:	89 2b       	or	r24, r25
 cc4:	d1 f5       	brne	.+116    	; 0xd3a <main+0x1ce>
			wdt_reset();
 cc6:	a8 95       	wdr
			PORTD ^= 0x20;
 cc8:	8b b1       	in	r24, 0x0b	; 11
 cca:	8c 25       	eor	r24, r12
 ccc:	8b b9       	out	0x0b, r24	; 11
			dmxID = 0;
			if ((PIND & _BV(3)) == 0) {
 cce:	4b 99       	sbic	0x09, 3	; 9
 cd0:	03 c0       	rjmp	.+6      	; 0xcd8 <main+0x16c>
 cd2:	08 e0       	ldi	r16, 0x08	; 8
 cd4:	10 e0       	ldi	r17, 0x00	; 0
 cd6:	02 c0       	rjmp	.+4      	; 0xcdc <main+0x170>
 cd8:	00 e0       	ldi	r16, 0x00	; 0
 cda:	10 e0       	ldi	r17, 0x00	; 0
				dmxID += 8;
			}
			if ((PIND & _BV(4)) == 0) {
 cdc:	4c 99       	sbic	0x09, 4	; 9
 cde:	02 c0       	rjmp	.+4      	; 0xce4 <main+0x178>
				dmxID += 4;
 ce0:	0c 5f       	subi	r16, 0xFC	; 252
 ce2:	1f 4f       	sbci	r17, 0xFF	; 255
			}
			if ((PINC & _BV(0)) == 0) {
 ce4:	30 99       	sbic	0x06, 0	; 6
 ce6:	02 c0       	rjmp	.+4      	; 0xcec <main+0x180>
				dmxID += 2;
 ce8:	0e 5f       	subi	r16, 0xFE	; 254
 cea:	1f 4f       	sbci	r17, 0xFF	; 255
			}
			if ((PINC & _BV(1)) == 0) {
 cec:	31 99       	sbic	0x06, 1	; 6
 cee:	02 c0       	rjmp	.+4      	; 0xcf4 <main+0x188>
				dmxID += 1;
 cf0:	0f 5f       	subi	r16, 0xFF	; 255
 cf2:	1f 4f       	sbci	r17, 0xFF	; 255
			}
			if (dmxID >= 4)
				dmxID = 3;

			if (timer_isfired(6)) {
 cf4:	86 e0       	ldi	r24, 0x06	; 6
 cf6:	90 e0       	ldi	r25, 0x00	; 0
 cf8:	0e 94 27 07 	call	0xe4e	; 0xe4e <timer_get>
 cfc:	89 2b       	or	r24, r25
 cfe:	71 f4       	brne	.+28     	; 0xd1c <main+0x1b0>
				RX_Mode();
 d00:	0e 94 c5 01 	call	0x38a	; 0x38a <RX_Mode>
				g_DimmingLevel[0] = g_DimmingLevel[1] = g_DimmingLevel[2] =
 d04:	10 92 e0 01 	sts	0x01E0, r1
 d08:	10 92 df 01 	sts	0x01DF, r1
 d0c:	10 92 de 01 	sts	0x01DE, r1
 d10:	10 92 dd 01 	sts	0x01DD, r1
						g_DimmingLevel[3] = 0x00;
				timer_clear(6);
 d14:	86 e0       	ldi	r24, 0x06	; 6
 d16:	90 e0       	ldi	r25, 0x00	; 0
 d18:	0e 94 44 07 	call	0xe88	; 0xe88 <timer_clear>
 d1c:	78 01       	movw	r14, r16
 d1e:	04 30       	cpi	r16, 0x04	; 4
 d20:	11 05       	cpc	r17, r1
 d22:	18 f0       	brcs	.+6      	; 0xd2a <main+0x1be>
 d24:	33 e0       	ldi	r19, 0x03	; 3
 d26:	e3 2e       	mov	r14, r19
 d28:	f1 2c       	mov	r15, r1
			}
			timer_set(3, 1000); // 1sec
 d2a:	83 e0       	ldi	r24, 0x03	; 3
 d2c:	90 e0       	ldi	r25, 0x00	; 0
 d2e:	48 ee       	ldi	r20, 0xE8	; 232
 d30:	53 e0       	ldi	r21, 0x03	; 3
 d32:	60 e0       	ldi	r22, 0x00	; 0
 d34:	70 e0       	ldi	r23, 0x00	; 0
 d36:	0e 94 12 07 	call	0xe24	; 0xe24 <timer_set>
		}

		// dimming level control : PWM
		if (OCR1AL != g_DimmingLevel[dmxID]) {
 d3a:	80 91 88 00 	lds	r24, 0x0088
 d3e:	f7 01       	movw	r30, r14
 d40:	e3 52       	subi	r30, 0x23	; 35
 d42:	fe 4f       	sbci	r31, 0xFE	; 254
 d44:	90 81       	ld	r25, Z
 d46:	89 17       	cp	r24, r25
 d48:	09 f4       	brne	.+2      	; 0xd4c <main+0x1e0>
 d4a:	96 cf       	rjmp	.-212    	; 0xc78 <main+0x10c>
			if (OCR1AL == 0x00) {
 d4c:	80 91 88 00 	lds	r24, 0x0088
 d50:	88 23       	and	r24, r24
 d52:	31 f4       	brne	.+12     	; 0xd60 <main+0x1f4>
				SHUT_DOWN(ENABLE);
 d54:	40 98       	cbi	0x08, 0	; 8
 d56:	51 e0       	ldi	r21, 0x01	; 1
 d58:	22 96       	adiw	r28, 0x02	; 2
 d5a:	5f af       	std	Y+63, r21	; 0x3f
 d5c:	22 97       	sbiw	r28, 0x02	; 2
 d5e:	19 c0       	rjmp	.+50     	; 0xd92 <main+0x226>
				jiffies = 1;
			} else {
				if (jiffies == 1) {
 d60:	22 96       	adiw	r28, 0x02	; 2
 d62:	8f ad       	ldd	r24, Y+63	; 0x3f
 d64:	22 97       	sbiw	r28, 0x02	; 2
 d66:	81 30       	cpi	r24, 0x01	; 1
 d68:	a1 f4       	brne	.+40     	; 0xd92 <main+0x226>
					jiffies = 0;

					// Shutdown is toggled for stabilization of led driver chipset
					timer_set(0, 100);
 d6a:	80 e0       	ldi	r24, 0x00	; 0
 d6c:	90 e0       	ldi	r25, 0x00	; 0
 d6e:	44 e6       	ldi	r20, 0x64	; 100
 d70:	50 e0       	ldi	r21, 0x00	; 0
 d72:	60 e0       	ldi	r22, 0x00	; 0
 d74:	70 e0       	ldi	r23, 0x00	; 0
 d76:	0e 94 12 07 	call	0xe24	; 0xe24 <timer_set>
					while (1) {
						SHUT_DOWN(ENABLE);
 d7a:	40 98       	cbi	0x08, 0	; 8
						SHUT_DOWN(DISABLE);
 d7c:	40 9a       	sbi	0x08, 0	; 8
						if (timer_isfired(0))
 d7e:	80 e0       	ldi	r24, 0x00	; 0
 d80:	90 e0       	ldi	r25, 0x00	; 0
 d82:	0e 94 27 07 	call	0xe4e	; 0xe4e <timer_get>
 d86:	89 2b       	or	r24, r25
 d88:	c1 f7       	brne	.-16     	; 0xd7a <main+0x20e>
							break;
					}
					SHUT_DOWN(DISABLE);
 d8a:	40 9a       	sbi	0x08, 0	; 8
 d8c:	22 96       	adiw	r28, 0x02	; 2
 d8e:	1f ae       	std	Y+63, r1	; 0x3f
 d90:	22 97       	sbiw	r28, 0x02	; 2
					jiffies = 0;
				}
			}

			if (timer_isfired(1)) {
 d92:	81 e0       	ldi	r24, 0x01	; 1
 d94:	90 e0       	ldi	r25, 0x00	; 0
 d96:	0e 94 27 07 	call	0xe4e	; 0xe4e <timer_get>
 d9a:	89 2b       	or	r24, r25
 d9c:	09 f0       	breq	.+2      	; 0xda0 <main+0x234>
 d9e:	6c cf       	rjmp	.-296    	; 0xc78 <main+0x10c>
				if (g_DimmingLevel[dmxID] > OCR1AL) {
 da0:	f7 01       	movw	r30, r14
 da2:	e3 52       	subi	r30, 0x23	; 35
 da4:	fe 4f       	sbci	r31, 0xFE	; 254
 da6:	80 81       	ld	r24, Z
 da8:	90 91 88 00 	lds	r25, 0x0088
 dac:	28 2f       	mov	r18, r24
 dae:	30 e0       	ldi	r19, 0x00	; 0
 db0:	98 17       	cp	r25, r24
 db2:	88 f4       	brcc	.+34     	; 0xdd6 <main+0x26a>
					value = (g_DimmingLevel[dmxID] - OCR1AL) / 10;
 db4:	80 91 88 00 	lds	r24, 0x0088
 db8:	a9 01       	movw	r20, r18
 dba:	48 1b       	sub	r20, r24
 dbc:	51 09       	sbc	r21, r1
 dbe:	ca 01       	movw	r24, r20
 dc0:	6a e0       	ldi	r22, 0x0A	; 10
 dc2:	70 e0       	ldi	r23, 0x00	; 0
 dc4:	0e 94 96 07 	call	0xf2c	; 0xf2c <__divmodhi4>
					if (value < 5)
 dc8:	65 30       	cpi	r22, 0x05	; 5
 dca:	08 f4       	brcc	.+2      	; 0xdce <main+0x262>
 dcc:	61 e0       	ldi	r22, 0x01	; 1
						value = 1;
					PWM_OUT(OCR1AL+value);
 dce:	80 91 88 00 	lds	r24, 0x0088
 dd2:	86 0f       	add	r24, r22
 dd4:	18 c0       	rjmp	.+48     	; 0xe06 <main+0x29a>
				} else {
					value = (OCR1AL - g_DimmingLevel[dmxID]) / 10;
 dd6:	80 91 88 00 	lds	r24, 0x0088
					if (value > 5)
 dda:	90 e0       	ldi	r25, 0x00	; 0
 ddc:	82 1b       	sub	r24, r18
 dde:	93 0b       	sbc	r25, r19
 de0:	6a e0       	ldi	r22, 0x0A	; 10
 de2:	70 e0       	ldi	r23, 0x00	; 0
 de4:	0e 94 96 07 	call	0xf2c	; 0xf2c <__divmodhi4>
 de8:	66 30       	cpi	r22, 0x06	; 6
 dea:	10 f4       	brcc	.+4      	; 0xdf0 <main+0x284>
 dec:	91 e0       	ldi	r25, 0x01	; 1
 dee:	01 c0       	rjmp	.+2      	; 0xdf2 <main+0x286>
 df0:	93 e0       	ldi	r25, 0x03	; 3
						value = 3;
					else
						value = 1;

					if (fadeOutCnt < 5)
 df2:	54 e0       	ldi	r21, 0x04	; 4
 df4:	5d 15       	cp	r21, r13
 df6:	10 f4       	brcc	.+4      	; 0xdfc <main+0x290>
 df8:	dd 24       	eor	r13, r13
 dfa:	01 c0       	rjmp	.+2      	; 0xdfe <main+0x292>
 dfc:	90 e0       	ldi	r25, 0x00	; 0
						value = 0;
					else
						fadeOutCnt = 0;

					fadeOutCnt++;
 dfe:	d3 94       	inc	r13
					PWM_OUT(OCR1AL-value);
 e00:	80 91 88 00 	lds	r24, 0x0088
 e04:	89 1b       	sub	r24, r25
 e06:	80 93 88 00 	sts	0x0088, r24
				}
				timer_clear(1);
 e0a:	81 e0       	ldi	r24, 0x01	; 1
 e0c:	90 e0       	ldi	r25, 0x00	; 0
 e0e:	0e 94 44 07 	call	0xe88	; 0xe88 <timer_clear>
				timer_set(1, 1);
 e12:	81 e0       	ldi	r24, 0x01	; 1
 e14:	90 e0       	ldi	r25, 0x00	; 0
 e16:	41 e0       	ldi	r20, 0x01	; 1
 e18:	50 e0       	ldi	r21, 0x00	; 0
 e1a:	60 e0       	ldi	r22, 0x00	; 0
 e1c:	70 e0       	ldi	r23, 0x00	; 0
 e1e:	0e 94 12 07 	call	0xe24	; 0xe24 <timer_set>
 e22:	2a cf       	rjmp	.-428    	; 0xc78 <main+0x10c>

00000e24 <timer_set>:

sys_timer timer_list[MAX_SYS_TIMER];

int timer_set(int timer_id, uint32 time_value) {

	if ((timer_id >= 0) && (timer_id < MAX_SYS_TIMER)) {
 e24:	88 30       	cpi	r24, 0x08	; 8
 e26:	91 05       	cpc	r25, r1
 e28:	78 f4       	brcc	.+30     	; 0xe48 <timer_set+0x24>
		//	asm("cli");
		timer_list[timer_id].value = time_value;
 e2a:	fc 01       	movw	r30, r24
 e2c:	ee 0f       	add	r30, r30
 e2e:	ff 1f       	adc	r31, r31
 e30:	ee 0f       	add	r30, r30
 e32:	ff 1f       	adc	r31, r31
 e34:	e8 0f       	add	r30, r24
 e36:	f9 1f       	adc	r31, r25
 e38:	ef 51       	subi	r30, 0x1F	; 31
 e3a:	fe 4f       	sbci	r31, 0xFE	; 254
 e3c:	41 83       	std	Z+1, r20	; 0x01
 e3e:	52 83       	std	Z+2, r21	; 0x02
 e40:	63 83       	std	Z+3, r22	; 0x03
 e42:	74 83       	std	Z+4, r23	; 0x04
		timer_list[timer_id].running = 1;
 e44:	81 e0       	ldi	r24, 0x01	; 1
 e46:	80 83       	st	Z, r24
		//	asm("sei");
	}
	return 0;
}
 e48:	80 e0       	ldi	r24, 0x00	; 0
 e4a:	90 e0       	ldi	r25, 0x00	; 0
 e4c:	08 95       	ret

00000e4e <timer_get>:

int timer_get(int timer_id) {
	if ((timer_id >= 0) && (timer_id < MAX_SYS_TIMER)) {
 e4e:	88 30       	cpi	r24, 0x08	; 8
 e50:	91 05       	cpc	r25, r1
 e52:	b0 f4       	brcc	.+44     	; 0xe80 <timer_get+0x32>
		if (timer_list[timer_id].running) {
 e54:	fc 01       	movw	r30, r24
 e56:	ee 0f       	add	r30, r30
 e58:	ff 1f       	adc	r31, r31
 e5a:	ee 0f       	add	r30, r30
 e5c:	ff 1f       	adc	r31, r31
 e5e:	e8 0f       	add	r30, r24
 e60:	f9 1f       	adc	r31, r25
 e62:	ef 51       	subi	r30, 0x1F	; 31
 e64:	fe 4f       	sbci	r31, 0xFE	; 254
 e66:	80 81       	ld	r24, Z
 e68:	88 23       	and	r24, r24
 e6a:	51 f0       	breq	.+20     	; 0xe80 <timer_get+0x32>
 e6c:	20 e0       	ldi	r18, 0x00	; 0
 e6e:	30 e0       	ldi	r19, 0x00	; 0
 e70:	81 81       	ldd	r24, Z+1	; 0x01
 e72:	92 81       	ldd	r25, Z+2	; 0x02
 e74:	a3 81       	ldd	r26, Z+3	; 0x03
 e76:	b4 81       	ldd	r27, Z+4	; 0x04
 e78:	00 97       	sbiw	r24, 0x00	; 0
 e7a:	a1 05       	cpc	r26, r1
 e7c:	b1 05       	cpc	r27, r1
 e7e:	11 f0       	breq	.+4      	; 0xe84 <timer_get+0x36>
 e80:	21 e0       	ldi	r18, 0x01	; 1
 e82:	30 e0       	ldi	r19, 0x00	; 0
			return 1;
	} else {
		// return as not fired.
		return 1;
	}
}
 e84:	c9 01       	movw	r24, r18
 e86:	08 95       	ret

00000e88 <timer_clear>:

int timer_clear(int timer_id) {
	if ((timer_id >= 0) && (timer_id < MAX_SYS_TIMER)) {
 e88:	88 30       	cpi	r24, 0x08	; 8
 e8a:	91 05       	cpc	r25, r1
 e8c:	50 f4       	brcc	.+20     	; 0xea2 <timer_clear+0x1a>
		timer_list[timer_id].running = 0;
 e8e:	fc 01       	movw	r30, r24
 e90:	ee 0f       	add	r30, r30
 e92:	ff 1f       	adc	r31, r31
 e94:	ee 0f       	add	r30, r30
 e96:	ff 1f       	adc	r31, r31
 e98:	e8 0f       	add	r30, r24
 e9a:	f9 1f       	adc	r31, r25
 e9c:	ef 51       	subi	r30, 0x1F	; 31
 e9e:	fe 4f       	sbci	r31, 0xFE	; 254
 ea0:	10 82       	st	Z, r1
	}
	return 0;
}
 ea2:	80 e0       	ldi	r24, 0x00	; 0
 ea4:	90 e0       	ldi	r25, 0x00	; 0
 ea6:	08 95       	ret

00000ea8 <timer_init>:
/**
 initialize timer.

 use TIM0.
 */
void timer_init() {
 ea8:	e1 ee       	ldi	r30, 0xE1	; 225
 eaa:	f1 e0       	ldi	r31, 0x01	; 1
	for (int i = 0; i < MAX_SYS_TIMER; i++) {
		timer_list[i].running = 0;
 eac:	10 82       	st	Z, r1
		timer_list[i].value = 0;
 eae:	11 82       	std	Z+1, r1	; 0x01
 eb0:	12 82       	std	Z+2, r1	; 0x02
 eb2:	13 82       	std	Z+3, r1	; 0x03
 eb4:	14 82       	std	Z+4, r1	; 0x04
 eb6:	35 96       	adiw	r30, 0x05	; 5
 initialize timer.

 use TIM0.
 */
void timer_init() {
	for (int i = 0; i < MAX_SYS_TIMER; i++) {
 eb8:	82 e0       	ldi	r24, 0x02	; 2
 eba:	e9 30       	cpi	r30, 0x09	; 9
 ebc:	f8 07       	cpc	r31, r24
 ebe:	b1 f7       	brne	.-20     	; 0xeac <timer_init+0x4>
	// Mode: Normal top=FFh
	// OC0 output: Disconnected

	// TIMER_1MS	// atmega8.
	// overflow interrupt setting. 1ms interval tick.
	TCCR0B = 0x05;
 ec0:	85 e0       	ldi	r24, 0x05	; 5
 ec2:	85 bd       	out	0x25, r24	; 37

//    TCNT0=0x69;
	TCNT0 = 0xF8;
 ec4:	88 ef       	ldi	r24, 0xF8	; 248
 ec6:	86 bd       	out	0x26, r24	; 38

	TIMSK0 = 0x01;
 ec8:	81 e0       	ldi	r24, 0x01	; 1
 eca:	80 93 6e 00 	sts	0x006E, r24
	// 0x02: OCIE0 - timer0 compare match interrupt enable.
}
 ece:	08 95       	ret

00000ed0 <__vector_16>:

ISR(TIMER0_OVF_vect) {
 ed0:	1f 92       	push	r1
 ed2:	0f 92       	push	r0
 ed4:	0f b6       	in	r0, 0x3f	; 63
 ed6:	0f 92       	push	r0
 ed8:	11 24       	eor	r1, r1
 eda:	8f 93       	push	r24
 edc:	9f 93       	push	r25
 ede:	af 93       	push	r26
 ee0:	bf 93       	push	r27
 ee2:	ef 93       	push	r30
 ee4:	ff 93       	push	r31
 ee6:	e2 ee       	ldi	r30, 0xE2	; 226
 ee8:	f1 e0       	ldi	r31, 0x01	; 1

	// 1ms timer.

	// timer decreasing.
	for (i = 0; i < MAX_SYS_TIMER; i++) {
		if (timer_list[i].value > 0) {
 eea:	80 81       	ld	r24, Z
 eec:	91 81       	ldd	r25, Z+1	; 0x01
 eee:	a2 81       	ldd	r26, Z+2	; 0x02
 ef0:	b3 81       	ldd	r27, Z+3	; 0x03
 ef2:	00 97       	sbiw	r24, 0x00	; 0
 ef4:	a1 05       	cpc	r26, r1
 ef6:	b1 05       	cpc	r27, r1
 ef8:	39 f0       	breq	.+14     	; 0xf08 <__vector_16+0x38>
			timer_list[i].value--;
 efa:	01 97       	sbiw	r24, 0x01	; 1
 efc:	a1 09       	sbc	r26, r1
 efe:	b1 09       	sbc	r27, r1
 f00:	80 83       	st	Z, r24
 f02:	91 83       	std	Z+1, r25	; 0x01
 f04:	a2 83       	std	Z+2, r26	; 0x02
 f06:	b3 83       	std	Z+3, r27	; 0x03
 f08:	35 96       	adiw	r30, 0x05	; 5
//	_WDR();

	// 1ms timer.

	// timer decreasing.
	for (i = 0; i < MAX_SYS_TIMER; i++) {
 f0a:	82 e0       	ldi	r24, 0x02	; 2
 f0c:	ea 30       	cpi	r30, 0x0A	; 10
 f0e:	f8 07       	cpc	r31, r24
 f10:	61 f7       	brne	.-40     	; 0xeea <__vector_16+0x1a>
			timer_list[i].value--;
		}
	}

	// reset timer init.
	TCNT0 = 0xF8; // init value; only OVF int.
 f12:	88 ef       	ldi	r24, 0xF8	; 248
 f14:	86 bd       	out	0x26, r24	; 38
}
 f16:	ff 91       	pop	r31
 f18:	ef 91       	pop	r30
 f1a:	bf 91       	pop	r27
 f1c:	af 91       	pop	r26
 f1e:	9f 91       	pop	r25
 f20:	8f 91       	pop	r24
 f22:	0f 90       	pop	r0
 f24:	0f be       	out	0x3f, r0	; 63
 f26:	0f 90       	pop	r0
 f28:	1f 90       	pop	r1
 f2a:	18 95       	reti

00000f2c <__divmodhi4>:
 f2c:	97 fb       	bst	r25, 7
 f2e:	09 2e       	mov	r0, r25
 f30:	07 26       	eor	r0, r23
 f32:	0a d0       	rcall	.+20     	; 0xf48 <__divmodhi4_neg1>
 f34:	77 fd       	sbrc	r23, 7
 f36:	04 d0       	rcall	.+8      	; 0xf40 <__divmodhi4_neg2>
 f38:	0c d0       	rcall	.+24     	; 0xf52 <__udivmodhi4>
 f3a:	06 d0       	rcall	.+12     	; 0xf48 <__divmodhi4_neg1>
 f3c:	00 20       	and	r0, r0
 f3e:	1a f4       	brpl	.+6      	; 0xf46 <__divmodhi4_exit>

00000f40 <__divmodhi4_neg2>:
 f40:	70 95       	com	r23
 f42:	61 95       	neg	r22
 f44:	7f 4f       	sbci	r23, 0xFF	; 255

00000f46 <__divmodhi4_exit>:
 f46:	08 95       	ret

00000f48 <__divmodhi4_neg1>:
 f48:	f6 f7       	brtc	.-4      	; 0xf46 <__divmodhi4_exit>
 f4a:	90 95       	com	r25
 f4c:	81 95       	neg	r24
 f4e:	9f 4f       	sbci	r25, 0xFF	; 255
 f50:	08 95       	ret

00000f52 <__udivmodhi4>:
 f52:	aa 1b       	sub	r26, r26
 f54:	bb 1b       	sub	r27, r27
 f56:	51 e1       	ldi	r21, 0x11	; 17
 f58:	07 c0       	rjmp	.+14     	; 0xf68 <__udivmodhi4_ep>

00000f5a <__udivmodhi4_loop>:
 f5a:	aa 1f       	adc	r26, r26
 f5c:	bb 1f       	adc	r27, r27
 f5e:	a6 17       	cp	r26, r22
 f60:	b7 07       	cpc	r27, r23
 f62:	10 f0       	brcs	.+4      	; 0xf68 <__udivmodhi4_ep>
 f64:	a6 1b       	sub	r26, r22
 f66:	b7 0b       	sbc	r27, r23

00000f68 <__udivmodhi4_ep>:
 f68:	88 1f       	adc	r24, r24
 f6a:	99 1f       	adc	r25, r25
 f6c:	5a 95       	dec	r21
 f6e:	a9 f7       	brne	.-22     	; 0xf5a <__udivmodhi4_loop>
 f70:	80 95       	com	r24
 f72:	90 95       	com	r25
 f74:	bc 01       	movw	r22, r24
 f76:	cd 01       	movw	r24, r26
 f78:	08 95       	ret

00000f7a <isspace>:
 f7a:	91 11       	cpse	r25, r1
 f7c:	1c c0       	rjmp	.+56     	; 0xfb6 <__ctype_isfalse>
 f7e:	80 32       	cpi	r24, 0x20	; 32
 f80:	19 f0       	breq	.+6      	; 0xf88 <isspace+0xe>
 f82:	89 50       	subi	r24, 0x09	; 9
 f84:	85 50       	subi	r24, 0x05	; 5
 f86:	d0 f7       	brcc	.-12     	; 0xf7c <isspace+0x2>
 f88:	08 95       	ret

00000f8a <__eerd_byte_m328p>:
 f8a:	f9 99       	sbic	0x1f, 1	; 31
 f8c:	fe cf       	rjmp	.-4      	; 0xf8a <__eerd_byte_m328p>
 f8e:	92 bd       	out	0x22, r25	; 34
 f90:	81 bd       	out	0x21, r24	; 33
 f92:	f8 9a       	sbi	0x1f, 0	; 31
 f94:	99 27       	eor	r25, r25
 f96:	80 b5       	in	r24, 0x20	; 32
 f98:	08 95       	ret

00000f9a <__eewr_byte_m328p>:
 f9a:	26 2f       	mov	r18, r22

00000f9c <__eewr_r18_m328p>:
 f9c:	f9 99       	sbic	0x1f, 1	; 31
 f9e:	fe cf       	rjmp	.-4      	; 0xf9c <__eewr_r18_m328p>
 fa0:	1f ba       	out	0x1f, r1	; 31
 fa2:	92 bd       	out	0x22, r25	; 34
 fa4:	81 bd       	out	0x21, r24	; 33
 fa6:	20 bd       	out	0x20, r18	; 32
 fa8:	0f b6       	in	r0, 0x3f	; 63
 faa:	f8 94       	cli
 fac:	fa 9a       	sbi	0x1f, 2	; 31
 fae:	f9 9a       	sbi	0x1f, 1	; 31
 fb0:	0f be       	out	0x3f, r0	; 63
 fb2:	01 96       	adiw	r24, 0x01	; 1
 fb4:	08 95       	ret

00000fb6 <__ctype_isfalse>:
 fb6:	99 27       	eor	r25, r25
 fb8:	88 27       	eor	r24, r24

00000fba <__ctype_istrue>:
 fba:	08 95       	ret

00000fbc <_exit>:
 fbc:	f8 94       	cli

00000fbe <__stop_program>:
 fbe:	ff cf       	rjmp	.-2      	; 0xfbe <__stop_program>
