
MSN-400.elf:     file format elf32-avr

Sections:
Idx Name          Size      VMA       LMA       File off  Algn
  0 .data         0000020a  00800100  00002ce2  00002d96  2**0
                  CONTENTS, ALLOC, LOAD, DATA
  1 .text         00002ce2  00000000  00000000  000000b4  2**1
                  CONTENTS, ALLOC, LOAD, READONLY, CODE
  2 .bss          0000059d  0080030a  0080030a  00002fa0  2**0
                  ALLOC
  3 .eeprom       00000001  00810000  00810000  00002fa0  2**0
                  CONTENTS, ALLOC, LOAD, DATA
  4 .debug_aranges 000000c0  00000000  00000000  00002fa1  2**0
                  CONTENTS, READONLY, DEBUGGING
  5 .debug_pubnames 000000e5  00000000  00000000  00003061  2**0
                  CONTENTS, READONLY, DEBUGGING
  6 .debug_info   00000d86  00000000  00000000  00003146  2**0
                  CONTENTS, READONLY, DEBUGGING
  7 .debug_abbrev 0000081f  00000000  00000000  00003ecc  2**0
                  CONTENTS, READONLY, DEBUGGING
  8 .debug_line   00000735  00000000  00000000  000046eb  2**0
                  CONTENTS, READONLY, DEBUGGING
  9 .debug_frame  000000c0  00000000  00000000  00004e20  2**2
                  CONTENTS, READONLY, DEBUGGING
 10 .debug_str    0000021d  00000000  00000000  00004ee0  2**0
                  CONTENTS, READONLY, DEBUGGING
 11 .debug_loc    000003b6  00000000  00000000  000050fd  2**0
                  CONTENTS, READONLY, DEBUGGING

Disassembly of section .text:

00000000 <__vectors>:
       0:	0c 94 34 00 	jmp	0x68	; 0x68 <__ctors_end>
       4:	0c 94 51 00 	jmp	0xa2	; 0xa2 <__bad_interrupt>
       8:	0c 94 51 00 	jmp	0xa2	; 0xa2 <__bad_interrupt>
       c:	0c 94 51 00 	jmp	0xa2	; 0xa2 <__bad_interrupt>
      10:	0c 94 51 00 	jmp	0xa2	; 0xa2 <__bad_interrupt>
      14:	0c 94 51 00 	jmp	0xa2	; 0xa2 <__bad_interrupt>
      18:	0c 94 51 00 	jmp	0xa2	; 0xa2 <__bad_interrupt>
      1c:	0c 94 51 00 	jmp	0xa2	; 0xa2 <__bad_interrupt>
      20:	0c 94 51 00 	jmp	0xa2	; 0xa2 <__bad_interrupt>
      24:	0c 94 51 00 	jmp	0xa2	; 0xa2 <__bad_interrupt>
      28:	0c 94 51 00 	jmp	0xa2	; 0xa2 <__bad_interrupt>
      2c:	0c 94 51 00 	jmp	0xa2	; 0xa2 <__bad_interrupt>
      30:	0c 94 51 00 	jmp	0xa2	; 0xa2 <__bad_interrupt>
      34:	0c 94 51 00 	jmp	0xa2	; 0xa2 <__bad_interrupt>
      38:	0c 94 b7 03 	jmp	0x76e	; 0x76e <__vector_14>
      3c:	0c 94 51 00 	jmp	0xa2	; 0xa2 <__bad_interrupt>
      40:	0c 94 51 00 	jmp	0xa2	; 0xa2 <__bad_interrupt>
      44:	0c 94 51 00 	jmp	0xa2	; 0xa2 <__bad_interrupt>
      48:	0c 94 08 04 	jmp	0x810	; 0x810 <__vector_18>
      4c:	0c 94 51 00 	jmp	0xa2	; 0xa2 <__bad_interrupt>
      50:	0c 94 51 00 	jmp	0xa2	; 0xa2 <__bad_interrupt>
      54:	0c 94 51 00 	jmp	0xa2	; 0xa2 <__bad_interrupt>
      58:	0c 94 51 00 	jmp	0xa2	; 0xa2 <__bad_interrupt>
      5c:	0c 94 51 00 	jmp	0xa2	; 0xa2 <__bad_interrupt>
      60:	0c 94 51 00 	jmp	0xa2	; 0xa2 <__bad_interrupt>
      64:	0c 94 51 00 	jmp	0xa2	; 0xa2 <__bad_interrupt>

00000068 <__ctors_end>:
      68:	11 24       	eor	r1, r1
      6a:	1f be       	out	0x3f, r1	; 63
      6c:	cf ef       	ldi	r28, 0xFF	; 255
      6e:	d8 e0       	ldi	r29, 0x08	; 8
      70:	de bf       	out	0x3e, r29	; 62
      72:	cd bf       	out	0x3d, r28	; 61

00000074 <__do_copy_data>:
      74:	13 e0       	ldi	r17, 0x03	; 3
      76:	a0 e0       	ldi	r26, 0x00	; 0
      78:	b1 e0       	ldi	r27, 0x01	; 1
      7a:	e2 ee       	ldi	r30, 0xE2	; 226
      7c:	fc e2       	ldi	r31, 0x2C	; 44
      7e:	02 c0       	rjmp	.+4      	; 0x84 <.do_copy_data_start>

00000080 <.do_copy_data_loop>:
      80:	05 90       	lpm	r0, Z+
      82:	0d 92       	st	X+, r0

00000084 <.do_copy_data_start>:
      84:	aa 30       	cpi	r26, 0x0A	; 10
      86:	b1 07       	cpc	r27, r17
      88:	d9 f7       	brne	.-10     	; 0x80 <.do_copy_data_loop>

0000008a <__do_clear_bss>:
      8a:	18 e0       	ldi	r17, 0x08	; 8
      8c:	aa e0       	ldi	r26, 0x0A	; 10
      8e:	b3 e0       	ldi	r27, 0x03	; 3
      90:	01 c0       	rjmp	.+2      	; 0x94 <.do_clear_bss_start>

00000092 <.do_clear_bss_loop>:
      92:	1d 92       	st	X+, r1

00000094 <.do_clear_bss_start>:
      94:	a7 3a       	cpi	r26, 0xA7	; 167
      96:	b1 07       	cpc	r27, r17
      98:	e1 f7       	brne	.-8      	; 0x92 <.do_clear_bss_loop>
      9a:	0e 94 4d 0f 	call	0x1e9a	; 0x1e9a <main>
      9e:	0c 94 6f 16 	jmp	0x2cde	; 0x2cde <_exit>

000000a2 <__bad_interrupt>:
      a2:	0c 94 00 00 	jmp	0	; 0x0 <__vectors>

000000a6 <initADC>:
      a6:	10 92 7c 00 	sts	0x007C, r1
      aa:	80 e8       	ldi	r24, 0x80	; 128
      ac:	80 bf       	out	0x30, r24	; 48
      ae:	85 ea       	ldi	r24, 0xA5	; 165
      b0:	80 93 7a 00 	sts	0x007A, r24
      b4:	eb e7       	ldi	r30, 0x7B	; 123
      b6:	f0 e0       	ldi	r31, 0x00	; 0
      b8:	80 81       	ld	r24, Z
      ba:	88 7f       	andi	r24, 0xF8	; 248
      bc:	80 83       	st	Z, r24
      be:	81 ec       	ldi	r24, 0xC1	; 193
      c0:	80 93 7e 00 	sts	0x007E, r24
      c4:	08 95       	ret

000000c6 <GCP_ProcessRebootReqFromZigbee>:
      c6:	ff cf       	rjmp	.-2      	; 0xc6 <GCP_ProcessRebootReqFromZigbee>

000000c8 <getGCPSeqNumGenerator>:
      c8:	20 91 0e 03 	lds	r18, 0x030E
      cc:	30 91 0f 03 	lds	r19, 0x030F
      d0:	2f 5f       	subi	r18, 0xFF	; 255
      d2:	3f 4f       	sbci	r19, 0xFF	; 255
      d4:	30 93 0f 03 	sts	0x030F, r19
      d8:	20 93 0e 03 	sts	0x030E, r18
      dc:	21 50       	subi	r18, 0x01	; 1
      de:	30 40       	sbci	r19, 0x00	; 0
      e0:	c9 01       	movw	r24, r18
      e2:	08 95       	ret

000000e4 <plcs_GetGCPResMessage>:
      e4:	ef 92       	push	r14
      e6:	ff 92       	push	r15
      e8:	0f 93       	push	r16
      ea:	cf 93       	push	r28
      ec:	df 93       	push	r29
      ee:	ec 01       	movw	r28, r24
      f0:	80 e8       	ldi	r24, 0x80	; 128
      f2:	88 83       	st	Y, r24
      f4:	81 e2       	ldi	r24, 0x21	; 33
      f6:	89 83       	std	Y+1, r24	; 0x01
      f8:	fa 82       	std	Y+2, r15	; 0x02
      fa:	eb 82       	std	Y+3, r14	; 0x03
      fc:	7c 83       	std	Y+4, r23	; 0x04
      fe:	6d 83       	std	Y+5, r22	; 0x05
     100:	5e 83       	std	Y+6, r21	; 0x06
     102:	4f 83       	std	Y+7, r20	; 0x07
     104:	40 e0       	ldi	r20, 0x00	; 0
     106:	50 e0       	ldi	r21, 0x00	; 0
     108:	60 2f       	mov	r22, r16
     10a:	70 e0       	ldi	r23, 0x00	; 0
     10c:	0a c0       	rjmp	.+20     	; 0x122 <plcs_GetGCPResMessage+0x3e>
     10e:	fe 01       	movw	r30, r28
     110:	e8 0f       	add	r30, r24
     112:	f1 1d       	adc	r31, r1
     114:	d9 01       	movw	r26, r18
     116:	a4 0f       	add	r26, r20
     118:	b5 1f       	adc	r27, r21
     11a:	8c 91       	ld	r24, X
     11c:	80 83       	st	Z, r24
     11e:	4f 5f       	subi	r20, 0xFF	; 255
     120:	5f 4f       	sbci	r21, 0xFF	; 255
     122:	84 2f       	mov	r24, r20
     124:	88 5f       	subi	r24, 0xF8	; 248
     126:	46 17       	cp	r20, r22
     128:	57 07       	cpc	r21, r23
     12a:	8c f3       	brlt	.-30     	; 0x10e <plcs_GetGCPResMessage+0x2a>
     12c:	80 2f       	mov	r24, r16
     12e:	88 5f       	subi	r24, 0xF8	; 248
     130:	df 91       	pop	r29
     132:	cf 91       	pop	r28
     134:	0f 91       	pop	r16
     136:	ff 90       	pop	r15
     138:	ef 90       	pop	r14
     13a:	08 95       	ret

0000013c <MSN_GetSensorDiff>:
     13c:	80 91 01 01 	lds	r24, 0x0101
     140:	08 95       	ret

00000142 <MSN_IsNormalMode>:
     142:	80 91 00 01 	lds	r24, 0x0100
     146:	08 95       	ret

00000148 <MSN_SetSensorDiff>:
     148:	80 93 01 01 	sts	0x0101, r24
     14c:	08 95       	ret

0000014e <MSN_SetNormalMode>:
     14e:	80 93 00 01 	sts	0x0100, r24
     152:	08 95       	ret

00000154 <MSN_GetTemperature>:
     154:	80 91 0a 03 	lds	r24, 0x030A
     158:	90 91 0b 03 	lds	r25, 0x030B
     15c:	08 95       	ret

0000015e <MSN_GetIllumination>:
     15e:	80 91 0c 03 	lds	r24, 0x030C
     162:	90 91 0d 03 	lds	r25, 0x030D
     166:	08 95       	ret

00000168 <MSN_SetTemperature>:
     168:	90 93 0b 03 	sts	0x030B, r25
     16c:	80 93 0a 03 	sts	0x030A, r24
     170:	08 95       	ret

00000172 <MSN_SetIllumination>:
     172:	90 93 0d 03 	sts	0x030D, r25
     176:	80 93 0c 03 	sts	0x030C, r24
     17a:	08 95       	ret

0000017c <plcs_GetGCPMessage>:
     17c:	af 92       	push	r10
     17e:	bf 92       	push	r11
     180:	df 92       	push	r13
     182:	ef 92       	push	r14
     184:	ff 92       	push	r15
     186:	0f 93       	push	r16
     188:	1f 93       	push	r17
     18a:	cf 93       	push	r28
     18c:	df 93       	push	r29
     18e:	ec 01       	movw	r28, r24
     190:	e6 2e       	mov	r14, r22
     192:	17 2f       	mov	r17, r23
     194:	d4 2e       	mov	r13, r20
     196:	f5 2e       	mov	r15, r21
     198:	59 01       	movw	r10, r18
     19a:	0e 94 73 02 	call	0x4e6	; 0x4e6 <getNCPSeqNumGenerator>
     19e:	20 e8       	ldi	r18, 0x80	; 128
     1a0:	28 83       	st	Y, r18
     1a2:	21 e2       	ldi	r18, 0x21	; 33
     1a4:	29 83       	std	Y+1, r18	; 0x01
     1a6:	9a 83       	std	Y+2, r25	; 0x02
     1a8:	8b 83       	std	Y+3, r24	; 0x03
     1aa:	1c 83       	std	Y+4, r17	; 0x04
     1ac:	ed 82       	std	Y+5, r14	; 0x05
     1ae:	fe 82       	std	Y+6, r15	; 0x06
     1b0:	df 82       	std	Y+7, r13	; 0x07
     1b2:	20 e0       	ldi	r18, 0x00	; 0
     1b4:	30 e0       	ldi	r19, 0x00	; 0
     1b6:	40 2f       	mov	r20, r16
     1b8:	50 e0       	ldi	r21, 0x00	; 0
     1ba:	0a c0       	rjmp	.+20     	; 0x1d0 <plcs_GetGCPMessage+0x54>
     1bc:	fe 01       	movw	r30, r28
     1be:	e8 0f       	add	r30, r24
     1c0:	f1 1d       	adc	r31, r1
     1c2:	d5 01       	movw	r26, r10
     1c4:	a2 0f       	add	r26, r18
     1c6:	b3 1f       	adc	r27, r19
     1c8:	8c 91       	ld	r24, X
     1ca:	80 83       	st	Z, r24
     1cc:	2f 5f       	subi	r18, 0xFF	; 255
     1ce:	3f 4f       	sbci	r19, 0xFF	; 255
     1d0:	82 2f       	mov	r24, r18
     1d2:	88 5f       	subi	r24, 0xF8	; 248
     1d4:	24 17       	cp	r18, r20
     1d6:	35 07       	cpc	r19, r21
     1d8:	8c f3       	brlt	.-30     	; 0x1bc <plcs_GetGCPMessage+0x40>
     1da:	80 2f       	mov	r24, r16
     1dc:	88 5f       	subi	r24, 0xF8	; 248
     1de:	df 91       	pop	r29
     1e0:	cf 91       	pop	r28
     1e2:	1f 91       	pop	r17
     1e4:	0f 91       	pop	r16
     1e6:	ff 90       	pop	r15
     1e8:	ef 90       	pop	r14
     1ea:	df 90       	pop	r13
     1ec:	bf 90       	pop	r11
     1ee:	af 90       	pop	r10
     1f0:	08 95       	ret

000001f2 <GCP_SendNoticeEvent_Debug>:
     1f2:	cf 92       	push	r12
     1f4:	df 92       	push	r13
     1f6:	ef 92       	push	r14
     1f8:	ff 92       	push	r15
     1fa:	0f 93       	push	r16
     1fc:	1f 93       	push	r17
     1fe:	cf 93       	push	r28
     200:	df 93       	push	r29
     202:	9a e7       	ldi	r25, 0x7A	; 122
     204:	90 93 9c 03 	sts	0x039C, r25
     208:	10 92 9d 03 	sts	0x039D, r1
     20c:	10 92 9e 03 	sts	0x039E, r1
     210:	d0 90 96 03 	lds	r13, 0x0396
     214:	c0 90 97 03 	lds	r12, 0x0397
     218:	c0 92 9f 03 	sts	0x039F, r12
     21c:	d0 92 a0 03 	sts	0x03A0, r13
     220:	fa 01       	movw	r30, r20
     222:	e2 0f       	add	r30, r18
     224:	f1 1d       	adc	r31, r1
     226:	ef 2f       	mov	r30, r31
     228:	ff 0f       	add	r31, r31
     22a:	ff 0b       	sbc	r31, r31
     22c:	e0 93 a1 03 	sts	0x03A1, r30
     230:	24 0f       	add	r18, r20
     232:	20 93 a2 03 	sts	0x03A2, r18
     236:	9a e0       	ldi	r25, 0x0A	; 10
     238:	09 9f       	mul	r16, r25
     23a:	80 01       	movw	r16, r0
     23c:	11 24       	eor	r1, r1
     23e:	00 93 a3 03 	sts	0x03A3, r16
     242:	e9 9e       	mul	r14, r25
     244:	70 01       	movw	r14, r0
     246:	11 24       	eor	r1, r1
     248:	e0 92 a4 03 	sts	0x03A4, r14
     24c:	80 93 a5 03 	sts	0x03A5, r24
     250:	26 2f       	mov	r18, r22
     252:	37 2f       	mov	r19, r23
     254:	e9 01       	movw	r28, r18
     256:	aa e0       	ldi	r26, 0x0A	; 10
     258:	b0 e0       	ldi	r27, 0x00	; 0
     25a:	28 2f       	mov	r18, r24
     25c:	30 e0       	ldi	r19, 0x00	; 0
     25e:	2b 5f       	subi	r18, 0xFB	; 251
     260:	3f 4f       	sbci	r19, 0xFF	; 255
     262:	22 0f       	add	r18, r18
     264:	33 1f       	adc	r19, r19
     266:	0c c0       	rjmp	.+24     	; 0x280 <GCP_SendNoticeEvent_Debug+0x8e>
     268:	89 81       	ldd	r24, Y+1	; 0x01
     26a:	fd 01       	movw	r30, r26
     26c:	e4 56       	subi	r30, 0x64	; 100
     26e:	fc 4f       	sbci	r31, 0xFC	; 252
     270:	80 83       	st	Z, r24
     272:	88 81       	ld	r24, Y
     274:	fd 01       	movw	r30, r26
     276:	e3 56       	subi	r30, 0x63	; 99
     278:	fc 4f       	sbci	r31, 0xFC	; 252
     27a:	80 83       	st	Z, r24
     27c:	12 96       	adiw	r26, 0x02	; 2
     27e:	22 96       	adiw	r28, 0x02	; 2
     280:	a2 17       	cp	r26, r18
     282:	b3 07       	cpc	r27, r19
     284:	89 f7       	brne	.-30     	; 0x268 <GCP_SendNoticeEvent_Debug+0x76>
     286:	8a eb       	ldi	r24, 0xBA	; 186
     288:	93 e0       	ldi	r25, 0x03	; 3
     28a:	60 e0       	ldi	r22, 0x00	; 0
     28c:	70 e0       	ldi	r23, 0x00	; 0
     28e:	4d 2d       	mov	r20, r13
     290:	5c 2d       	mov	r21, r12
     292:	2c e9       	ldi	r18, 0x9C	; 156
     294:	33 e0       	ldi	r19, 0x03	; 3
     296:	0a 2f       	mov	r16, r26
     298:	0e 94 be 00 	call	0x17c	; 0x17c <plcs_GetGCPMessage>
     29c:	48 2f       	mov	r20, r24
     29e:	80 e0       	ldi	r24, 0x00	; 0
     2a0:	90 e0       	ldi	r25, 0x00	; 0
     2a2:	6a eb       	ldi	r22, 0xBA	; 186
     2a4:	73 e0       	ldi	r23, 0x03	; 3
     2a6:	50 e0       	ldi	r21, 0x00	; 0
     2a8:	0e 94 37 09 	call	0x126e	; 0x126e <sendToZigbeeSA>
     2ac:	df 91       	pop	r29
     2ae:	cf 91       	pop	r28
     2b0:	1f 91       	pop	r17
     2b2:	0f 91       	pop	r16
     2b4:	ff 90       	pop	r15
     2b6:	ef 90       	pop	r14
     2b8:	df 90       	pop	r13
     2ba:	cf 90       	pop	r12
     2bc:	08 95       	ret

000002be <GCP_SendSetModeRes>:
     2be:	ef 92       	push	r14
     2c0:	ff 92       	push	r15
     2c2:	0f 93       	push	r16
     2c4:	83 e8       	ldi	r24, 0x83	; 131
     2c6:	80 93 9c 03 	sts	0x039C, r24
     2ca:	10 92 9d 03 	sts	0x039D, r1
     2ce:	10 92 9e 03 	sts	0x039E, r1
     2d2:	40 91 96 03 	lds	r20, 0x0396
     2d6:	50 91 97 03 	lds	r21, 0x0397
     2da:	50 93 9f 03 	sts	0x039F, r21
     2de:	40 93 a0 03 	sts	0x03A0, r20
     2e2:	10 92 a1 03 	sts	0x03A1, r1
     2e6:	2a eb       	ldi	r18, 0xBA	; 186
     2e8:	e2 2e       	mov	r14, r18
     2ea:	23 e0       	ldi	r18, 0x03	; 3
     2ec:	f2 2e       	mov	r15, r18
     2ee:	c7 01       	movw	r24, r14
     2f0:	60 e0       	ldi	r22, 0x00	; 0
     2f2:	70 e0       	ldi	r23, 0x00	; 0
     2f4:	2c e9       	ldi	r18, 0x9C	; 156
     2f6:	33 e0       	ldi	r19, 0x03	; 3
     2f8:	06 e0       	ldi	r16, 0x06	; 6
     2fa:	0e 94 be 00 	call	0x17c	; 0x17c <plcs_GetGCPMessage>
     2fe:	48 2f       	mov	r20, r24
     300:	80 e0       	ldi	r24, 0x00	; 0
     302:	90 e0       	ldi	r25, 0x00	; 0
     304:	b7 01       	movw	r22, r14
     306:	50 e0       	ldi	r21, 0x00	; 0
     308:	0e 94 37 09 	call	0x126e	; 0x126e <sendToZigbeeSA>
     30c:	0f 91       	pop	r16
     30e:	ff 90       	pop	r15
     310:	ef 90       	pop	r14
     312:	08 95       	ret

00000314 <GCP_ProcessSetModeReqFromZigbee>:
     314:	fa 01       	movw	r30, r20
     316:	85 85       	ldd	r24, Z+13	; 0x0d
     318:	81 30       	cpi	r24, 0x01	; 1
     31a:	19 f4       	brne	.+6      	; 0x322 <GCP_ProcessSetModeReqFromZigbee+0xe>
     31c:	10 92 00 01 	sts	0x0100, r1
     320:	03 c0       	rjmp	.+6      	; 0x328 <GCP_ProcessSetModeReqFromZigbee+0x14>
     322:	81 e0       	ldi	r24, 0x01	; 1
     324:	80 93 00 01 	sts	0x0100, r24
     328:	0e 94 5f 01 	call	0x2be	; 0x2be <GCP_SendSetModeRes>
     32c:	08 95       	ret

0000032e <GCP_SendSetSensingLevelRes>:
     32e:	cf 92       	push	r12
     330:	df 92       	push	r13
     332:	ef 92       	push	r14
     334:	ff 92       	push	r15
     336:	0f 93       	push	r16
     338:	7c 01       	movw	r14, r24
     33a:	81 e8       	ldi	r24, 0x81	; 129
     33c:	80 93 9c 03 	sts	0x039C, r24
     340:	10 92 9d 03 	sts	0x039D, r1
     344:	10 92 9e 03 	sts	0x039E, r1
     348:	40 91 96 03 	lds	r20, 0x0396
     34c:	50 91 97 03 	lds	r21, 0x0397
     350:	50 93 9f 03 	sts	0x039F, r21
     354:	40 93 a0 03 	sts	0x03A0, r20
     358:	10 92 a1 03 	sts	0x03A1, r1
     35c:	3a eb       	ldi	r19, 0xBA	; 186
     35e:	c3 2e       	mov	r12, r19
     360:	33 e0       	ldi	r19, 0x03	; 3
     362:	d3 2e       	mov	r13, r19
     364:	c6 01       	movw	r24, r12
     366:	60 e0       	ldi	r22, 0x00	; 0
     368:	70 e0       	ldi	r23, 0x00	; 0
     36a:	2c e9       	ldi	r18, 0x9C	; 156
     36c:	33 e0       	ldi	r19, 0x03	; 3
     36e:	06 e0       	ldi	r16, 0x06	; 6
     370:	0e 94 72 00 	call	0xe4	; 0xe4 <plcs_GetGCPResMessage>
     374:	48 2f       	mov	r20, r24
     376:	80 e0       	ldi	r24, 0x00	; 0
     378:	90 e0       	ldi	r25, 0x00	; 0
     37a:	b6 01       	movw	r22, r12
     37c:	50 e0       	ldi	r21, 0x00	; 0
     37e:	0e 94 37 09 	call	0x126e	; 0x126e <sendToZigbeeSA>
     382:	0f 91       	pop	r16
     384:	ff 90       	pop	r15
     386:	ef 90       	pop	r14
     388:	df 90       	pop	r13
     38a:	cf 90       	pop	r12
     38c:	08 95       	ret

0000038e <GCP_ProcessSetSensingLevelReqFromZigbee>:
     38e:	fa 01       	movw	r30, r20
     390:	92 81       	ldd	r25, Z+2	; 0x02
     392:	80 e0       	ldi	r24, 0x00	; 0
     394:	23 81       	ldd	r18, Z+3	; 0x03
     396:	30 e0       	ldi	r19, 0x00	; 0
     398:	45 85       	ldd	r20, Z+13	; 0x0d
     39a:	40 93 01 01 	sts	0x0101, r20
     39e:	82 2b       	or	r24, r18
     3a0:	93 2b       	or	r25, r19
     3a2:	0e 94 97 01 	call	0x32e	; 0x32e <GCP_SendSetSensingLevelRes>
     3a6:	08 95       	ret

000003a8 <GCP_SendNoticeEvent>:
     3a8:	ef 92       	push	r14
     3aa:	ff 92       	push	r15
     3ac:	0f 93       	push	r16
     3ae:	80 e7       	ldi	r24, 0x70	; 112
     3b0:	80 93 9c 03 	sts	0x039C, r24
     3b4:	10 92 9d 03 	sts	0x039D, r1
     3b8:	10 92 9e 03 	sts	0x039E, r1
     3bc:	81 e0       	ldi	r24, 0x01	; 1
     3be:	80 93 9f 03 	sts	0x039F, r24
     3c2:	40 91 96 03 	lds	r20, 0x0396
     3c6:	50 91 97 03 	lds	r21, 0x0397
     3ca:	50 93 a0 03 	sts	0x03A0, r21
     3ce:	40 93 a1 03 	sts	0x03A1, r20
     3d2:	6a eb       	ldi	r22, 0xBA	; 186
     3d4:	e6 2e       	mov	r14, r22
     3d6:	63 e0       	ldi	r22, 0x03	; 3
     3d8:	f6 2e       	mov	r15, r22
     3da:	c7 01       	movw	r24, r14
     3dc:	60 e0       	ldi	r22, 0x00	; 0
     3de:	70 e0       	ldi	r23, 0x00	; 0
     3e0:	2c e9       	ldi	r18, 0x9C	; 156
     3e2:	33 e0       	ldi	r19, 0x03	; 3
     3e4:	06 e0       	ldi	r16, 0x06	; 6
     3e6:	0e 94 be 00 	call	0x17c	; 0x17c <plcs_GetGCPMessage>
     3ea:	48 2f       	mov	r20, r24
     3ec:	80 e0       	ldi	r24, 0x00	; 0
     3ee:	90 e0       	ldi	r25, 0x00	; 0
     3f0:	b7 01       	movw	r22, r14
     3f2:	50 e0       	ldi	r21, 0x00	; 0
     3f4:	0e 94 37 09 	call	0x126e	; 0x126e <sendToZigbeeSA>
     3f8:	0f 91       	pop	r16
     3fa:	ff 90       	pop	r15
     3fc:	ef 90       	pop	r14
     3fe:	08 95       	ret

00000400 <GCP_SendStateInfoRes>:
     400:	ef 92       	push	r14
     402:	ff 92       	push	r15
     404:	0f 93       	push	r16
     406:	85 e2       	ldi	r24, 0x25	; 37
     408:	80 93 9c 03 	sts	0x039C, r24
     40c:	10 92 9d 03 	sts	0x039D, r1
     410:	10 92 9e 03 	sts	0x039E, r1
     414:	40 91 96 03 	lds	r20, 0x0396
     418:	50 91 97 03 	lds	r21, 0x0397
     41c:	50 93 9f 03 	sts	0x039F, r21
     420:	40 93 a0 03 	sts	0x03A0, r20
     424:	80 e2       	ldi	r24, 0x20	; 32
     426:	80 93 a1 03 	sts	0x03A1, r24
     42a:	80 e5       	ldi	r24, 0x50	; 80
     42c:	80 93 a2 03 	sts	0x03A2, r24
     430:	80 91 01 01 	lds	r24, 0x0101
     434:	80 93 a3 03 	sts	0x03A3, r24
     438:	90 91 0a 03 	lds	r25, 0x030A
     43c:	80 91 0b 03 	lds	r24, 0x030B
     440:	80 93 a4 03 	sts	0x03A4, r24
     444:	90 93 a5 03 	sts	0x03A5, r25
     448:	90 91 0c 03 	lds	r25, 0x030C
     44c:	80 91 0d 03 	lds	r24, 0x030D
     450:	80 93 a6 03 	sts	0x03A6, r24
     454:	90 93 a7 03 	sts	0x03A7, r25
     458:	7a eb       	ldi	r23, 0xBA	; 186
     45a:	e7 2e       	mov	r14, r23
     45c:	73 e0       	ldi	r23, 0x03	; 3
     45e:	f7 2e       	mov	r15, r23
     460:	c7 01       	movw	r24, r14
     462:	60 e0       	ldi	r22, 0x00	; 0
     464:	70 e0       	ldi	r23, 0x00	; 0
     466:	2c e9       	ldi	r18, 0x9C	; 156
     468:	33 e0       	ldi	r19, 0x03	; 3
     46a:	0c e0       	ldi	r16, 0x0C	; 12
     46c:	0e 94 be 00 	call	0x17c	; 0x17c <plcs_GetGCPMessage>
     470:	48 2f       	mov	r20, r24
     472:	80 e0       	ldi	r24, 0x00	; 0
     474:	90 e0       	ldi	r25, 0x00	; 0
     476:	b7 01       	movw	r22, r14
     478:	50 e0       	ldi	r21, 0x00	; 0
     47a:	0e 94 37 09 	call	0x126e	; 0x126e <sendToZigbeeSA>
     47e:	0f 91       	pop	r16
     480:	ff 90       	pop	r15
     482:	ef 90       	pop	r14
     484:	08 95       	ret

00000486 <GCP_ProcessStateInfoReqFromZigbee>:
     486:	0e 94 00 02 	call	0x400	; 0x400 <GCP_SendStateInfoRes>
     48a:	08 95       	ret

0000048c <GCP_ProcessMessageFromZigbee>:
     48c:	fa 01       	movw	r30, r20
     48e:	40 85       	ldd	r20, Z+8	; 0x08
     490:	4a 33       	cpi	r20, 0x3A	; 58
     492:	69 f0       	breq	.+26     	; 0x4ae <GCP_ProcessMessageFromZigbee+0x22>
     494:	4b 33       	cpi	r20, 0x3B	; 59
     496:	18 f4       	brcc	.+6      	; 0x49e <GCP_ProcessMessageFromZigbee+0x12>
     498:	44 32       	cpi	r20, 0x24	; 36
     49a:	89 f4       	brne	.+34     	; 0x4be <GCP_ProcessMessageFromZigbee+0x32>
     49c:	05 c0       	rjmp	.+10     	; 0x4a8 <GCP_ProcessMessageFromZigbee+0x1c>
     49e:	40 38       	cpi	r20, 0x80	; 128
     4a0:	39 f0       	breq	.+14     	; 0x4b0 <GCP_ProcessMessageFromZigbee+0x24>
     4a2:	42 38       	cpi	r20, 0x82	; 130
     4a4:	61 f4       	brne	.+24     	; 0x4be <GCP_ProcessMessageFromZigbee+0x32>
     4a6:	08 c0       	rjmp	.+16     	; 0x4b8 <GCP_ProcessMessageFromZigbee+0x2c>
     4a8:	0e 94 00 02 	call	0x400	; 0x400 <GCP_SendStateInfoRes>
     4ac:	08 95       	ret
     4ae:	ff cf       	rjmp	.-2      	; 0x4ae <GCP_ProcessMessageFromZigbee+0x22>
     4b0:	af 01       	movw	r20, r30
     4b2:	0e 94 c7 01 	call	0x38e	; 0x38e <GCP_ProcessSetSensingLevelReqFromZigbee>
     4b6:	08 95       	ret
     4b8:	af 01       	movw	r20, r30
     4ba:	0e 94 8a 01 	call	0x314	; 0x314 <GCP_ProcessSetModeReqFromZigbee>
     4be:	08 95       	ret

000004c0 <ncp_ProcessRegisterResFromZigbee>:
     4c0:	fa 01       	movw	r30, r20
     4c2:	91 85       	ldd	r25, Z+9	; 0x09
     4c4:	80 e0       	ldi	r24, 0x00	; 0
     4c6:	22 85       	ldd	r18, Z+10	; 0x0a
     4c8:	30 e0       	ldi	r19, 0x00	; 0
     4ca:	82 2b       	or	r24, r18
     4cc:	93 2b       	or	r25, r19
     4ce:	89 2b       	or	r24, r25
     4d0:	21 f4       	brne	.+8      	; 0x4da <ncp_ProcessRegisterResFromZigbee+0x1a>
     4d2:	81 e0       	ldi	r24, 0x01	; 1
     4d4:	80 93 10 03 	sts	0x0310, r24
     4d8:	08 95       	ret
     4da:	10 92 10 03 	sts	0x0310, r1
     4de:	08 95       	ret

000004e0 <ncp_ConnState>:
     4e0:	80 91 10 03 	lds	r24, 0x0310
     4e4:	08 95       	ret

000004e6 <getNCPSeqNumGenerator>:
     4e6:	20 91 12 03 	lds	r18, 0x0312
     4ea:	30 91 13 03 	lds	r19, 0x0313
     4ee:	2f 5f       	subi	r18, 0xFF	; 255
     4f0:	3f 4f       	sbci	r19, 0xFF	; 255
     4f2:	30 93 13 03 	sts	0x0313, r19
     4f6:	20 93 12 03 	sts	0x0312, r18
     4fa:	21 50       	subi	r18, 0x01	; 1
     4fc:	30 40       	sbci	r19, 0x00	; 0
     4fe:	c9 01       	movw	r24, r18
     500:	08 95       	ret

00000502 <plcs_GetNCPMessage>:
     502:	ef 92       	push	r14
     504:	ff 92       	push	r15
     506:	0f 93       	push	r16
     508:	cf 93       	push	r28
     50a:	df 93       	push	r29
     50c:	ec 01       	movw	r28, r24
     50e:	79 01       	movw	r14, r18
     510:	80 91 12 03 	lds	r24, 0x0312
     514:	90 91 13 03 	lds	r25, 0x0313
     518:	01 96       	adiw	r24, 0x01	; 1
     51a:	90 93 13 03 	sts	0x0313, r25
     51e:	80 93 12 03 	sts	0x0312, r24
     522:	01 97       	sbiw	r24, 0x01	; 1
     524:	20 e8       	ldi	r18, 0x80	; 128
     526:	28 83       	st	Y, r18
     528:	21 e0       	ldi	r18, 0x01	; 1
     52a:	29 83       	std	Y+1, r18	; 0x01
     52c:	9a 83       	std	Y+2, r25	; 0x02
     52e:	8b 83       	std	Y+3, r24	; 0x03
     530:	7c 83       	std	Y+4, r23	; 0x04
     532:	6d 83       	std	Y+5, r22	; 0x05
     534:	5e 83       	std	Y+6, r21	; 0x06
     536:	4f 83       	std	Y+7, r20	; 0x07
     538:	40 e0       	ldi	r20, 0x00	; 0
     53a:	50 e0       	ldi	r21, 0x00	; 0
     53c:	60 2f       	mov	r22, r16
     53e:	70 e0       	ldi	r23, 0x00	; 0
     540:	0a c0       	rjmp	.+20     	; 0x556 <plcs_GetNCPMessage+0x54>
     542:	fe 01       	movw	r30, r28
     544:	e8 0f       	add	r30, r24
     546:	f1 1d       	adc	r31, r1
     548:	d7 01       	movw	r26, r14
     54a:	a4 0f       	add	r26, r20
     54c:	b5 1f       	adc	r27, r21
     54e:	8c 91       	ld	r24, X
     550:	80 83       	st	Z, r24
     552:	4f 5f       	subi	r20, 0xFF	; 255
     554:	5f 4f       	sbci	r21, 0xFF	; 255
     556:	84 2f       	mov	r24, r20
     558:	88 5f       	subi	r24, 0xF8	; 248
     55a:	46 17       	cp	r20, r22
     55c:	57 07       	cpc	r21, r23
     55e:	8c f3       	brlt	.-30     	; 0x542 <plcs_GetNCPMessage+0x40>
     560:	80 2f       	mov	r24, r16
     562:	88 5f       	subi	r24, 0xF8	; 248
     564:	df 91       	pop	r29
     566:	cf 91       	pop	r28
     568:	0f 91       	pop	r16
     56a:	ff 90       	pop	r15
     56c:	ef 90       	pop	r14
     56e:	08 95       	ret

00000570 <ncp_SendRegisterReq>:
     570:	ef 92       	push	r14
     572:	ff 92       	push	r15
     574:	0f 93       	push	r16
     576:	df 93       	push	r29
     578:	cf 93       	push	r28
     57a:	cd b7       	in	r28, 0x3d	; 61
     57c:	de b7       	in	r29, 0x3e	; 62
     57e:	2a 97       	sbiw	r28, 0x0a	; 10
     580:	0f b6       	in	r0, 0x3f	; 63
     582:	f8 94       	cli
     584:	de bf       	out	0x3e, r29	; 62
     586:	0f be       	out	0x3f, r0	; 63
     588:	cd bf       	out	0x3d, r28	; 61
     58a:	81 e1       	ldi	r24, 0x11	; 17
     58c:	89 83       	std	Y+1, r24	; 0x01
     58e:	80 e2       	ldi	r24, 0x20	; 32
     590:	8a 83       	std	Y+2, r24	; 0x02
     592:	80 e5       	ldi	r24, 0x50	; 80
     594:	8b 83       	std	Y+3, r24	; 0x03
     596:	81 e0       	ldi	r24, 0x01	; 1
     598:	8c 83       	std	Y+4, r24	; 0x04
     59a:	8d 83       	std	Y+5, r24	; 0x05
     59c:	8a ef       	ldi	r24, 0xFA	; 250
     59e:	e8 2e       	mov	r14, r24
     5a0:	83 e0       	ldi	r24, 0x03	; 3
     5a2:	f8 2e       	mov	r15, r24
     5a4:	40 91 96 03 	lds	r20, 0x0396
     5a8:	50 91 97 03 	lds	r21, 0x0397
     5ac:	c7 01       	movw	r24, r14
     5ae:	60 e0       	ldi	r22, 0x00	; 0
     5b0:	70 e0       	ldi	r23, 0x00	; 0
     5b2:	9e 01       	movw	r18, r28
     5b4:	2f 5f       	subi	r18, 0xFF	; 255
     5b6:	3f 4f       	sbci	r19, 0xFF	; 255
     5b8:	05 e0       	ldi	r16, 0x05	; 5
     5ba:	0e 94 81 02 	call	0x502	; 0x502 <plcs_GetNCPMessage>
     5be:	48 2f       	mov	r20, r24
     5c0:	80 e0       	ldi	r24, 0x00	; 0
     5c2:	90 e0       	ldi	r25, 0x00	; 0
     5c4:	b7 01       	movw	r22, r14
     5c6:	50 e0       	ldi	r21, 0x00	; 0
     5c8:	0e 94 37 09 	call	0x126e	; 0x126e <sendToZigbeeSA>
     5cc:	2a 96       	adiw	r28, 0x0a	; 10
     5ce:	0f b6       	in	r0, 0x3f	; 63
     5d0:	f8 94       	cli
     5d2:	de bf       	out	0x3e, r29	; 62
     5d4:	0f be       	out	0x3f, r0	; 63
     5d6:	cd bf       	out	0x3d, r28	; 61
     5d8:	cf 91       	pop	r28
     5da:	df 91       	pop	r29
     5dc:	0f 91       	pop	r16
     5de:	ff 90       	pop	r15
     5e0:	ef 90       	pop	r14
     5e2:	08 95       	ret

000005e4 <ncp_SendPingReq>:
     5e4:	0f 93       	push	r16
     5e6:	df 93       	push	r29
     5e8:	cf 93       	push	r28
     5ea:	cd b7       	in	r28, 0x3d	; 61
     5ec:	de b7       	in	r29, 0x3e	; 62
     5ee:	2a 97       	sbiw	r28, 0x0a	; 10
     5f0:	0f b6       	in	r0, 0x3f	; 63
     5f2:	f8 94       	cli
     5f4:	de bf       	out	0x3e, r29	; 62
     5f6:	0f be       	out	0x3f, r0	; 63
     5f8:	cd bf       	out	0x3d, r28	; 61
     5fa:	80 91 11 03 	lds	r24, 0x0311
     5fe:	8f 5f       	subi	r24, 0xFF	; 255
     600:	80 93 11 03 	sts	0x0311, r24
     604:	81 e0       	ldi	r24, 0x01	; 1
     606:	89 83       	std	Y+1, r24	; 0x01
     608:	1a 82       	std	Y+2, r1	; 0x02
     60a:	1b 82       	std	Y+3, r1	; 0x03
     60c:	40 91 96 03 	lds	r20, 0x0396
     610:	50 91 97 03 	lds	r21, 0x0397
     614:	8a ef       	ldi	r24, 0xFA	; 250
     616:	93 e0       	ldi	r25, 0x03	; 3
     618:	60 e0       	ldi	r22, 0x00	; 0
     61a:	70 e0       	ldi	r23, 0x00	; 0
     61c:	9e 01       	movw	r18, r28
     61e:	2f 5f       	subi	r18, 0xFF	; 255
     620:	3f 4f       	sbci	r19, 0xFF	; 255
     622:	03 e0       	ldi	r16, 0x03	; 3
     624:	0e 94 81 02 	call	0x502	; 0x502 <plcs_GetNCPMessage>
     628:	48 2f       	mov	r20, r24
     62a:	80 91 11 03 	lds	r24, 0x0311
     62e:	84 30       	cpi	r24, 0x04	; 4
     630:	20 f0       	brcs	.+8      	; 0x63a <ncp_SendPingReq+0x56>
     632:	10 92 10 03 	sts	0x0310, r1
     636:	10 92 11 03 	sts	0x0311, r1
     63a:	80 e0       	ldi	r24, 0x00	; 0
     63c:	90 e0       	ldi	r25, 0x00	; 0
     63e:	6a ef       	ldi	r22, 0xFA	; 250
     640:	73 e0       	ldi	r23, 0x03	; 3
     642:	50 e0       	ldi	r21, 0x00	; 0
     644:	0e 94 37 09 	call	0x126e	; 0x126e <sendToZigbeeSA>
     648:	2a 96       	adiw	r28, 0x0a	; 10
     64a:	0f b6       	in	r0, 0x3f	; 63
     64c:	f8 94       	cli
     64e:	de bf       	out	0x3e, r29	; 62
     650:	0f be       	out	0x3f, r0	; 63
     652:	cd bf       	out	0x3d, r28	; 61
     654:	cf 91       	pop	r28
     656:	df 91       	pop	r29
     658:	0f 91       	pop	r16
     65a:	08 95       	ret

0000065c <ncp_ProcessPingResFromZigbee>:
     65c:	1f 93       	push	r17
     65e:	fa 01       	movw	r30, r20
     660:	12 85       	ldd	r17, Z+10	; 0x0a
     662:	8a e0       	ldi	r24, 0x0A	; 10
     664:	90 e0       	ldi	r25, 0x00	; 0
     666:	40 ec       	ldi	r20, 0xC0	; 192
     668:	54 ed       	ldi	r21, 0xD4	; 212
     66a:	61 e0       	ldi	r22, 0x01	; 1
     66c:	70 e0       	ldi	r23, 0x00	; 0
     66e:	0e 94 5b 03 	call	0x6b6	; 0x6b6 <timer_set>
     672:	11 30       	cpi	r17, 0x01	; 1
     674:	11 f4       	brne	.+4      	; 0x67a <ncp_ProcessPingResFromZigbee+0x1e>
     676:	10 92 10 03 	sts	0x0310, r1
     67a:	10 92 11 03 	sts	0x0311, r1
     67e:	1f 91       	pop	r17
     680:	08 95       	ret

00000682 <NCP_ProcessMessageFromZigbee>:
     682:	fa 01       	movw	r30, r20
     684:	40 85       	ldd	r20, Z+8	; 0x08
     686:	42 30       	cpi	r20, 0x02	; 2
     688:	19 f0       	breq	.+6      	; 0x690 <NCP_ProcessMessageFromZigbee+0xe>
     68a:	42 31       	cpi	r20, 0x12	; 18
     68c:	99 f4       	brne	.+38     	; 0x6b4 <NCP_ProcessMessageFromZigbee+0x32>
     68e:	04 c0       	rjmp	.+8      	; 0x698 <NCP_ProcessMessageFromZigbee+0x16>
     690:	af 01       	movw	r20, r30
     692:	0e 94 2e 03 	call	0x65c	; 0x65c <ncp_ProcessPingResFromZigbee>
     696:	08 95       	ret
     698:	91 85       	ldd	r25, Z+9	; 0x09
     69a:	80 e0       	ldi	r24, 0x00	; 0
     69c:	22 85       	ldd	r18, Z+10	; 0x0a
     69e:	30 e0       	ldi	r19, 0x00	; 0
     6a0:	82 2b       	or	r24, r18
     6a2:	93 2b       	or	r25, r19
     6a4:	89 2b       	or	r24, r25
     6a6:	21 f4       	brne	.+8      	; 0x6b0 <NCP_ProcessMessageFromZigbee+0x2e>
     6a8:	81 e0       	ldi	r24, 0x01	; 1
     6aa:	80 93 10 03 	sts	0x0310, r24
     6ae:	08 95       	ret
     6b0:	10 92 10 03 	sts	0x0310, r1
     6b4:	08 95       	ret

000006b6 <timer_set>:
     6b6:	8f 30       	cpi	r24, 0x0F	; 15
     6b8:	91 05       	cpc	r25, r1
     6ba:	78 f4       	brcc	.+30     	; 0x6da <timer_set+0x24>
     6bc:	fc 01       	movw	r30, r24
     6be:	ee 0f       	add	r30, r30
     6c0:	ff 1f       	adc	r31, r31
     6c2:	ee 0f       	add	r30, r30
     6c4:	ff 1f       	adc	r31, r31
     6c6:	e8 0f       	add	r30, r24
     6c8:	f9 1f       	adc	r31, r25
     6ca:	e2 5c       	subi	r30, 0xC2	; 194
     6cc:	fb 4f       	sbci	r31, 0xFB	; 251
     6ce:	41 83       	std	Z+1, r20	; 0x01
     6d0:	52 83       	std	Z+2, r21	; 0x02
     6d2:	63 83       	std	Z+3, r22	; 0x03
     6d4:	74 83       	std	Z+4, r23	; 0x04
     6d6:	81 e0       	ldi	r24, 0x01	; 1
     6d8:	80 83       	st	Z, r24
     6da:	80 e0       	ldi	r24, 0x00	; 0
     6dc:	90 e0       	ldi	r25, 0x00	; 0
     6de:	08 95       	ret

000006e0 <timer_get>:
     6e0:	8f 30       	cpi	r24, 0x0F	; 15
     6e2:	91 05       	cpc	r25, r1
     6e4:	b0 f4       	brcc	.+44     	; 0x712 <timer_get+0x32>
     6e6:	fc 01       	movw	r30, r24
     6e8:	ee 0f       	add	r30, r30
     6ea:	ff 1f       	adc	r31, r31
     6ec:	ee 0f       	add	r30, r30
     6ee:	ff 1f       	adc	r31, r31
     6f0:	e8 0f       	add	r30, r24
     6f2:	f9 1f       	adc	r31, r25
     6f4:	e2 5c       	subi	r30, 0xC2	; 194
     6f6:	fb 4f       	sbci	r31, 0xFB	; 251
     6f8:	80 81       	ld	r24, Z
     6fa:	88 23       	and	r24, r24
     6fc:	51 f0       	breq	.+20     	; 0x712 <timer_get+0x32>
     6fe:	20 e0       	ldi	r18, 0x00	; 0
     700:	30 e0       	ldi	r19, 0x00	; 0
     702:	81 81       	ldd	r24, Z+1	; 0x01
     704:	92 81       	ldd	r25, Z+2	; 0x02
     706:	a3 81       	ldd	r26, Z+3	; 0x03
     708:	b4 81       	ldd	r27, Z+4	; 0x04
     70a:	00 97       	sbiw	r24, 0x00	; 0
     70c:	a1 05       	cpc	r26, r1
     70e:	b1 05       	cpc	r27, r1
     710:	11 f0       	breq	.+4      	; 0x716 <timer_get+0x36>
     712:	21 e0       	ldi	r18, 0x01	; 1
     714:	30 e0       	ldi	r19, 0x00	; 0
     716:	c9 01       	movw	r24, r18
     718:	08 95       	ret

0000071a <timer_clear>:
     71a:	8f 30       	cpi	r24, 0x0F	; 15
     71c:	91 05       	cpc	r25, r1
     71e:	50 f4       	brcc	.+20     	; 0x734 <timer_clear+0x1a>
     720:	fc 01       	movw	r30, r24
     722:	ee 0f       	add	r30, r30
     724:	ff 1f       	adc	r31, r31
     726:	ee 0f       	add	r30, r30
     728:	ff 1f       	adc	r31, r31
     72a:	e8 0f       	add	r30, r24
     72c:	f9 1f       	adc	r31, r25
     72e:	e2 5c       	subi	r30, 0xC2	; 194
     730:	fb 4f       	sbci	r31, 0xFB	; 251
     732:	10 82       	st	Z, r1
     734:	80 e0       	ldi	r24, 0x00	; 0
     736:	90 e0       	ldi	r25, 0x00	; 0
     738:	08 95       	ret

0000073a <timer_init>:
     73a:	f8 94       	cli
     73c:	ee e3       	ldi	r30, 0x3E	; 62
     73e:	f4 e0       	ldi	r31, 0x04	; 4
     740:	10 82       	st	Z, r1
     742:	11 82       	std	Z+1, r1	; 0x01
     744:	12 82       	std	Z+2, r1	; 0x02
     746:	13 82       	std	Z+3, r1	; 0x03
     748:	14 82       	std	Z+4, r1	; 0x04
     74a:	35 96       	adiw	r30, 0x05	; 5
     74c:	84 e0       	ldi	r24, 0x04	; 4
     74e:	e9 38       	cpi	r30, 0x89	; 137
     750:	f8 07       	cpc	r31, r24
     752:	b1 f7       	brne	.-20     	; 0x740 <timer_init+0x6>
     754:	16 bc       	out	0x26, r1	; 38
     756:	14 bc       	out	0x24, r1	; 36
     758:	84 e0       	ldi	r24, 0x04	; 4
     75a:	85 bd       	out	0x25, r24	; 37
     75c:	8f e1       	ldi	r24, 0x1F	; 31
     75e:	87 bd       	out	0x27, r24	; 39
     760:	80 91 6e 00 	lds	r24, 0x006E
     764:	82 60       	ori	r24, 0x02	; 2
     766:	80 93 6e 00 	sts	0x006E, r24
     76a:	78 94       	sei
     76c:	08 95       	ret

0000076e <__vector_14>:
     76e:	1f 92       	push	r1
     770:	0f 92       	push	r0
     772:	0f b6       	in	r0, 0x3f	; 63
     774:	0f 92       	push	r0
     776:	11 24       	eor	r1, r1
     778:	8f 93       	push	r24
     77a:	9f 93       	push	r25
     77c:	af 93       	push	r26
     77e:	bf 93       	push	r27
     780:	ef 93       	push	r30
     782:	ff 93       	push	r31
     784:	80 91 3a 04 	lds	r24, 0x043A
     788:	90 91 3b 04 	lds	r25, 0x043B
     78c:	a0 91 3c 04 	lds	r26, 0x043C
     790:	b0 91 3d 04 	lds	r27, 0x043D
     794:	01 96       	adiw	r24, 0x01	; 1
     796:	a1 1d       	adc	r26, r1
     798:	b1 1d       	adc	r27, r1
     79a:	80 93 3a 04 	sts	0x043A, r24
     79e:	90 93 3b 04 	sts	0x043B, r25
     7a2:	a0 93 3c 04 	sts	0x043C, r26
     7a6:	b0 93 3d 04 	sts	0x043D, r27
     7aa:	ef e3       	ldi	r30, 0x3F	; 63
     7ac:	f4 e0       	ldi	r31, 0x04	; 4
     7ae:	80 81       	ld	r24, Z
     7b0:	91 81       	ldd	r25, Z+1	; 0x01
     7b2:	a2 81       	ldd	r26, Z+2	; 0x02
     7b4:	b3 81       	ldd	r27, Z+3	; 0x03
     7b6:	00 97       	sbiw	r24, 0x00	; 0
     7b8:	a1 05       	cpc	r26, r1
     7ba:	b1 05       	cpc	r27, r1
     7bc:	39 f0       	breq	.+14     	; 0x7cc <__vector_14+0x5e>
     7be:	01 97       	sbiw	r24, 0x01	; 1
     7c0:	a1 09       	sbc	r26, r1
     7c2:	b1 09       	sbc	r27, r1
     7c4:	80 83       	st	Z, r24
     7c6:	91 83       	std	Z+1, r25	; 0x01
     7c8:	a2 83       	std	Z+2, r26	; 0x02
     7ca:	b3 83       	std	Z+3, r27	; 0x03
     7cc:	35 96       	adiw	r30, 0x05	; 5
     7ce:	84 e0       	ldi	r24, 0x04	; 4
     7d0:	ea 38       	cpi	r30, 0x8A	; 138
     7d2:	f8 07       	cpc	r31, r24
     7d4:	61 f7       	brne	.-40     	; 0x7ae <__vector_14+0x40>
     7d6:	16 bc       	out	0x26, r1	; 38
     7d8:	ff 91       	pop	r31
     7da:	ef 91       	pop	r30
     7dc:	bf 91       	pop	r27
     7de:	af 91       	pop	r26
     7e0:	9f 91       	pop	r25
     7e2:	8f 91       	pop	r24
     7e4:	0f 90       	pop	r0
     7e6:	0f be       	out	0x3f, r0	; 63
     7e8:	0f 90       	pop	r0
     7ea:	1f 90       	pop	r1
     7ec:	18 95       	reti

000007ee <InitUART>:
     7ee:	10 92 c0 00 	sts	0x00C0, r1
     7f2:	88 e9       	ldi	r24, 0x98	; 152
     7f4:	80 93 c1 00 	sts	0x00C1, r24
     7f8:	86 e0       	ldi	r24, 0x06	; 6
     7fa:	80 93 c2 00 	sts	0x00C2, r24
     7fe:	10 92 c5 00 	sts	0x00C5, r1
     802:	83 e3       	ldi	r24, 0x33	; 51
     804:	80 93 c4 00 	sts	0x00C4, r24
     808:	51 9a       	sbi	0x0a, 1	; 10
     80a:	50 98       	cbi	0x0a, 0	; 10
     80c:	58 9a       	sbi	0x0b, 0	; 11
     80e:	08 95       	ret

00000810 <__vector_18>:
     810:	1f 92       	push	r1
     812:	0f 92       	push	r0
     814:	0f b6       	in	r0, 0x3f	; 63
     816:	0f 92       	push	r0
     818:	11 24       	eor	r1, r1
     81a:	2f 93       	push	r18
     81c:	8f 93       	push	r24
     81e:	9f 93       	push	r25
     820:	ef 93       	push	r30
     822:	ff 93       	push	r31
     824:	f8 94       	cli
     826:	80 91 c0 00 	lds	r24, 0x00C0
     82a:	87 ff       	sbrs	r24, 7
     82c:	fc cf       	rjmp	.-8      	; 0x826 <__vector_18+0x16>
     82e:	80 93 ca 04 	sts	0x04CA, r24
     832:	20 91 c6 00 	lds	r18, 0x00C6
     836:	20 93 89 04 	sts	0x0489, r18
     83a:	80 91 15 03 	lds	r24, 0x0315
     83e:	90 e0       	ldi	r25, 0x00	; 0
     840:	fc 01       	movw	r30, r24
     842:	e6 57       	subi	r30, 0x76	; 118
     844:	fb 4f       	sbci	r31, 0xFB	; 251
     846:	20 83       	st	Z, r18
     848:	01 96       	adiw	r24, 0x01	; 1
     84a:	8f 73       	andi	r24, 0x3F	; 63
     84c:	90 70       	andi	r25, 0x00	; 0
     84e:	80 93 15 03 	sts	0x0315, r24
     852:	80 91 16 03 	lds	r24, 0x0316
     856:	8f 5f       	subi	r24, 0xFF	; 255
     858:	80 93 16 03 	sts	0x0316, r24
     85c:	78 94       	sei
     85e:	ff 91       	pop	r31
     860:	ef 91       	pop	r30
     862:	9f 91       	pop	r25
     864:	8f 91       	pop	r24
     866:	2f 91       	pop	r18
     868:	0f 90       	pop	r0
     86a:	0f be       	out	0x3f, r0	; 63
     86c:	0f 90       	pop	r0
     86e:	1f 90       	pop	r1
     870:	18 95       	reti

00000872 <USART_Receive>:
     872:	dc 01       	movw	r26, r24
     874:	f8 94       	cli
     876:	80 91 16 03 	lds	r24, 0x0316
     87a:	88 23       	and	r24, r24
     87c:	b1 f0       	breq	.+44     	; 0x8aa <USART_Receive+0x38>
     87e:	81 50       	subi	r24, 0x01	; 1
     880:	80 93 16 03 	sts	0x0316, r24
     884:	78 94       	sei
     886:	e0 91 14 03 	lds	r30, 0x0314
     88a:	f0 e0       	ldi	r31, 0x00	; 0
     88c:	e6 57       	subi	r30, 0x76	; 118
     88e:	fb 4f       	sbci	r31, 0xFB	; 251
     890:	80 81       	ld	r24, Z
     892:	8c 93       	st	X, r24
     894:	80 91 14 03 	lds	r24, 0x0314
     898:	90 e0       	ldi	r25, 0x00	; 0
     89a:	01 96       	adiw	r24, 0x01	; 1
     89c:	8f 73       	andi	r24, 0x3F	; 63
     89e:	90 70       	andi	r25, 0x00	; 0
     8a0:	80 93 14 03 	sts	0x0314, r24
     8a4:	21 e0       	ldi	r18, 0x01	; 1
     8a6:	30 e0       	ldi	r19, 0x00	; 0
     8a8:	03 c0       	rjmp	.+6      	; 0x8b0 <USART_Receive+0x3e>
     8aa:	78 94       	sei
     8ac:	20 e0       	ldi	r18, 0x00	; 0
     8ae:	30 e0       	ldi	r19, 0x00	; 0
     8b0:	c9 01       	movw	r24, r18
     8b2:	08 95       	ret

000008b4 <USART_Transmit>:
     8b4:	98 2f       	mov	r25, r24
     8b6:	80 91 c0 00 	lds	r24, 0x00C0
     8ba:	85 ff       	sbrs	r24, 5
     8bc:	fc cf       	rjmp	.-8      	; 0x8b6 <USART_Transmit+0x2>
     8be:	90 93 c6 00 	sts	0x00C6, r25
     8c2:	81 e0       	ldi	r24, 0x01	; 1
     8c4:	90 e0       	ldi	r25, 0x00	; 0
     8c6:	08 95       	ret

000008c8 <XNetHandler>:
     8c8:	6f 92       	push	r6
     8ca:	7f 92       	push	r7
     8cc:	8f 92       	push	r8
     8ce:	9f 92       	push	r9
     8d0:	af 92       	push	r10
     8d2:	bf 92       	push	r11
     8d4:	cf 92       	push	r12
     8d6:	df 92       	push	r13
     8d8:	ef 92       	push	r14
     8da:	ff 92       	push	r15
     8dc:	0f 93       	push	r16
     8de:	1f 93       	push	r17
     8e0:	df 93       	push	r29
     8e2:	cf 93       	push	r28
     8e4:	cd b7       	in	r28, 0x3d	; 61
     8e6:	de b7       	in	r29, 0x3e	; 62
     8e8:	6c 01       	movw	r12, r24
     8ea:	5b 01       	movw	r10, r22
     8ec:	6d b6       	in	r6, 0x3d	; 61
     8ee:	7e b6       	in	r7, 0x3e	; 62
     8f0:	fc 01       	movw	r30, r24
     8f2:	80 81       	ld	r24, Z
     8f4:	8b 32       	cpi	r24, 0x2B	; 43
     8f6:	09 f0       	breq	.+2      	; 0x8fa <XNetHandler+0x32>
     8f8:	57 c0       	rjmp	.+174    	; 0x9a8 <__stack+0xa9>
     8fa:	62 31       	cpi	r22, 0x12	; 18
     8fc:	71 05       	cpc	r23, r1
     8fe:	0c f4       	brge	.+2      	; 0x902 <__stack+0x3>
     900:	53 c0       	rjmp	.+166    	; 0x9a8 <__stack+0xa9>
     902:	c6 01       	movw	r24, r12
     904:	62 e0       	ldi	r22, 0x02	; 2
     906:	71 e0       	ldi	r23, 0x01	; 1
     908:	4d e0       	ldi	r20, 0x0D	; 13
     90a:	50 e0       	ldi	r21, 0x00	; 0
     90c:	0e 94 98 13 	call	0x2730	; 0x2730 <strncmp>
     910:	00 97       	sbiw	r24, 0x00	; 0
     912:	09 f0       	breq	.+2      	; 0x916 <__stack+0x17>
     914:	49 c0       	rjmp	.+146    	; 0x9a8 <__stack+0xa9>
     916:	c6 01       	movw	r24, r12
     918:	0d 96       	adiw	r24, 0x0d	; 13
     91a:	0e 94 2b 10 	call	0x2056	; 0x2056 <toUint16>
     91e:	4c 01       	movw	r8, r24
     920:	c5 01       	movw	r24, r10
     922:	42 97       	sbiw	r24, 0x12	; 18
     924:	95 95       	asr	r25
     926:	87 95       	ror	r24
     928:	2d b7       	in	r18, 0x3d	; 61
     92a:	3e b7       	in	r19, 0x3e	; 62
     92c:	28 1b       	sub	r18, r24
     92e:	39 0b       	sbc	r19, r25
     930:	0f b6       	in	r0, 0x3f	; 63
     932:	f8 94       	cli
     934:	3e bf       	out	0x3e, r19	; 62
     936:	0f be       	out	0x3f, r0	; 63
     938:	2d bf       	out	0x3d, r18	; 61
     93a:	0d b7       	in	r16, 0x3d	; 61
     93c:	1e b7       	in	r17, 0x3e	; 62
     93e:	0f 5f       	subi	r16, 0xFF	; 255
     940:	1f 4f       	sbci	r17, 0xFF	; 255
     942:	88 e1       	ldi	r24, 0x18	; 24
     944:	f8 2e       	mov	r15, r24
     946:	ee 24       	eor	r14, r14
     948:	0b c0       	rjmp	.+22     	; 0x960 <__stack+0x61>
     94a:	8c 0d       	add	r24, r12
     94c:	9d 1d       	adc	r25, r13
     94e:	0e 94 5a 10 	call	0x20b4	; 0x20b4 <toUint8>
     952:	f8 01       	movw	r30, r16
     954:	ee 0d       	add	r30, r14
     956:	f1 1d       	adc	r31, r1
     958:	80 83       	st	Z, r24
     95a:	e3 94       	inc	r14
     95c:	32 e0       	ldi	r19, 0x02	; 2
     95e:	f3 0e       	add	r15, r19
     960:	8f 2d       	mov	r24, r15
     962:	90 e0       	ldi	r25, 0x00	; 0
     964:	8a 15       	cp	r24, r10
     966:	9b 05       	cpc	r25, r11
     968:	84 f3       	brlt	.-32     	; 0x94a <__stack+0x4b>
     96a:	f8 01       	movw	r30, r16
     96c:	31 81       	ldd	r19, Z+1	; 0x01
     96e:	24 81       	ldd	r18, Z+4	; 0x04
     970:	65 81       	ldd	r22, Z+5	; 0x05
     972:	80 81       	ld	r24, Z
     974:	80 38       	cpi	r24, 0x80	; 128
     976:	d1 f4       	brne	.+52     	; 0x9ac <__stack+0xad>
     978:	92 2f       	mov	r25, r18
     97a:	80 e0       	ldi	r24, 0x00	; 0
     97c:	70 e0       	ldi	r23, 0x00	; 0
     97e:	68 2b       	or	r22, r24
     980:	79 2b       	or	r23, r25
     982:	31 30       	cpi	r19, 0x01	; 1
     984:	19 f0       	breq	.+6      	; 0x98c <__stack+0x8d>
     986:	31 32       	cpi	r19, 0x21	; 33
     988:	89 f4       	brne	.+34     	; 0x9ac <__stack+0xad>
     98a:	07 c0       	rjmp	.+14     	; 0x99a <__stack+0x9b>
     98c:	c4 01       	movw	r24, r8
     98e:	a8 01       	movw	r20, r16
     990:	2e 2d       	mov	r18, r14
     992:	30 e0       	ldi	r19, 0x00	; 0
     994:	0e 94 41 03 	call	0x682	; 0x682 <NCP_ProcessMessageFromZigbee>
     998:	09 c0       	rjmp	.+18     	; 0x9ac <__stack+0xad>
     99a:	c4 01       	movw	r24, r8
     99c:	a8 01       	movw	r20, r16
     99e:	2e 2d       	mov	r18, r14
     9a0:	30 e0       	ldi	r19, 0x00	; 0
     9a2:	0e 94 46 02 	call	0x48c	; 0x48c <GCP_ProcessMessageFromZigbee>
     9a6:	02 c0       	rjmp	.+4      	; 0x9ac <__stack+0xad>
     9a8:	80 e0       	ldi	r24, 0x00	; 0
     9aa:	01 c0       	rjmp	.+2      	; 0x9ae <__stack+0xaf>
     9ac:	81 e0       	ldi	r24, 0x01	; 1
     9ae:	0f b6       	in	r0, 0x3f	; 63
     9b0:	f8 94       	cli
     9b2:	7e be       	out	0x3e, r7	; 62
     9b4:	0f be       	out	0x3f, r0	; 63
     9b6:	6d be       	out	0x3d, r6	; 61
     9b8:	cf 91       	pop	r28
     9ba:	df 91       	pop	r29
     9bc:	1f 91       	pop	r17
     9be:	0f 91       	pop	r16
     9c0:	ff 90       	pop	r15
     9c2:	ef 90       	pop	r14
     9c4:	df 90       	pop	r13
     9c6:	cf 90       	pop	r12
     9c8:	bf 90       	pop	r11
     9ca:	af 90       	pop	r10
     9cc:	9f 90       	pop	r9
     9ce:	8f 90       	pop	r8
     9d0:	7f 90       	pop	r7
     9d2:	6f 90       	pop	r6
     9d4:	08 95       	ret

000009d6 <xcps_init_zigbee>:
     9d6:	90 93 1c 03 	sts	0x031C, r25
     9da:	80 93 1b 03 	sts	0x031B, r24
     9de:	70 93 1e 03 	sts	0x031E, r23
     9e2:	60 93 1d 03 	sts	0x031D, r22
     9e6:	80 e0       	ldi	r24, 0x00	; 0
     9e8:	90 e0       	ldi	r25, 0x00	; 0
     9ea:	08 95       	ret

000009ec <xcps_send_zigbee>:
     9ec:	ef 92       	push	r14
     9ee:	ff 92       	push	r15
     9f0:	1f 93       	push	r17
     9f2:	cf 93       	push	r28
     9f4:	df 93       	push	r29
     9f6:	7c 01       	movw	r14, r24
     9f8:	eb 01       	movw	r28, r22
     9fa:	10 e0       	ldi	r17, 0x00	; 0
     9fc:	09 c0       	rjmp	.+18     	; 0xa10 <xcps_send_zigbee+0x24>
     9fe:	ae 0d       	add	r26, r14
     a00:	bf 1d       	adc	r27, r15
     a02:	e0 91 1d 03 	lds	r30, 0x031D
     a06:	f0 91 1e 03 	lds	r31, 0x031E
     a0a:	8c 91       	ld	r24, X
     a0c:	09 95       	icall
     a0e:	1f 5f       	subi	r17, 0xFF	; 255
     a10:	a1 2f       	mov	r26, r17
     a12:	b0 e0       	ldi	r27, 0x00	; 0
     a14:	ac 17       	cp	r26, r28
     a16:	bd 07       	cpc	r27, r29
     a18:	94 f3       	brlt	.-28     	; 0x9fe <xcps_send_zigbee+0x12>
     a1a:	80 e0       	ldi	r24, 0x00	; 0
     a1c:	90 e0       	ldi	r25, 0x00	; 0
     a1e:	df 91       	pop	r29
     a20:	cf 91       	pop	r28
     a22:	1f 91       	pop	r17
     a24:	ff 90       	pop	r15
     a26:	ef 90       	pop	r14
     a28:	08 95       	ret

00000a2a <xcps_recv_zigbee>:
     a2a:	cf 92       	push	r12
     a2c:	df 92       	push	r13
     a2e:	ef 92       	push	r14
     a30:	ff 92       	push	r15
     a32:	0f 93       	push	r16
     a34:	1f 93       	push	r17
     a36:	df 93       	push	r29
     a38:	cf 93       	push	r28
     a3a:	0f 92       	push	r0
     a3c:	cd b7       	in	r28, 0x3d	; 61
     a3e:	de b7       	in	r29, 0x3e	; 62
     a40:	6c 01       	movw	r12, r24
     a42:	8b 01       	movw	r16, r22
     a44:	e0 91 1b 03 	lds	r30, 0x031B
     a48:	f0 91 1c 03 	lds	r31, 0x031C
     a4c:	30 97       	sbiw	r30, 0x00	; 0
     a4e:	19 f4       	brne	.+6      	; 0xa56 <xcps_recv_zigbee+0x2c>
     a50:	2f ef       	ldi	r18, 0xFF	; 255
     a52:	3f ef       	ldi	r19, 0xFF	; 255
     a54:	61 c0       	rjmp	.+194    	; 0xb18 <xcps_recv_zigbee+0xee>
     a56:	ce 01       	movw	r24, r28
     a58:	01 96       	adiw	r24, 0x01	; 1
     a5a:	09 95       	icall
     a5c:	18 16       	cp	r1, r24
     a5e:	19 06       	cpc	r1, r25
     a60:	0c f0       	brlt	.+2      	; 0xa64 <xcps_recv_zigbee+0x3a>
     a62:	58 c0       	rjmp	.+176    	; 0xb14 <xcps_recv_zigbee+0xea>
     a64:	80 91 17 03 	lds	r24, 0x0317
     a68:	90 91 18 03 	lds	r25, 0x0318
     a6c:	80 17       	cp	r24, r16
     a6e:	91 07       	cpc	r25, r17
     a70:	24 f0       	brlt	.+8      	; 0xa7a <xcps_recv_zigbee+0x50>
     a72:	10 92 18 03 	sts	0x0318, r1
     a76:	10 92 17 03 	sts	0x0317, r1
     a7a:	29 81       	ldd	r18, Y+1	; 0x01
     a7c:	22 23       	and	r18, r18
     a7e:	09 f4       	brne	.+2      	; 0xa82 <xcps_recv_zigbee+0x58>
     a80:	49 c0       	rjmp	.+146    	; 0xb14 <xcps_recv_zigbee+0xea>
     a82:	80 91 17 03 	lds	r24, 0x0317
     a86:	90 91 18 03 	lds	r25, 0x0318
     a8a:	2a 30       	cpi	r18, 0x0A	; 10
     a8c:	d1 f5       	brne	.+116    	; 0xb02 <xcps_recv_zigbee+0xd8>
     a8e:	fc 01       	movw	r30, r24
     a90:	e5 53       	subi	r30, 0x35	; 53
     a92:	fb 4f       	sbci	r31, 0xFB	; 251
     a94:	20 83       	st	Z, r18
     a96:	01 96       	adiw	r24, 0x01	; 1
     a98:	90 93 18 03 	sts	0x0318, r25
     a9c:	80 93 17 03 	sts	0x0317, r24
     aa0:	ff 24       	eor	r15, r15
     aa2:	ee 24       	eor	r14, r14
     aa4:	e3 94       	inc	r14
     aa6:	1a c0       	rjmp	.+52     	; 0xadc <xcps_recv_zigbee+0xb2>
     aa8:	f9 01       	movw	r30, r18
     aaa:	e5 53       	subi	r30, 0x35	; 53
     aac:	fb 4f       	sbci	r31, 0xFB	; 251
     aae:	e0 81       	ld	r30, Z
     ab0:	04 2f       	mov	r16, r20
     ab2:	10 e0       	ldi	r17, 0x00	; 0
     ab4:	ec 35       	cpi	r30, 0x5C	; 92
     ab6:	61 f4       	brne	.+24     	; 0xad0 <xcps_recv_zigbee+0xa6>
     ab8:	c9 01       	movw	r24, r18
     aba:	84 53       	subi	r24, 0x34	; 52
     abc:	9b 4f       	sbci	r25, 0xFB	; 251
     abe:	0e 94 5a 10 	call	0x20b4	; 0x20b4 <toUint8>
     ac2:	0c 0d       	add	r16, r12
     ac4:	1d 1d       	adc	r17, r13
     ac6:	d8 01       	movw	r26, r16
     ac8:	8c 93       	st	X, r24
     aca:	b2 e0       	ldi	r27, 0x02	; 2
     acc:	fb 0e       	add	r15, r27
     ace:	04 c0       	rjmp	.+8      	; 0xad8 <xcps_recv_zigbee+0xae>
     ad0:	0c 0d       	add	r16, r12
     ad2:	1d 1d       	adc	r17, r13
     ad4:	d8 01       	movw	r26, r16
     ad6:	ec 93       	st	X, r30
     ad8:	f3 94       	inc	r15
     ada:	e3 94       	inc	r14
     adc:	4e 2d       	mov	r20, r14
     ade:	41 50       	subi	r20, 0x01	; 1
     ae0:	2f 2d       	mov	r18, r15
     ae2:	30 e0       	ldi	r19, 0x00	; 0
     ae4:	80 91 17 03 	lds	r24, 0x0317
     ae8:	90 91 18 03 	lds	r25, 0x0318
     aec:	02 97       	sbiw	r24, 0x02	; 2
     aee:	28 17       	cp	r18, r24
     af0:	39 07       	cpc	r19, r25
     af2:	d4 f2       	brlt	.-76     	; 0xaa8 <xcps_recv_zigbee+0x7e>
     af4:	10 92 18 03 	sts	0x0318, r1
     af8:	10 92 17 03 	sts	0x0317, r1
     afc:	24 2f       	mov	r18, r20
     afe:	30 e0       	ldi	r19, 0x00	; 0
     b00:	0b c0       	rjmp	.+22     	; 0xb18 <xcps_recv_zigbee+0xee>
     b02:	fc 01       	movw	r30, r24
     b04:	e5 53       	subi	r30, 0x35	; 53
     b06:	fb 4f       	sbci	r31, 0xFB	; 251
     b08:	20 83       	st	Z, r18
     b0a:	01 96       	adiw	r24, 0x01	; 1
     b0c:	90 93 18 03 	sts	0x0318, r25
     b10:	80 93 17 03 	sts	0x0317, r24
     b14:	20 e0       	ldi	r18, 0x00	; 0
     b16:	30 e0       	ldi	r19, 0x00	; 0
     b18:	c9 01       	movw	r24, r18
     b1a:	0f 90       	pop	r0
     b1c:	cf 91       	pop	r28
     b1e:	df 91       	pop	r29
     b20:	1f 91       	pop	r17
     b22:	0f 91       	pop	r16
     b24:	ff 90       	pop	r15
     b26:	ef 90       	pop	r14
     b28:	df 90       	pop	r13
     b2a:	cf 90       	pop	r12
     b2c:	08 95       	ret

00000b2e <getMessageListSize>:
     b2e:	80 91 25 03 	lds	r24, 0x0325
     b32:	90 91 24 03 	lds	r25, 0x0324
     b36:	89 17       	cp	r24, r25
     b38:	10 f0       	brcs	.+4      	; 0xb3e <getMessageListSize+0x10>
     b3a:	89 1b       	sub	r24, r25
     b3c:	08 95       	ret
     b3e:	89 5f       	subi	r24, 0xF9	; 249
     b40:	89 1b       	sub	r24, r25
     b42:	08 95       	ret

00000b44 <getZigbeeState>:
     b44:	80 91 95 03 	lds	r24, 0x0395
     b48:	08 95       	ret

00000b4a <setZigbeeState>:
     b4a:	80 93 95 03 	sts	0x0395, r24
     b4e:	08 95       	ret

00000b50 <getLastResult>:
     b50:	80 91 21 03 	lds	r24, 0x0321
     b54:	08 95       	ret

00000b56 <sendToZigbee>:
     b56:	cf 92       	push	r12
     b58:	df 92       	push	r13
     b5a:	ef 92       	push	r14
     b5c:	ff 92       	push	r15
     b5e:	1f 93       	push	r17
     b60:	cf 93       	push	r28
     b62:	df 93       	push	r29
     b64:	9c 01       	movw	r18, r24
     b66:	16 2f       	mov	r17, r22
     b68:	f7 2e       	mov	r15, r23
     b6a:	6a 01       	movw	r12, r20
     b6c:	80 91 95 03 	lds	r24, 0x0395
     b70:	82 33       	cpi	r24, 0x32	; 50
     b72:	09 f0       	breq	.+2      	; 0xb76 <sendToZigbee+0x20>
     b74:	66 c0       	rjmp	.+204    	; 0xc42 <sendToZigbee+0xec>
     b76:	10 92 1f 03 	sts	0x031F, r1
     b7a:	00 d0       	rcall	.+0      	; 0xb7c <sendToZigbee+0x26>
     b7c:	00 d0       	rcall	.+0      	; 0xb7e <sendToZigbee+0x28>
     b7e:	00 d0       	rcall	.+0      	; 0xb80 <sendToZigbee+0x2a>
     b80:	ed b7       	in	r30, 0x3d	; 61
     b82:	fe b7       	in	r31, 0x3e	; 62
     b84:	31 96       	adiw	r30, 0x01	; 1
     b86:	88 ec       	ldi	r24, 0xC8	; 200
     b88:	97 e0       	ldi	r25, 0x07	; 7
     b8a:	ad b7       	in	r26, 0x3d	; 61
     b8c:	be b7       	in	r27, 0x3e	; 62
     b8e:	12 96       	adiw	r26, 0x02	; 2
     b90:	9c 93       	st	X, r25
     b92:	8e 93       	st	-X, r24
     b94:	11 97       	sbiw	r26, 0x01	; 1
     b96:	80 e1       	ldi	r24, 0x10	; 16
     b98:	91 e0       	ldi	r25, 0x01	; 1
     b9a:	93 83       	std	Z+3, r25	; 0x03
     b9c:	82 83       	std	Z+2, r24	; 0x02
     b9e:	35 83       	std	Z+5, r19	; 0x05
     ba0:	24 83       	std	Z+4, r18	; 0x04
     ba2:	0e 94 a6 13 	call	0x274c	; 0x274c <sprintf>
     ba6:	80 93 1f 03 	sts	0x031F, r24
     baa:	21 2f       	mov	r18, r17
     bac:	3f 2d       	mov	r19, r15
     bae:	c9 01       	movw	r24, r18
     bb0:	7c 01       	movw	r14, r24
     bb2:	c0 e0       	ldi	r28, 0x00	; 0
     bb4:	d0 e0       	ldi	r29, 0x00	; 0
     bb6:	ed b7       	in	r30, 0x3d	; 61
     bb8:	fe b7       	in	r31, 0x3e	; 62
     bba:	36 96       	adiw	r30, 0x06	; 6
     bbc:	0f b6       	in	r0, 0x3f	; 63
     bbe:	f8 94       	cli
     bc0:	fe bf       	out	0x3e, r31	; 62
     bc2:	0f be       	out	0x3f, r0	; 63
     bc4:	ed bf       	out	0x3d, r30	; 61
     bc6:	1c c0       	rjmp	.+56     	; 0xc00 <sendToZigbee+0xaa>
     bc8:	d7 01       	movw	r26, r14
     bca:	8c 91       	ld	r24, X
     bcc:	82 95       	swap	r24
     bce:	8f 70       	andi	r24, 0x0F	; 15
     bd0:	0e 94 87 10 	call	0x210e	; 0x210e <toHexCharacterOfLowerByte>
     bd4:	e1 2f       	mov	r30, r17
     bd6:	f0 e0       	ldi	r31, 0x00	; 0
     bd8:	e8 53       	subi	r30, 0x38	; 56
     bda:	f8 4f       	sbci	r31, 0xF8	; 248
     bdc:	80 83       	st	Z, r24
     bde:	1f 5f       	subi	r17, 0xFF	; 255
     be0:	10 93 1f 03 	sts	0x031F, r17
     be4:	f7 01       	movw	r30, r14
     be6:	81 91       	ld	r24, Z+
     be8:	7f 01       	movw	r14, r30
     bea:	0e 94 87 10 	call	0x210e	; 0x210e <toHexCharacterOfLowerByte>
     bee:	e1 2f       	mov	r30, r17
     bf0:	f0 e0       	ldi	r31, 0x00	; 0
     bf2:	e8 53       	subi	r30, 0x38	; 56
     bf4:	f8 4f       	sbci	r31, 0xF8	; 248
     bf6:	80 83       	st	Z, r24
     bf8:	1f 5f       	subi	r17, 0xFF	; 255
     bfa:	10 93 1f 03 	sts	0x031F, r17
     bfe:	21 96       	adiw	r28, 0x01	; 1
     c00:	10 91 1f 03 	lds	r17, 0x031F
     c04:	cc 15       	cp	r28, r12
     c06:	dd 05       	cpc	r29, r13
     c08:	fc f2       	brlt	.-66     	; 0xbc8 <sendToZigbee+0x72>
     c0a:	e1 2f       	mov	r30, r17
     c0c:	f0 e0       	ldi	r31, 0x00	; 0
     c0e:	e8 53       	subi	r30, 0x38	; 56
     c10:	f8 4f       	sbci	r31, 0xF8	; 248
     c12:	8d e0       	ldi	r24, 0x0D	; 13
     c14:	80 83       	st	Z, r24
     c16:	61 2f       	mov	r22, r17
     c18:	6f 5f       	subi	r22, 0xFF	; 255
     c1a:	e6 2f       	mov	r30, r22
     c1c:	f0 e0       	ldi	r31, 0x00	; 0
     c1e:	e8 53       	subi	r30, 0x38	; 56
     c20:	f8 4f       	sbci	r31, 0xF8	; 248
     c22:	8a e0       	ldi	r24, 0x0A	; 10
     c24:	80 83       	st	Z, r24
     c26:	6f 5f       	subi	r22, 0xFF	; 255
     c28:	60 93 1f 03 	sts	0x031F, r22
     c2c:	82 e0       	ldi	r24, 0x02	; 2
     c2e:	80 93 21 03 	sts	0x0321, r24
     c32:	83 e3       	ldi	r24, 0x33	; 51
     c34:	80 93 95 03 	sts	0x0395, r24
     c38:	88 ec       	ldi	r24, 0xC8	; 200
     c3a:	97 e0       	ldi	r25, 0x07	; 7
     c3c:	70 e0       	ldi	r23, 0x00	; 0
     c3e:	0e 94 f6 04 	call	0x9ec	; 0x9ec <xcps_send_zigbee>
     c42:	df 91       	pop	r29
     c44:	cf 91       	pop	r28
     c46:	1f 91       	pop	r17
     c48:	ff 90       	pop	r15
     c4a:	ef 90       	pop	r14
     c4c:	df 90       	pop	r13
     c4e:	cf 90       	pop	r12
     c50:	08 95       	ret

00000c52 <ZRMsendDataMode>:
     c52:	0f 93       	push	r16
     c54:	1f 93       	push	r17
     c56:	df 93       	push	r29
     c58:	cf 93       	push	r28
     c5a:	cd b7       	in	r28, 0x3d	; 61
     c5c:	de b7       	in	r29, 0x3e	; 62
     c5e:	64 97       	sbiw	r28, 0x14	; 20
     c60:	0f b6       	in	r0, 0x3f	; 63
     c62:	f8 94       	cli
     c64:	de bf       	out	0x3e, r29	; 62
     c66:	0f be       	out	0x3f, r0	; 63
     c68:	cd bf       	out	0x3d, r28	; 61
     c6a:	00 d0       	rcall	.+0      	; 0xc6c <ZRMsendDataMode+0x1a>
     c6c:	00 d0       	rcall	.+0      	; 0xc6e <ZRMsendDataMode+0x1c>
     c6e:	00 d0       	rcall	.+0      	; 0xc70 <ZRMsendDataMode+0x1e>
     c70:	ed b7       	in	r30, 0x3d	; 61
     c72:	fe b7       	in	r31, 0x3e	; 62
     c74:	31 96       	adiw	r30, 0x01	; 1
     c76:	8e 01       	movw	r16, r28
     c78:	0f 5f       	subi	r16, 0xFF	; 255
     c7a:	1f 4f       	sbci	r17, 0xFF	; 255
     c7c:	ad b7       	in	r26, 0x3d	; 61
     c7e:	be b7       	in	r27, 0x3e	; 62
     c80:	12 96       	adiw	r26, 0x02	; 2
     c82:	1c 93       	st	X, r17
     c84:	0e 93       	st	-X, r16
     c86:	11 97       	sbiw	r26, 0x01	; 1
     c88:	2c e1       	ldi	r18, 0x1C	; 28
     c8a:	31 e0       	ldi	r19, 0x01	; 1
     c8c:	33 83       	std	Z+3, r19	; 0x03
     c8e:	22 83       	std	Z+2, r18	; 0x02
     c90:	95 83       	std	Z+5, r25	; 0x05
     c92:	84 83       	std	Z+4, r24	; 0x04
     c94:	0e 94 a6 13 	call	0x274c	; 0x274c <sprintf>
     c98:	68 2f       	mov	r22, r24
     c9a:	82 e0       	ldi	r24, 0x02	; 2
     c9c:	80 93 21 03 	sts	0x0321, r24
     ca0:	8d b7       	in	r24, 0x3d	; 61
     ca2:	9e b7       	in	r25, 0x3e	; 62
     ca4:	06 96       	adiw	r24, 0x06	; 6
     ca6:	0f b6       	in	r0, 0x3f	; 63
     ca8:	f8 94       	cli
     caa:	9e bf       	out	0x3e, r25	; 62
     cac:	0f be       	out	0x3f, r0	; 63
     cae:	8d bf       	out	0x3d, r24	; 61
     cb0:	c8 01       	movw	r24, r16
     cb2:	70 e0       	ldi	r23, 0x00	; 0
     cb4:	0e 94 f6 04 	call	0x9ec	; 0x9ec <xcps_send_zigbee>
     cb8:	64 96       	adiw	r28, 0x14	; 20
     cba:	0f b6       	in	r0, 0x3f	; 63
     cbc:	f8 94       	cli
     cbe:	de bf       	out	0x3e, r29	; 62
     cc0:	0f be       	out	0x3f, r0	; 63
     cc2:	cd bf       	out	0x3d, r28	; 61
     cc4:	cf 91       	pop	r28
     cc6:	df 91       	pop	r29
     cc8:	1f 91       	pop	r17
     cca:	0f 91       	pop	r16
     ccc:	08 95       	ret

00000cce <ZRMreadSA>:
     cce:	82 e0       	ldi	r24, 0x02	; 2
     cd0:	80 93 21 03 	sts	0x0321, r24
     cd4:	85 e2       	ldi	r24, 0x25	; 37
     cd6:	91 e0       	ldi	r25, 0x01	; 1
     cd8:	66 e0       	ldi	r22, 0x06	; 6
     cda:	70 e0       	ldi	r23, 0x00	; 0
     cdc:	0e 94 f6 04 	call	0x9ec	; 0x9ec <xcps_send_zigbee>
     ce0:	08 95       	ret

00000ce2 <ZRMreadLA>:
     ce2:	82 e0       	ldi	r24, 0x02	; 2
     ce4:	80 93 21 03 	sts	0x0321, r24
     ce8:	8c e2       	ldi	r24, 0x2C	; 44
     cea:	91 e0       	ldi	r25, 0x01	; 1
     cec:	66 e0       	ldi	r22, 0x06	; 6
     cee:	70 e0       	ldi	r23, 0x00	; 0
     cf0:	0e 94 f6 04 	call	0x9ec	; 0x9ec <xcps_send_zigbee>
     cf4:	08 95       	ret

00000cf6 <ZRMsendLeave>:
     cf6:	82 e0       	ldi	r24, 0x02	; 2
     cf8:	80 93 21 03 	sts	0x0321, r24
     cfc:	83 e3       	ldi	r24, 0x33	; 51
     cfe:	91 e0       	ldi	r25, 0x01	; 1
     d00:	69 e0       	ldi	r22, 0x09	; 9
     d02:	70 e0       	ldi	r23, 0x00	; 0
     d04:	0e 94 f6 04 	call	0x9ec	; 0x9ec <xcps_send_zigbee>
     d08:	08 95       	ret

00000d0a <ZRMsendATZ>:
     d0a:	82 e0       	ldi	r24, 0x02	; 2
     d0c:	80 93 21 03 	sts	0x0321, r24
     d10:	8d e3       	ldi	r24, 0x3D	; 61
     d12:	91 e0       	ldi	r25, 0x01	; 1
     d14:	64 e0       	ldi	r22, 0x04	; 4
     d16:	70 e0       	ldi	r23, 0x00	; 0
     d18:	0e 94 f6 04 	call	0x9ec	; 0x9ec <xcps_send_zigbee>
     d1c:	08 95       	ret

00000d1e <ZRMsendPJ>:
     d1e:	82 e0       	ldi	r24, 0x02	; 2
     d20:	80 93 21 03 	sts	0x0321, r24
     d24:	82 e4       	ldi	r24, 0x42	; 66
     d26:	91 e0       	ldi	r25, 0x01	; 1
     d28:	6a e0       	ldi	r22, 0x0A	; 10
     d2a:	70 e0       	ldi	r23, 0x00	; 0
     d2c:	0e 94 f6 04 	call	0x9ec	; 0x9ec <xcps_send_zigbee>
     d30:	08 95       	ret

00000d32 <ZRMsendSoTimeout>:
     d32:	0f 93       	push	r16
     d34:	1f 93       	push	r17
     d36:	df 93       	push	r29
     d38:	cf 93       	push	r28
     d3a:	cd b7       	in	r28, 0x3d	; 61
     d3c:	de b7       	in	r29, 0x3e	; 62
     d3e:	64 97       	sbiw	r28, 0x14	; 20
     d40:	0f b6       	in	r0, 0x3f	; 63
     d42:	f8 94       	cli
     d44:	de bf       	out	0x3e, r29	; 62
     d46:	0f be       	out	0x3f, r0	; 63
     d48:	cd bf       	out	0x3d, r28	; 61
     d4a:	00 d0       	rcall	.+0      	; 0xd4c <ZRMsendSoTimeout+0x1a>
     d4c:	00 d0       	rcall	.+0      	; 0xd4e <ZRMsendSoTimeout+0x1c>
     d4e:	00 d0       	rcall	.+0      	; 0xd50 <ZRMsendSoTimeout+0x1e>
     d50:	ed b7       	in	r30, 0x3d	; 61
     d52:	fe b7       	in	r31, 0x3e	; 62
     d54:	31 96       	adiw	r30, 0x01	; 1
     d56:	8e 01       	movw	r16, r28
     d58:	0f 5f       	subi	r16, 0xFF	; 255
     d5a:	1f 4f       	sbci	r17, 0xFF	; 255
     d5c:	ad b7       	in	r26, 0x3d	; 61
     d5e:	be b7       	in	r27, 0x3e	; 62
     d60:	12 96       	adiw	r26, 0x02	; 2
     d62:	1c 93       	st	X, r17
     d64:	0e 93       	st	-X, r16
     d66:	11 97       	sbiw	r26, 0x01	; 1
     d68:	2d e4       	ldi	r18, 0x4D	; 77
     d6a:	31 e0       	ldi	r19, 0x01	; 1
     d6c:	33 83       	std	Z+3, r19	; 0x03
     d6e:	22 83       	std	Z+2, r18	; 0x02
     d70:	95 83       	std	Z+5, r25	; 0x05
     d72:	84 83       	std	Z+4, r24	; 0x04
     d74:	0e 94 a6 13 	call	0x274c	; 0x274c <sprintf>
     d78:	68 2f       	mov	r22, r24
     d7a:	82 e0       	ldi	r24, 0x02	; 2
     d7c:	80 93 21 03 	sts	0x0321, r24
     d80:	8d b7       	in	r24, 0x3d	; 61
     d82:	9e b7       	in	r25, 0x3e	; 62
     d84:	06 96       	adiw	r24, 0x06	; 6
     d86:	0f b6       	in	r0, 0x3f	; 63
     d88:	f8 94       	cli
     d8a:	9e bf       	out	0x3e, r25	; 62
     d8c:	0f be       	out	0x3f, r0	; 63
     d8e:	8d bf       	out	0x3d, r24	; 61
     d90:	c8 01       	movw	r24, r16
     d92:	70 e0       	ldi	r23, 0x00	; 0
     d94:	0e 94 f6 04 	call	0x9ec	; 0x9ec <xcps_send_zigbee>
     d98:	64 96       	adiw	r28, 0x14	; 20
     d9a:	0f b6       	in	r0, 0x3f	; 63
     d9c:	f8 94       	cli
     d9e:	de bf       	out	0x3e, r29	; 62
     da0:	0f be       	out	0x3f, r0	; 63
     da2:	cd bf       	out	0x3d, r28	; 61
     da4:	cf 91       	pop	r28
     da6:	df 91       	pop	r29
     da8:	1f 91       	pop	r17
     daa:	0f 91       	pop	r16
     dac:	08 95       	ret

00000dae <ZRMsendRetry>:
     dae:	0f 93       	push	r16
     db0:	1f 93       	push	r17
     db2:	df 93       	push	r29
     db4:	cf 93       	push	r28
     db6:	cd b7       	in	r28, 0x3d	; 61
     db8:	de b7       	in	r29, 0x3e	; 62
     dba:	64 97       	sbiw	r28, 0x14	; 20
     dbc:	0f b6       	in	r0, 0x3f	; 63
     dbe:	f8 94       	cli
     dc0:	de bf       	out	0x3e, r29	; 62
     dc2:	0f be       	out	0x3f, r0	; 63
     dc4:	cd bf       	out	0x3d, r28	; 61
     dc6:	00 d0       	rcall	.+0      	; 0xdc8 <ZRMsendRetry+0x1a>
     dc8:	00 d0       	rcall	.+0      	; 0xdca <ZRMsendRetry+0x1c>
     dca:	00 d0       	rcall	.+0      	; 0xdcc <ZRMsendRetry+0x1e>
     dcc:	ed b7       	in	r30, 0x3d	; 61
     dce:	fe b7       	in	r31, 0x3e	; 62
     dd0:	31 96       	adiw	r30, 0x01	; 1
     dd2:	8e 01       	movw	r16, r28
     dd4:	0f 5f       	subi	r16, 0xFF	; 255
     dd6:	1f 4f       	sbci	r17, 0xFF	; 255
     dd8:	ad b7       	in	r26, 0x3d	; 61
     dda:	be b7       	in	r27, 0x3e	; 62
     ddc:	12 96       	adiw	r26, 0x02	; 2
     dde:	1c 93       	st	X, r17
     de0:	0e 93       	st	-X, r16
     de2:	11 97       	sbiw	r26, 0x01	; 1
     de4:	27 e5       	ldi	r18, 0x57	; 87
     de6:	31 e0       	ldi	r19, 0x01	; 1
     de8:	33 83       	std	Z+3, r19	; 0x03
     dea:	22 83       	std	Z+2, r18	; 0x02
     dec:	84 83       	std	Z+4, r24	; 0x04
     dee:	15 82       	std	Z+5, r1	; 0x05
     df0:	0e 94 a6 13 	call	0x274c	; 0x274c <sprintf>
     df4:	68 2f       	mov	r22, r24
     df6:	82 e0       	ldi	r24, 0x02	; 2
     df8:	80 93 21 03 	sts	0x0321, r24
     dfc:	8d b7       	in	r24, 0x3d	; 61
     dfe:	9e b7       	in	r25, 0x3e	; 62
     e00:	06 96       	adiw	r24, 0x06	; 6
     e02:	0f b6       	in	r0, 0x3f	; 63
     e04:	f8 94       	cli
     e06:	9e bf       	out	0x3e, r25	; 62
     e08:	0f be       	out	0x3f, r0	; 63
     e0a:	8d bf       	out	0x3d, r24	; 61
     e0c:	c8 01       	movw	r24, r16
     e0e:	70 e0       	ldi	r23, 0x00	; 0
     e10:	0e 94 f6 04 	call	0x9ec	; 0x9ec <xcps_send_zigbee>
     e14:	64 96       	adiw	r28, 0x14	; 20
     e16:	0f b6       	in	r0, 0x3f	; 63
     e18:	f8 94       	cli
     e1a:	de bf       	out	0x3e, r29	; 62
     e1c:	0f be       	out	0x3f, r0	; 63
     e1e:	cd bf       	out	0x3d, r28	; 61
     e20:	cf 91       	pop	r28
     e22:	df 91       	pop	r29
     e24:	1f 91       	pop	r17
     e26:	0f 91       	pop	r16
     e28:	08 95       	ret

00000e2a <ZRMsendEI>:
     e2a:	0f 93       	push	r16
     e2c:	1f 93       	push	r17
     e2e:	df 93       	push	r29
     e30:	cf 93       	push	r28
     e32:	cd b7       	in	r28, 0x3d	; 61
     e34:	de b7       	in	r29, 0x3e	; 62
     e36:	64 97       	sbiw	r28, 0x14	; 20
     e38:	0f b6       	in	r0, 0x3f	; 63
     e3a:	f8 94       	cli
     e3c:	de bf       	out	0x3e, r29	; 62
     e3e:	0f be       	out	0x3f, r0	; 63
     e40:	cd bf       	out	0x3d, r28	; 61
     e42:	00 d0       	rcall	.+0      	; 0xe44 <ZRMsendEI+0x1a>
     e44:	00 d0       	rcall	.+0      	; 0xe46 <ZRMsendEI+0x1c>
     e46:	00 d0       	rcall	.+0      	; 0xe48 <ZRMsendEI+0x1e>
     e48:	ed b7       	in	r30, 0x3d	; 61
     e4a:	fe b7       	in	r31, 0x3e	; 62
     e4c:	31 96       	adiw	r30, 0x01	; 1
     e4e:	8e 01       	movw	r16, r28
     e50:	0f 5f       	subi	r16, 0xFF	; 255
     e52:	1f 4f       	sbci	r17, 0xFF	; 255
     e54:	ad b7       	in	r26, 0x3d	; 61
     e56:	be b7       	in	r27, 0x3e	; 62
     e58:	12 96       	adiw	r26, 0x02	; 2
     e5a:	1c 93       	st	X, r17
     e5c:	0e 93       	st	-X, r16
     e5e:	11 97       	sbiw	r26, 0x01	; 1
     e60:	21 e6       	ldi	r18, 0x61	; 97
     e62:	31 e0       	ldi	r19, 0x01	; 1
     e64:	33 83       	std	Z+3, r19	; 0x03
     e66:	22 83       	std	Z+2, r18	; 0x02
     e68:	95 83       	std	Z+5, r25	; 0x05
     e6a:	84 83       	std	Z+4, r24	; 0x04
     e6c:	0e 94 a6 13 	call	0x274c	; 0x274c <sprintf>
     e70:	68 2f       	mov	r22, r24
     e72:	82 e0       	ldi	r24, 0x02	; 2
     e74:	80 93 21 03 	sts	0x0321, r24
     e78:	8d b7       	in	r24, 0x3d	; 61
     e7a:	9e b7       	in	r25, 0x3e	; 62
     e7c:	06 96       	adiw	r24, 0x06	; 6
     e7e:	0f b6       	in	r0, 0x3f	; 63
     e80:	f8 94       	cli
     e82:	9e bf       	out	0x3e, r25	; 62
     e84:	0f be       	out	0x3f, r0	; 63
     e86:	8d bf       	out	0x3d, r24	; 61
     e88:	c8 01       	movw	r24, r16
     e8a:	70 e0       	ldi	r23, 0x00	; 0
     e8c:	0e 94 f6 04 	call	0x9ec	; 0x9ec <xcps_send_zigbee>
     e90:	64 96       	adiw	r28, 0x14	; 20
     e92:	0f b6       	in	r0, 0x3f	; 63
     e94:	f8 94       	cli
     e96:	de bf       	out	0x3e, r29	; 62
     e98:	0f be       	out	0x3f, r0	; 63
     e9a:	cd bf       	out	0x3d, r28	; 61
     e9c:	cf 91       	pop	r28
     e9e:	df 91       	pop	r29
     ea0:	1f 91       	pop	r17
     ea2:	0f 91       	pop	r16
     ea4:	08 95       	ret

00000ea6 <ZRMsendPI>:
     ea6:	0f 93       	push	r16
     ea8:	1f 93       	push	r17
     eaa:	df 93       	push	r29
     eac:	cf 93       	push	r28
     eae:	cd b7       	in	r28, 0x3d	; 61
     eb0:	de b7       	in	r29, 0x3e	; 62
     eb2:	64 97       	sbiw	r28, 0x14	; 20
     eb4:	0f b6       	in	r0, 0x3f	; 63
     eb6:	f8 94       	cli
     eb8:	de bf       	out	0x3e, r29	; 62
     eba:	0f be       	out	0x3f, r0	; 63
     ebc:	cd bf       	out	0x3d, r28	; 61
     ebe:	00 d0       	rcall	.+0      	; 0xec0 <ZRMsendPI+0x1a>
     ec0:	00 d0       	rcall	.+0      	; 0xec2 <ZRMsendPI+0x1c>
     ec2:	00 d0       	rcall	.+0      	; 0xec4 <ZRMsendPI+0x1e>
     ec4:	ed b7       	in	r30, 0x3d	; 61
     ec6:	fe b7       	in	r31, 0x3e	; 62
     ec8:	31 96       	adiw	r30, 0x01	; 1
     eca:	8e 01       	movw	r16, r28
     ecc:	0f 5f       	subi	r16, 0xFF	; 255
     ece:	1f 4f       	sbci	r17, 0xFF	; 255
     ed0:	ad b7       	in	r26, 0x3d	; 61
     ed2:	be b7       	in	r27, 0x3e	; 62
     ed4:	12 96       	adiw	r26, 0x02	; 2
     ed6:	1c 93       	st	X, r17
     ed8:	0e 93       	st	-X, r16
     eda:	11 97       	sbiw	r26, 0x01	; 1
     edc:	29 e7       	ldi	r18, 0x79	; 121
     ede:	31 e0       	ldi	r19, 0x01	; 1
     ee0:	33 83       	std	Z+3, r19	; 0x03
     ee2:	22 83       	std	Z+2, r18	; 0x02
     ee4:	95 83       	std	Z+5, r25	; 0x05
     ee6:	84 83       	std	Z+4, r24	; 0x04
     ee8:	0e 94 a6 13 	call	0x274c	; 0x274c <sprintf>
     eec:	68 2f       	mov	r22, r24
     eee:	82 e0       	ldi	r24, 0x02	; 2
     ef0:	80 93 21 03 	sts	0x0321, r24
     ef4:	8d b7       	in	r24, 0x3d	; 61
     ef6:	9e b7       	in	r25, 0x3e	; 62
     ef8:	06 96       	adiw	r24, 0x06	; 6
     efa:	0f b6       	in	r0, 0x3f	; 63
     efc:	f8 94       	cli
     efe:	9e bf       	out	0x3e, r25	; 62
     f00:	0f be       	out	0x3f, r0	; 63
     f02:	8d bf       	out	0x3d, r24	; 61
     f04:	c8 01       	movw	r24, r16
     f06:	70 e0       	ldi	r23, 0x00	; 0
     f08:	0e 94 f6 04 	call	0x9ec	; 0x9ec <xcps_send_zigbee>
     f0c:	64 96       	adiw	r28, 0x14	; 20
     f0e:	0f b6       	in	r0, 0x3f	; 63
     f10:	f8 94       	cli
     f12:	de bf       	out	0x3e, r29	; 62
     f14:	0f be       	out	0x3f, r0	; 63
     f16:	cd bf       	out	0x3d, r28	; 61
     f18:	cf 91       	pop	r28
     f1a:	df 91       	pop	r29
     f1c:	1f 91       	pop	r17
     f1e:	0f 91       	pop	r16
     f20:	08 95       	ret

00000f22 <ZRMsendZS>:
     f22:	82 e0       	ldi	r24, 0x02	; 2
     f24:	80 93 21 03 	sts	0x0321, r24
     f28:	85 e8       	ldi	r24, 0x85	; 133
     f2a:	91 e0       	ldi	r25, 0x01	; 1
     f2c:	68 e0       	ldi	r22, 0x08	; 8
     f2e:	70 e0       	ldi	r23, 0x00	; 0
     f30:	0e 94 f6 04 	call	0x9ec	; 0x9ec <xcps_send_zigbee>
     f34:	08 95       	ret

00000f36 <ZRMsendNT>:
     f36:	98 2f       	mov	r25, r24
     f38:	82 e0       	ldi	r24, 0x02	; 2
     f3a:	80 93 21 03 	sts	0x0321, r24
     f3e:	91 30       	cpi	r25, 0x01	; 1
     f40:	19 f4       	brne	.+6      	; 0xf48 <ZRMsendNT+0x12>
     f42:	8e e8       	ldi	r24, 0x8E	; 142
     f44:	91 e0       	ldi	r25, 0x01	; 1
     f46:	04 c0       	rjmp	.+8      	; 0xf50 <ZRMsendNT+0x1a>
     f48:	92 30       	cpi	r25, 0x02	; 2
     f4a:	39 f4       	brne	.+14     	; 0xf5a <ZRMsendNT+0x24>
     f4c:	87 e9       	ldi	r24, 0x97	; 151
     f4e:	91 e0       	ldi	r25, 0x01	; 1
     f50:	68 e0       	ldi	r22, 0x08	; 8
     f52:	70 e0       	ldi	r23, 0x00	; 0
     f54:	0e 94 f6 04 	call	0x9ec	; 0x9ec <xcps_send_zigbee>
     f58:	08 95       	ret
     f5a:	93 30       	cpi	r25, 0x03	; 3
     f5c:	31 f4       	brne	.+12     	; 0xf6a <ZRMsendNT+0x34>
     f5e:	80 ea       	ldi	r24, 0xA0	; 160
     f60:	91 e0       	ldi	r25, 0x01	; 1
     f62:	68 e0       	ldi	r22, 0x08	; 8
     f64:	70 e0       	ldi	r23, 0x00	; 0
     f66:	0e 94 f6 04 	call	0x9ec	; 0x9ec <xcps_send_zigbee>
     f6a:	08 95       	ret

00000f6c <ZRMsendUF>:
     f6c:	89 ea       	ldi	r24, 0xA9	; 169
     f6e:	91 e0       	ldi	r25, 0x01	; 1
     f70:	68 e0       	ldi	r22, 0x08	; 8
     f72:	70 e0       	ldi	r23, 0x00	; 0
     f74:	0e 94 f6 04 	call	0x9ec	; 0x9ec <xcps_send_zigbee>
     f78:	08 95       	ret

00000f7a <ZRMsendAT>:
     f7a:	82 e0       	ldi	r24, 0x02	; 2
     f7c:	80 93 21 03 	sts	0x0321, r24
     f80:	82 eb       	ldi	r24, 0xB2	; 178
     f82:	91 e0       	ldi	r25, 0x01	; 1
     f84:	63 e0       	ldi	r22, 0x03	; 3
     f86:	70 e0       	ldi	r23, 0x00	; 0
     f88:	0e 94 f6 04 	call	0x9ec	; 0x9ec <xcps_send_zigbee>
     f8c:	08 95       	ret

00000f8e <ZRMsendQuitDataMode>:
     f8e:	82 e0       	ldi	r24, 0x02	; 2
     f90:	80 93 21 03 	sts	0x0321, r24
     f94:	80 91 26 03 	lds	r24, 0x0326
     f98:	88 23       	and	r24, r24
     f9a:	51 f4       	brne	.+20     	; 0xfb0 <ZRMsendQuitDataMode+0x22>
     f9c:	86 eb       	ldi	r24, 0xB6	; 182
     f9e:	91 e0       	ldi	r25, 0x01	; 1
     fa0:	63 e0       	ldi	r22, 0x03	; 3
     fa2:	70 e0       	ldi	r23, 0x00	; 0
     fa4:	0e 94 f6 04 	call	0x9ec	; 0x9ec <xcps_send_zigbee>
     fa8:	81 e0       	ldi	r24, 0x01	; 1
     faa:	80 93 26 03 	sts	0x0326, r24
     fae:	08 95       	ret
     fb0:	8a eb       	ldi	r24, 0xBA	; 186
     fb2:	91 e0       	ldi	r25, 0x01	; 1
     fb4:	64 e0       	ldi	r22, 0x04	; 4
     fb6:	70 e0       	ldi	r23, 0x00	; 0
     fb8:	0e 94 f6 04 	call	0x9ec	; 0x9ec <xcps_send_zigbee>
     fbc:	10 92 26 03 	sts	0x0326, r1
     fc0:	08 95       	ret

00000fc2 <ZRMsendBR>:
     fc2:	82 e0       	ldi	r24, 0x02	; 2
     fc4:	80 93 21 03 	sts	0x0321, r24
     fc8:	8f eb       	ldi	r24, 0xBF	; 191
     fca:	91 e0       	ldi	r25, 0x01	; 1
     fcc:	6d e0       	ldi	r22, 0x0D	; 13
     fce:	70 e0       	ldi	r23, 0x00	; 0
     fd0:	0e 94 f6 04 	call	0x9ec	; 0x9ec <xcps_send_zigbee>
     fd4:	08 95       	ret

00000fd6 <ZRMsendFR>:
     fd6:	82 e0       	ldi	r24, 0x02	; 2
     fd8:	80 93 21 03 	sts	0x0321, r24
     fdc:	8d ec       	ldi	r24, 0xCD	; 205
     fde:	91 e0       	ldi	r25, 0x01	; 1
     fe0:	65 e0       	ldi	r22, 0x05	; 5
     fe2:	70 e0       	ldi	r23, 0x00	; 0
     fe4:	0e 94 f6 04 	call	0x9ec	; 0x9ec <xcps_send_zigbee>
     fe8:	08 95       	ret

00000fea <ZRMsendATS11>:
     fea:	0f 93       	push	r16
     fec:	1f 93       	push	r17
     fee:	df 93       	push	r29
     ff0:	cf 93       	push	r28
     ff2:	cd b7       	in	r28, 0x3d	; 61
     ff4:	de b7       	in	r29, 0x3e	; 62
     ff6:	64 97       	sbiw	r28, 0x14	; 20
     ff8:	0f b6       	in	r0, 0x3f	; 63
     ffa:	f8 94       	cli
     ffc:	de bf       	out	0x3e, r29	; 62
     ffe:	0f be       	out	0x3f, r0	; 63
    1000:	cd bf       	out	0x3d, r28	; 61
    1002:	8e 01       	movw	r16, r28
    1004:	0f 5f       	subi	r16, 0xFF	; 255
    1006:	1f 4f       	sbci	r17, 0xFF	; 255
    1008:	c8 01       	movw	r24, r16
    100a:	63 ed       	ldi	r22, 0xD3	; 211
    100c:	71 e0       	ldi	r23, 0x01	; 1
    100e:	0e 94 91 13 	call	0x2722	; 0x2722 <strcpy>
    1012:	82 e0       	ldi	r24, 0x02	; 2
    1014:	80 93 21 03 	sts	0x0321, r24
    1018:	c8 01       	movw	r24, r16
    101a:	68 e0       	ldi	r22, 0x08	; 8
    101c:	70 e0       	ldi	r23, 0x00	; 0
    101e:	0e 94 f6 04 	call	0x9ec	; 0x9ec <xcps_send_zigbee>
    1022:	64 96       	adiw	r28, 0x14	; 20
    1024:	0f b6       	in	r0, 0x3f	; 63
    1026:	f8 94       	cli
    1028:	de bf       	out	0x3e, r29	; 62
    102a:	0f be       	out	0x3f, r0	; 63
    102c:	cd bf       	out	0x3d, r28	; 61
    102e:	cf 91       	pop	r28
    1030:	df 91       	pop	r29
    1032:	1f 91       	pop	r17
    1034:	0f 91       	pop	r16
    1036:	08 95       	ret

00001038 <ZRMreadOI>:
    1038:	0f 93       	push	r16
    103a:	1f 93       	push	r17
    103c:	df 93       	push	r29
    103e:	cf 93       	push	r28
    1040:	cd b7       	in	r28, 0x3d	; 61
    1042:	de b7       	in	r29, 0x3e	; 62
    1044:	64 97       	sbiw	r28, 0x14	; 20
    1046:	0f b6       	in	r0, 0x3f	; 63
    1048:	f8 94       	cli
    104a:	de bf       	out	0x3e, r29	; 62
    104c:	0f be       	out	0x3f, r0	; 63
    104e:	cd bf       	out	0x3d, r28	; 61
    1050:	8e 01       	movw	r16, r28
    1052:	0f 5f       	subi	r16, 0xFF	; 255
    1054:	1f 4f       	sbci	r17, 0xFF	; 255
    1056:	c8 01       	movw	r24, r16
    1058:	6c ed       	ldi	r22, 0xDC	; 220
    105a:	71 e0       	ldi	r23, 0x01	; 1
    105c:	0e 94 91 13 	call	0x2722	; 0x2722 <strcpy>
    1060:	82 e0       	ldi	r24, 0x02	; 2
    1062:	80 93 21 03 	sts	0x0321, r24
    1066:	c8 01       	movw	r24, r16
    1068:	66 e0       	ldi	r22, 0x06	; 6
    106a:	70 e0       	ldi	r23, 0x00	; 0
    106c:	0e 94 f6 04 	call	0x9ec	; 0x9ec <xcps_send_zigbee>
    1070:	64 96       	adiw	r28, 0x14	; 20
    1072:	0f b6       	in	r0, 0x3f	; 63
    1074:	f8 94       	cli
    1076:	de bf       	out	0x3e, r29	; 62
    1078:	0f be       	out	0x3f, r0	; 63
    107a:	cd bf       	out	0x3d, r28	; 61
    107c:	cf 91       	pop	r28
    107e:	df 91       	pop	r29
    1080:	1f 91       	pop	r17
    1082:	0f 91       	pop	r16
    1084:	08 95       	ret

00001086 <ZRMsendCM>:
    1086:	0f 93       	push	r16
    1088:	1f 93       	push	r17
    108a:	df 93       	push	r29
    108c:	cf 93       	push	r28
    108e:	cd b7       	in	r28, 0x3d	; 61
    1090:	de b7       	in	r29, 0x3e	; 62
    1092:	64 97       	sbiw	r28, 0x14	; 20
    1094:	0f b6       	in	r0, 0x3f	; 63
    1096:	f8 94       	cli
    1098:	de bf       	out	0x3e, r29	; 62
    109a:	0f be       	out	0x3f, r0	; 63
    109c:	cd bf       	out	0x3d, r28	; 61
    109e:	8e 01       	movw	r16, r28
    10a0:	0f 5f       	subi	r16, 0xFF	; 255
    10a2:	1f 4f       	sbci	r17, 0xFF	; 255
    10a4:	c8 01       	movw	r24, r16
    10a6:	63 ee       	ldi	r22, 0xE3	; 227
    10a8:	71 e0       	ldi	r23, 0x01	; 1
    10aa:	0e 94 91 13 	call	0x2722	; 0x2722 <strcpy>
    10ae:	82 e0       	ldi	r24, 0x02	; 2
    10b0:	80 93 21 03 	sts	0x0321, r24
    10b4:	c8 01       	movw	r24, r16
    10b6:	6f e0       	ldi	r22, 0x0F	; 15
    10b8:	70 e0       	ldi	r23, 0x00	; 0
    10ba:	0e 94 f6 04 	call	0x9ec	; 0x9ec <xcps_send_zigbee>
    10be:	64 96       	adiw	r28, 0x14	; 20
    10c0:	0f b6       	in	r0, 0x3f	; 63
    10c2:	f8 94       	cli
    10c4:	de bf       	out	0x3e, r29	; 62
    10c6:	0f be       	out	0x3f, r0	; 63
    10c8:	cd bf       	out	0x3d, r28	; 61
    10ca:	cf 91       	pop	r28
    10cc:	df 91       	pop	r29
    10ce:	1f 91       	pop	r17
    10d0:	0f 91       	pop	r16
    10d2:	08 95       	ret

000010d4 <ZRMPMessage>:
    10d4:	0f 93       	push	r16
    10d6:	1f 93       	push	r17
    10d8:	cf 93       	push	r28
    10da:	df 93       	push	r29
    10dc:	ec 01       	movw	r28, r24
    10de:	8b 01       	movw	r16, r22
    10e0:	88 81       	ld	r24, Y
    10e2:	8f 34       	cpi	r24, 0x4F	; 79
    10e4:	39 f4       	brne	.+14     	; 0x10f4 <ZRMPMessage+0x20>
    10e6:	89 81       	ldd	r24, Y+1	; 0x01
    10e8:	8b 34       	cpi	r24, 0x4B	; 75
    10ea:	21 f4       	brne	.+8      	; 0x10f4 <ZRMPMessage+0x20>
    10ec:	81 e0       	ldi	r24, 0x01	; 1
    10ee:	80 93 21 03 	sts	0x0321, r24
    10f2:	0b c0       	rjmp	.+22     	; 0x110a <ZRMPMessage+0x36>
    10f4:	ce 01       	movw	r24, r28
    10f6:	63 ef       	ldi	r22, 0xF3	; 243
    10f8:	71 e0       	ldi	r23, 0x01	; 1
    10fa:	45 e0       	ldi	r20, 0x05	; 5
    10fc:	50 e0       	ldi	r21, 0x00	; 0
    10fe:	0e 94 98 13 	call	0x2730	; 0x2730 <strncmp>
    1102:	00 97       	sbiw	r24, 0x00	; 0
    1104:	11 f4       	brne	.+4      	; 0x110a <ZRMPMessage+0x36>
    1106:	10 92 21 03 	sts	0x0321, r1
    110a:	80 91 95 03 	lds	r24, 0x0395
    110e:	82 30       	cpi	r24, 0x02	; 2
    1110:	69 f1       	breq	.+90     	; 0x116c <ZRMPMessage+0x98>
    1112:	83 30       	cpi	r24, 0x03	; 3
    1114:	20 f4       	brcc	.+8      	; 0x111e <ZRMPMessage+0x4a>
    1116:	81 30       	cpi	r24, 0x01	; 1
    1118:	09 f0       	breq	.+2      	; 0x111c <ZRMPMessage+0x48>
    111a:	73 c0       	rjmp	.+230    	; 0x1202 <ZRMPMessage+0x12e>
    111c:	07 c0       	rjmp	.+14     	; 0x112c <ZRMPMessage+0x58>
    111e:	83 30       	cpi	r24, 0x03	; 3
    1120:	09 f4       	brne	.+2      	; 0x1124 <ZRMPMessage+0x50>
    1122:	42 c0       	rjmp	.+132    	; 0x11a8 <ZRMPMessage+0xd4>
    1124:	83 33       	cpi	r24, 0x33	; 51
    1126:	09 f0       	breq	.+2      	; 0x112a <ZRMPMessage+0x56>
    1128:	6c c0       	rjmp	.+216    	; 0x1202 <ZRMPMessage+0x12e>
    112a:	5c c0       	rjmp	.+184    	; 0x11e4 <ZRMPMessage+0x110>
    112c:	ce 01       	movw	r24, r28
    112e:	69 ef       	ldi	r22, 0xF9	; 249
    1130:	71 e0       	ldi	r23, 0x01	; 1
    1132:	42 e0       	ldi	r20, 0x02	; 2
    1134:	50 e0       	ldi	r21, 0x00	; 0
    1136:	0e 94 98 13 	call	0x2730	; 0x2730 <strncmp>
    113a:	00 97       	sbiw	r24, 0x00	; 0
    113c:	09 f4       	brne	.+2      	; 0x1140 <ZRMPMessage+0x6c>
    113e:	61 c0       	rjmp	.+194    	; 0x1202 <ZRMPMessage+0x12e>
    1140:	ce 01       	movw	r24, r28
    1142:	6c ef       	ldi	r22, 0xFC	; 252
    1144:	71 e0       	ldi	r23, 0x01	; 1
    1146:	4a e0       	ldi	r20, 0x0A	; 10
    1148:	50 e0       	ldi	r21, 0x00	; 0
    114a:	0e 94 98 13 	call	0x2730	; 0x2730 <strncmp>
    114e:	00 97       	sbiw	r24, 0x00	; 0
    1150:	09 f4       	brne	.+2      	; 0x1154 <ZRMPMessage+0x80>
    1152:	57 c0       	rjmp	.+174    	; 0x1202 <ZRMPMessage+0x12e>
    1154:	04 30       	cpi	r16, 0x04	; 4
    1156:	11 05       	cpc	r17, r1
    1158:	09 f0       	breq	.+2      	; 0x115c <ZRMPMessage+0x88>
    115a:	53 c0       	rjmp	.+166    	; 0x1202 <ZRMPMessage+0x12e>
    115c:	ce 01       	movw	r24, r28
    115e:	0e 94 2b 10 	call	0x2056	; 0x2056 <toUint16>
    1162:	90 93 99 03 	sts	0x0399, r25
    1166:	80 93 98 03 	sts	0x0398, r24
    116a:	4b c0       	rjmp	.+150    	; 0x1202 <ZRMPMessage+0x12e>
    116c:	ce 01       	movw	r24, r28
    116e:	69 ef       	ldi	r22, 0xF9	; 249
    1170:	71 e0       	ldi	r23, 0x01	; 1
    1172:	42 e0       	ldi	r20, 0x02	; 2
    1174:	50 e0       	ldi	r21, 0x00	; 0
    1176:	0e 94 98 13 	call	0x2730	; 0x2730 <strncmp>
    117a:	00 97       	sbiw	r24, 0x00	; 0
    117c:	09 f4       	brne	.+2      	; 0x1180 <ZRMPMessage+0xac>
    117e:	41 c0       	rjmp	.+130    	; 0x1202 <ZRMPMessage+0x12e>
    1180:	ce 01       	movw	r24, r28
    1182:	6c ef       	ldi	r22, 0xFC	; 252
    1184:	71 e0       	ldi	r23, 0x01	; 1
    1186:	4a e0       	ldi	r20, 0x0A	; 10
    1188:	50 e0       	ldi	r21, 0x00	; 0
    118a:	0e 94 98 13 	call	0x2730	; 0x2730 <strncmp>
    118e:	00 97       	sbiw	r24, 0x00	; 0
    1190:	c1 f1       	breq	.+112    	; 0x1202 <ZRMPMessage+0x12e>
    1192:	04 30       	cpi	r16, 0x04	; 4
    1194:	11 05       	cpc	r17, r1
    1196:	a9 f5       	brne	.+106    	; 0x1202 <ZRMPMessage+0x12e>
    1198:	ce 01       	movw	r24, r28
    119a:	0e 94 2b 10 	call	0x2056	; 0x2056 <toUint16>
    119e:	90 93 9b 03 	sts	0x039B, r25
    11a2:	80 93 9a 03 	sts	0x039A, r24
    11a6:	2d c0       	rjmp	.+90     	; 0x1202 <ZRMPMessage+0x12e>
    11a8:	ce 01       	movw	r24, r28
    11aa:	69 ef       	ldi	r22, 0xF9	; 249
    11ac:	71 e0       	ldi	r23, 0x01	; 1
    11ae:	42 e0       	ldi	r20, 0x02	; 2
    11b0:	50 e0       	ldi	r21, 0x00	; 0
    11b2:	0e 94 98 13 	call	0x2730	; 0x2730 <strncmp>
    11b6:	00 97       	sbiw	r24, 0x00	; 0
    11b8:	21 f1       	breq	.+72     	; 0x1202 <ZRMPMessage+0x12e>
    11ba:	ce 01       	movw	r24, r28
    11bc:	6c ef       	ldi	r22, 0xFC	; 252
    11be:	71 e0       	ldi	r23, 0x01	; 1
    11c0:	4a e0       	ldi	r20, 0x0A	; 10
    11c2:	50 e0       	ldi	r21, 0x00	; 0
    11c4:	0e 94 98 13 	call	0x2730	; 0x2730 <strncmp>
    11c8:	00 97       	sbiw	r24, 0x00	; 0
    11ca:	d9 f0       	breq	.+54     	; 0x1202 <ZRMPMessage+0x12e>
    11cc:	00 31       	cpi	r16, 0x10	; 16
    11ce:	11 05       	cpc	r17, r1
    11d0:	c1 f4       	brne	.+48     	; 0x1202 <ZRMPMessage+0x12e>
    11d2:	ce 01       	movw	r24, r28
    11d4:	0c 96       	adiw	r24, 0x0c	; 12
    11d6:	0e 94 2b 10 	call	0x2056	; 0x2056 <toUint16>
    11da:	90 93 97 03 	sts	0x0397, r25
    11de:	80 93 96 03 	sts	0x0396, r24
    11e2:	0f c0       	rjmp	.+30     	; 0x1202 <ZRMPMessage+0x12e>
    11e4:	80 91 21 03 	lds	r24, 0x0321
    11e8:	81 30       	cpi	r24, 0x01	; 1
    11ea:	31 f4       	brne	.+12     	; 0x11f8 <ZRMPMessage+0x124>
    11ec:	82 e3       	ldi	r24, 0x32	; 50
    11ee:	80 93 95 03 	sts	0x0395, r24
    11f2:	10 92 20 03 	sts	0x0320, r1
    11f6:	05 c0       	rjmp	.+10     	; 0x1202 <ZRMPMessage+0x12e>
    11f8:	88 23       	and	r24, r24
    11fa:	19 f4       	brne	.+6      	; 0x1202 <ZRMPMessage+0x12e>
    11fc:	82 e3       	ldi	r24, 0x32	; 50
    11fe:	80 93 95 03 	sts	0x0395, r24
    1202:	df 91       	pop	r29
    1204:	cf 91       	pop	r28
    1206:	1f 91       	pop	r17
    1208:	0f 91       	pop	r16
    120a:	08 95       	ret

0000120c <addMessageToSendBuff>:
    120c:	1f 93       	push	r17
    120e:	48 2f       	mov	r20, r24
    1210:	79 2f       	mov	r23, r25
    1212:	16 2f       	mov	r17, r22
    1214:	80 91 25 03 	lds	r24, 0x0325
    1218:	90 91 24 03 	lds	r25, 0x0324
    121c:	89 17       	cp	r24, r25
    121e:	20 f0       	brcs	.+8      	; 0x1228 <addMessageToSendBuff+0x1c>
    1220:	28 2f       	mov	r18, r24
    1222:	29 1b       	sub	r18, r25
    1224:	92 2f       	mov	r25, r18
    1226:	05 c0       	rjmp	.+10     	; 0x1232 <addMessageToSendBuff+0x26>
    1228:	89 5f       	subi	r24, 0xF9	; 249
    122a:	28 2f       	mov	r18, r24
    122c:	29 1b       	sub	r18, r25
    122e:	92 2f       	mov	r25, r18
    1230:	87 50       	subi	r24, 0x07	; 7
    1232:	97 30       	cpi	r25, 0x07	; 7
    1234:	d0 f4       	brcc	.+52     	; 0x126a <addMessageToSendBuff+0x5e>
    1236:	2a e5       	ldi	r18, 0x5A	; 90
    1238:	82 9f       	mul	r24, r18
    123a:	90 01       	movw	r18, r0
    123c:	11 24       	eor	r1, r1
    123e:	2e 5a       	subi	r18, 0xAE	; 174
    1240:	3a 4f       	sbci	r19, 0xFA	; 250
    1242:	c9 01       	movw	r24, r18
    1244:	64 2f       	mov	r22, r20
    1246:	41 2f       	mov	r20, r17
    1248:	50 e0       	ldi	r21, 0x00	; 0
    124a:	0e 94 88 13 	call	0x2710	; 0x2710 <memcpy>
    124e:	80 91 25 03 	lds	r24, 0x0325
    1252:	e8 2f       	mov	r30, r24
    1254:	f0 e0       	ldi	r31, 0x00	; 0
    1256:	e5 5b       	subi	r30, 0xB5	; 181
    1258:	fa 4f       	sbci	r31, 0xFA	; 250
    125a:	10 83       	st	Z, r17
    125c:	8f 5f       	subi	r24, 0xFF	; 255
    125e:	80 93 25 03 	sts	0x0325, r24
    1262:	87 30       	cpi	r24, 0x07	; 7
    1264:	10 f0       	brcs	.+4      	; 0x126a <addMessageToSendBuff+0x5e>
    1266:	10 92 25 03 	sts	0x0325, r1
    126a:	1f 91       	pop	r17
    126c:	08 95       	ret

0000126e <sendToZigbeeSA>:
    126e:	df 92       	push	r13
    1270:	ef 92       	push	r14
    1272:	ff 92       	push	r15
    1274:	0f 93       	push	r16
    1276:	1f 93       	push	r17
    1278:	cf 93       	push	r28
    127a:	df 93       	push	r29
    127c:	7b 01       	movw	r14, r22
    127e:	ea 01       	movw	r28, r20
    1280:	ca 01       	movw	r24, r20
    1282:	68 e2       	ldi	r22, 0x28	; 40
    1284:	70 e0       	ldi	r23, 0x00	; 0
    1286:	0e 94 2a 13 	call	0x2654	; 0x2654 <__divmodhi4>
    128a:	06 2f       	mov	r16, r22
    128c:	0f 5f       	subi	r16, 0xFF	; 255
    128e:	10 e0       	ldi	r17, 0x00	; 0
    1290:	83 e0       	ldi	r24, 0x03	; 3
    1292:	d8 2e       	mov	r13, r24
    1294:	2c c0       	rjmp	.+88     	; 0x12ee <sendToZigbeeSA+0x80>
    1296:	10 92 1f 03 	sts	0x031F, r1
    129a:	f7 01       	movw	r30, r14
    129c:	83 81       	ldd	r24, Z+3	; 0x03
    129e:	80 93 c8 07 	sts	0x07C8, r24
    12a2:	00 93 c9 07 	sts	0x07C9, r16
    12a6:	81 2f       	mov	r24, r17
    12a8:	68 e2       	ldi	r22, 0x28	; 40
    12aa:	0e 94 1e 13 	call	0x263c	; 0x263c <__udivmodqi4>
    12ae:	80 93 ca 07 	sts	0x07CA, r24
    12b2:	d0 92 1f 03 	sts	0x031F, r13
    12b6:	91 2f       	mov	r25, r17
    12b8:	0c c0       	rjmp	.+24     	; 0x12d2 <sendToZigbeeSA+0x64>
    12ba:	e6 2f       	mov	r30, r22
    12bc:	f0 e0       	ldi	r31, 0x00	; 0
    12be:	e8 53       	subi	r30, 0x38	; 56
    12c0:	f8 4f       	sbci	r31, 0xF8	; 248
    12c2:	ae 0d       	add	r26, r14
    12c4:	bf 1d       	adc	r27, r15
    12c6:	8c 91       	ld	r24, X
    12c8:	80 83       	st	Z, r24
    12ca:	6f 5f       	subi	r22, 0xFF	; 255
    12cc:	60 93 1f 03 	sts	0x031F, r22
    12d0:	9f 5f       	subi	r25, 0xFF	; 255
    12d2:	60 91 1f 03 	lds	r22, 0x031F
    12d6:	6b 32       	cpi	r22, 0x2B	; 43
    12d8:	28 f4       	brcc	.+10     	; 0x12e4 <sendToZigbeeSA+0x76>
    12da:	a9 2f       	mov	r26, r25
    12dc:	b0 e0       	ldi	r27, 0x00	; 0
    12de:	ac 17       	cp	r26, r28
    12e0:	bd 07       	cpc	r27, r29
    12e2:	5c f3       	brlt	.-42     	; 0x12ba <sendToZigbeeSA+0x4c>
    12e4:	88 ec       	ldi	r24, 0xC8	; 200
    12e6:	97 e0       	ldi	r25, 0x07	; 7
    12e8:	0e 94 06 09 	call	0x120c	; 0x120c <addMessageToSendBuff>
    12ec:	18 5d       	subi	r17, 0xD8	; 216
    12ee:	81 2f       	mov	r24, r17
    12f0:	90 e0       	ldi	r25, 0x00	; 0
    12f2:	8c 17       	cp	r24, r28
    12f4:	9d 07       	cpc	r25, r29
    12f6:	7c f2       	brlt	.-98     	; 0x1296 <sendToZigbeeSA+0x28>
    12f8:	df 91       	pop	r29
    12fa:	cf 91       	pop	r28
    12fc:	1f 91       	pop	r17
    12fe:	0f 91       	pop	r16
    1300:	ff 90       	pop	r15
    1302:	ef 90       	pop	r14
    1304:	df 90       	pop	r13
    1306:	08 95       	ret

00001308 <getMessageFormSendBuff>:
    1308:	20 91 25 03 	lds	r18, 0x0325
    130c:	30 91 24 03 	lds	r19, 0x0324
    1310:	23 17       	cp	r18, r19
    1312:	08 f4       	brcc	.+2      	; 0x1316 <getMessageFormSendBuff+0xe>
    1314:	29 5f       	subi	r18, 0xF9	; 249
    1316:	23 1b       	sub	r18, r19
    1318:	11 f4       	brne	.+4      	; 0x131e <getMessageFormSendBuff+0x16>
    131a:	e0 e0       	ldi	r30, 0x00	; 0
    131c:	1d c0       	rjmp	.+58     	; 0x1358 <getMessageFormSendBuff+0x50>
    131e:	e3 2f       	mov	r30, r19
    1320:	f0 e0       	ldi	r31, 0x00	; 0
    1322:	e5 5b       	subi	r30, 0xB5	; 181
    1324:	fa 4f       	sbci	r31, 0xFA	; 250
    1326:	40 81       	ld	r20, Z
    1328:	2a e5       	ldi	r18, 0x5A	; 90
    132a:	32 9f       	mul	r19, r18
    132c:	90 01       	movw	r18, r0
    132e:	11 24       	eor	r1, r1
    1330:	2e 5a       	subi	r18, 0xAE	; 174
    1332:	3a 4f       	sbci	r19, 0xFA	; 250
    1334:	b9 01       	movw	r22, r18
    1336:	50 e0       	ldi	r21, 0x00	; 0
    1338:	0e 94 88 13 	call	0x2710	; 0x2710 <memcpy>
    133c:	80 91 24 03 	lds	r24, 0x0324
    1340:	e8 2f       	mov	r30, r24
    1342:	f0 e0       	ldi	r31, 0x00	; 0
    1344:	e5 5b       	subi	r30, 0xB5	; 181
    1346:	fa 4f       	sbci	r31, 0xFA	; 250
    1348:	e0 81       	ld	r30, Z
    134a:	8f 5f       	subi	r24, 0xFF	; 255
    134c:	80 93 24 03 	sts	0x0324, r24
    1350:	87 30       	cpi	r24, 0x07	; 7
    1352:	10 f0       	brcs	.+4      	; 0x1358 <getMessageFormSendBuff+0x50>
    1354:	10 92 24 03 	sts	0x0324, r1
    1358:	8e 2f       	mov	r24, r30
    135a:	08 95       	ret

0000135c <sendQueueingMessage>:
    135c:	80 91 27 03 	lds	r24, 0x0327
    1360:	88 23       	and	r24, r24
    1362:	19 f0       	breq	.+6      	; 0x136a <sendQueueingMessage+0xe>
    1364:	8f 5f       	subi	r24, 0xFF	; 255
    1366:	80 93 27 03 	sts	0x0327, r24
    136a:	80 91 27 03 	lds	r24, 0x0327
    136e:	85 36       	cpi	r24, 0x65	; 101
    1370:	50 f0       	brcs	.+20     	; 0x1386 <sendQueueingMessage+0x2a>
    1372:	81 e0       	ldi	r24, 0x01	; 1
    1374:	80 93 27 03 	sts	0x0327, r24
    1378:	80 91 95 03 	lds	r24, 0x0395
    137c:	83 33       	cpi	r24, 0x33	; 51
    137e:	19 f4       	brne	.+6      	; 0x1386 <sendQueueingMessage+0x2a>
    1380:	82 e3       	ldi	r24, 0x32	; 50
    1382:	80 93 95 03 	sts	0x0395, r24
    1386:	80 91 25 03 	lds	r24, 0x0325
    138a:	90 91 24 03 	lds	r25, 0x0324
    138e:	89 17       	cp	r24, r25
    1390:	08 f4       	brcc	.+2      	; 0x1394 <sendQueueingMessage+0x38>
    1392:	89 5f       	subi	r24, 0xF9	; 249
    1394:	89 1b       	sub	r24, r25
    1396:	89 f1       	breq	.+98     	; 0x13fa <sendQueueingMessage+0x9e>
    1398:	80 91 95 03 	lds	r24, 0x0395
    139c:	82 33       	cpi	r24, 0x32	; 50
    139e:	69 f5       	brne	.+90     	; 0x13fa <sendQueueingMessage+0x9e>
    13a0:	81 e0       	ldi	r24, 0x01	; 1
    13a2:	80 93 27 03 	sts	0x0327, r24
    13a6:	80 91 21 03 	lds	r24, 0x0321
    13aa:	81 30       	cpi	r24, 0x01	; 1
    13ac:	19 f4       	brne	.+6      	; 0x13b4 <sendQueueingMessage+0x58>
    13ae:	10 92 83 03 	sts	0x0383, r1
    13b2:	07 c0       	rjmp	.+14     	; 0x13c2 <sendQueueingMessage+0x66>
    13b4:	88 23       	and	r24, r24
    13b6:	29 f4       	brne	.+10     	; 0x13c2 <sendQueueingMessage+0x66>
    13b8:	80 91 83 03 	lds	r24, 0x0383
    13bc:	8f 5f       	subi	r24, 0xFF	; 255
    13be:	80 93 83 03 	sts	0x0383, r24
    13c2:	80 91 83 03 	lds	r24, 0x0383
    13c6:	8f 31       	cpi	r24, 0x1F	; 31
    13c8:	30 f0       	brcs	.+12     	; 0x13d6 <sendQueueingMessage+0x7a>
    13ca:	0e 94 85 06 	call	0xd0a	; 0xd0a <ZRMsendATZ>
    13ce:	10 92 95 03 	sts	0x0395, r1
    13d2:	10 92 83 03 	sts	0x0383, r1
    13d6:	89 e2       	ldi	r24, 0x29	; 41
    13d8:	93 e0       	ldi	r25, 0x03	; 3
    13da:	0e 94 84 09 	call	0x1308	; 0x1308 <getMessageFormSendBuff>
    13de:	48 2f       	mov	r20, r24
    13e0:	80 93 28 03 	sts	0x0328, r24
    13e4:	88 23       	and	r24, r24
    13e6:	49 f0       	breq	.+18     	; 0x13fa <sendQueueingMessage+0x9e>
    13e8:	80 e0       	ldi	r24, 0x00	; 0
    13ea:	90 e0       	ldi	r25, 0x00	; 0
    13ec:	69 e2       	ldi	r22, 0x29	; 41
    13ee:	73 e0       	ldi	r23, 0x03	; 3
    13f0:	50 e0       	ldi	r21, 0x00	; 0
    13f2:	0e 94 ab 05 	call	0xb56	; 0xb56 <sendToZigbee>
    13f6:	10 92 28 03 	sts	0x0328, r1
    13fa:	08 95       	ret

000013fc <InitMCU>:
    13fc:	8a b1       	in	r24, 0x0a	; 10
    13fe:	80 6c       	ori	r24, 0xC0	; 192
    1400:	8a b9       	out	0x0a, r24	; 10
    1402:	8b b1       	in	r24, 0x0b	; 11
    1404:	80 6c       	ori	r24, 0xC0	; 192
    1406:	8b b9       	out	0x0b, r24	; 11
    1408:	84 b1       	in	r24, 0x04	; 4
    140a:	83 60       	ori	r24, 0x03	; 3
    140c:	84 b9       	out	0x04, r24	; 4
    140e:	85 b1       	in	r24, 0x05	; 5
    1410:	83 60       	ori	r24, 0x03	; 3
    1412:	85 b9       	out	0x05, r24	; 5
    1414:	22 9a       	sbi	0x04, 2	; 4
    1416:	2a 9a       	sbi	0x05, 2	; 5
    1418:	23 9a       	sbi	0x04, 3	; 4
    141a:	2b 98       	cbi	0x05, 3	; 5
    141c:	51 9a       	sbi	0x0a, 1	; 10
    141e:	50 9a       	sbi	0x0a, 0	; 10
    1420:	81 e0       	ldi	r24, 0x01	; 1
    1422:	8b b9       	out	0x0b, r24	; 11
    1424:	08 95       	ret

00001426 <WDT_INIT>:
    1426:	84 b7       	in	r24, 0x34	; 52
    1428:	87 7f       	andi	r24, 0xF7	; 247
    142a:	84 bf       	out	0x34, r24	; 52
    142c:	2f e0       	ldi	r18, 0x0F	; 15
    142e:	88 e1       	ldi	r24, 0x18	; 24
    1430:	90 e0       	ldi	r25, 0x00	; 0
    1432:	0f b6       	in	r0, 0x3f	; 63
    1434:	f8 94       	cli
    1436:	a8 95       	wdr
    1438:	80 93 60 00 	sts	0x0060, r24
    143c:	0f be       	out	0x3f, r0	; 63
    143e:	20 93 60 00 	sts	0x0060, r18
    1442:	08 95       	ret

00001444 <resetZigbee>:
    1444:	28 98       	cbi	0x05, 0	; 5
    1446:	88 ee       	ldi	r24, 0xE8	; 232
    1448:	93 e0       	ldi	r25, 0x03	; 3
    144a:	28 ec       	ldi	r18, 0xC8	; 200
    144c:	30 e0       	ldi	r19, 0x00	; 0
    144e:	f9 01       	movw	r30, r18
    1450:	31 97       	sbiw	r30, 0x01	; 1
    1452:	f1 f7       	brne	.-4      	; 0x1450 <resetZigbee+0xc>
    1454:	01 97       	sbiw	r24, 0x01	; 1
    1456:	d9 f7       	brne	.-10     	; 0x144e <resetZigbee+0xa>
    1458:	28 9a       	sbi	0x05, 0	; 5
    145a:	08 95       	ret

0000145c <getAdc_10ms>:
    145c:	ee e7       	ldi	r30, 0x7E	; 126
    145e:	f8 e0       	ldi	r31, 0x08	; 8
    1460:	82 81       	ldd	r24, Z+2	; 0x02
    1462:	93 81       	ldd	r25, Z+3	; 0x03
    1464:	81 93       	st	Z+, r24
    1466:	91 93       	st	Z+, r25
    1468:	88 e0       	ldi	r24, 0x08	; 8
    146a:	e0 39       	cpi	r30, 0x90	; 144
    146c:	f8 07       	cpc	r31, r24
    146e:	c1 f7       	brne	.-16     	; 0x1460 <getAdc_10ms+0x4>
    1470:	80 91 22 08 	lds	r24, 0x0822
    1474:	90 91 23 08 	lds	r25, 0x0823
    1478:	91 83       	std	Z+1, r25	; 0x01
    147a:	80 83       	st	Z, r24
    147c:	80 91 87 03 	lds	r24, 0x0387
    1480:	89 30       	cpi	r24, 0x09	; 9
    1482:	88 f4       	brcc	.+34     	; 0x14a6 <getAdc_10ms+0x4a>
    1484:	80 91 87 03 	lds	r24, 0x0387
    1488:	e8 2f       	mov	r30, r24
    148a:	f0 e0       	ldi	r31, 0x00	; 0
    148c:	20 91 22 08 	lds	r18, 0x0822
    1490:	30 91 23 08 	lds	r19, 0x0823
    1494:	ee 0f       	add	r30, r30
    1496:	ff 1f       	adc	r31, r31
    1498:	ee 56       	subi	r30, 0x6E	; 110
    149a:	f7 4f       	sbci	r31, 0xF7	; 247
    149c:	31 83       	std	Z+1, r19	; 0x01
    149e:	20 83       	st	Z, r18
    14a0:	8f 5f       	subi	r24, 0xFF	; 255
    14a2:	80 93 87 03 	sts	0x0387, r24
    14a6:	08 95       	ret

000014a8 <TestLamp_Task>:
    14a8:	88 e0       	ldi	r24, 0x08	; 8
    14aa:	90 e0       	ldi	r25, 0x00	; 0
    14ac:	0e 94 70 03 	call	0x6e0	; 0x6e0 <timer_get>
    14b0:	89 2b       	or	r24, r25
    14b2:	09 f5       	brne	.+66     	; 0x14f6 <TestLamp_Task+0x4e>
    14b4:	80 91 88 03 	lds	r24, 0x0388
    14b8:	81 30       	cpi	r24, 0x01	; 1
    14ba:	31 f4       	brne	.+12     	; 0x14c8 <TestLamp_Task+0x20>
    14bc:	2b 9a       	sbi	0x05, 3	; 5
    14be:	10 92 88 03 	sts	0x0388, r1
    14c2:	10 92 94 03 	sts	0x0394, r1
    14c6:	0b c0       	rjmp	.+22     	; 0x14de <TestLamp_Task+0x36>
    14c8:	80 91 94 03 	lds	r24, 0x0394
    14cc:	8f 5f       	subi	r24, 0xFF	; 255
    14ce:	80 93 94 03 	sts	0x0394, r24
    14d2:	8b 30       	cpi	r24, 0x0B	; 11
    14d4:	20 f0       	brcs	.+8      	; 0x14de <TestLamp_Task+0x36>
    14d6:	2b 98       	cbi	0x05, 3	; 5
    14d8:	84 e1       	ldi	r24, 0x14	; 20
    14da:	80 93 94 03 	sts	0x0394, r24
    14de:	88 e0       	ldi	r24, 0x08	; 8
    14e0:	90 e0       	ldi	r25, 0x00	; 0
    14e2:	0e 94 8d 03 	call	0x71a	; 0x71a <timer_clear>
    14e6:	88 e0       	ldi	r24, 0x08	; 8
    14e8:	90 e0       	ldi	r25, 0x00	; 0
    14ea:	44 e6       	ldi	r20, 0x64	; 100
    14ec:	50 e0       	ldi	r21, 0x00	; 0
    14ee:	60 e0       	ldi	r22, 0x00	; 0
    14f0:	70 e0       	ldi	r23, 0x00	; 0
    14f2:	0e 94 5b 03 	call	0x6b6	; 0x6b6 <timer_set>
    14f6:	08 95       	ret

000014f8 <WTD_Task>:
    14f8:	83 e0       	ldi	r24, 0x03	; 3
    14fa:	90 e0       	ldi	r25, 0x00	; 0
    14fc:	0e 94 70 03 	call	0x6e0	; 0x6e0 <timer_get>
    1500:	89 2b       	or	r24, r25
    1502:	69 f4       	brne	.+26     	; 0x151e <WTD_Task+0x26>
    1504:	a8 95       	wdr
    1506:	83 e0       	ldi	r24, 0x03	; 3
    1508:	90 e0       	ldi	r25, 0x00	; 0
    150a:	0e 94 8d 03 	call	0x71a	; 0x71a <timer_clear>
    150e:	83 e0       	ldi	r24, 0x03	; 3
    1510:	90 e0       	ldi	r25, 0x00	; 0
    1512:	44 e6       	ldi	r20, 0x64	; 100
    1514:	50 e0       	ldi	r21, 0x00	; 0
    1516:	60 e0       	ldi	r22, 0x00	; 0
    1518:	70 e0       	ldi	r23, 0x00	; 0
    151a:	0e 94 5b 03 	call	0x6b6	; 0x6b6 <timer_set>
    151e:	08 95       	ret

00001520 <ZigbeeSend_Task>:
    1520:	8b e0       	ldi	r24, 0x0B	; 11
    1522:	90 e0       	ldi	r25, 0x00	; 0
    1524:	0e 94 70 03 	call	0x6e0	; 0x6e0 <timer_get>
    1528:	89 2b       	or	r24, r25
    152a:	71 f4       	brne	.+28     	; 0x1548 <ZigbeeSend_Task+0x28>
    152c:	8b e0       	ldi	r24, 0x0B	; 11
    152e:	90 e0       	ldi	r25, 0x00	; 0
    1530:	0e 94 8d 03 	call	0x71a	; 0x71a <timer_clear>
    1534:	8b e0       	ldi	r24, 0x0B	; 11
    1536:	90 e0       	ldi	r25, 0x00	; 0
    1538:	42 e3       	ldi	r20, 0x32	; 50
    153a:	50 e0       	ldi	r21, 0x00	; 0
    153c:	60 e0       	ldi	r22, 0x00	; 0
    153e:	70 e0       	ldi	r23, 0x00	; 0
    1540:	0e 94 5b 03 	call	0x6b6	; 0x6b6 <timer_set>
    1544:	0e 94 ae 09 	call	0x135c	; 0x135c <sendQueueingMessage>
    1548:	08 95       	ret

0000154a <ADC_Task>:
    154a:	81 e0       	ldi	r24, 0x01	; 1
    154c:	90 e0       	ldi	r25, 0x00	; 0
    154e:	0e 94 70 03 	call	0x6e0	; 0x6e0 <timer_get>
    1552:	89 2b       	or	r24, r25
    1554:	11 f5       	brne	.+68     	; 0x159a <ADC_Task+0x50>
    1556:	80 91 7a 00 	lds	r24, 0x007A
    155a:	80 64       	ori	r24, 0x40	; 64
    155c:	80 93 7a 00 	sts	0x007A, r24
    1560:	80 91 7a 00 	lds	r24, 0x007A
    1564:	84 ff       	sbrs	r24, 4
    1566:	fc cf       	rjmp	.-8      	; 0x1560 <ADC_Task+0x16>
    1568:	80 91 78 00 	lds	r24, 0x0078
    156c:	90 91 79 00 	lds	r25, 0x0079
    1570:	90 93 23 08 	sts	0x0823, r25
    1574:	80 93 22 08 	sts	0x0822, r24
    1578:	80 91 7a 00 	lds	r24, 0x007A
    157c:	80 61       	ori	r24, 0x10	; 16
    157e:	80 93 7a 00 	sts	0x007A, r24
    1582:	81 e0       	ldi	r24, 0x01	; 1
    1584:	90 e0       	ldi	r25, 0x00	; 0
    1586:	0e 94 8d 03 	call	0x71a	; 0x71a <timer_clear>
    158a:	81 e0       	ldi	r24, 0x01	; 1
    158c:	90 e0       	ldi	r25, 0x00	; 0
    158e:	4a e0       	ldi	r20, 0x0A	; 10
    1590:	50 e0       	ldi	r21, 0x00	; 0
    1592:	60 e0       	ldi	r22, 0x00	; 0
    1594:	70 e0       	ldi	r23, 0x00	; 0
    1596:	0e 94 5b 03 	call	0x6b6	; 0x6b6 <timer_set>
    159a:	89 e0       	ldi	r24, 0x09	; 9
    159c:	90 e0       	ldi	r25, 0x00	; 0
    159e:	0e 94 70 03 	call	0x6e0	; 0x6e0 <timer_get>
    15a2:	89 2b       	or	r24, r25
    15a4:	09 f0       	breq	.+2      	; 0x15a8 <ADC_Task+0x5e>
    15a6:	44 c0       	rjmp	.+136    	; 0x1630 <ADC_Task+0xe6>
    15a8:	86 e0       	ldi	r24, 0x06	; 6
    15aa:	80 93 7c 00 	sts	0x007C, r24
    15ae:	80 e4       	ldi	r24, 0x40	; 64
    15b0:	9c e9       	ldi	r25, 0x9C	; 156
    15b2:	01 97       	sbiw	r24, 0x01	; 1
    15b4:	f1 f7       	brne	.-4      	; 0x15b2 <ADC_Task+0x68>
    15b6:	80 91 7a 00 	lds	r24, 0x007A
    15ba:	80 64       	ori	r24, 0x40	; 64
    15bc:	80 93 7a 00 	sts	0x007A, r24
    15c0:	80 91 7a 00 	lds	r24, 0x007A
    15c4:	84 ff       	sbrs	r24, 4
    15c6:	fc cf       	rjmp	.-8      	; 0x15c0 <ADC_Task+0x76>
    15c8:	80 91 78 00 	lds	r24, 0x0078
    15cc:	90 91 79 00 	lds	r25, 0x0079
    15d0:	0e 94 b4 00 	call	0x168	; 0x168 <MSN_SetTemperature>
    15d4:	80 91 7a 00 	lds	r24, 0x007A
    15d8:	80 61       	ori	r24, 0x10	; 16
    15da:	80 93 7a 00 	sts	0x007A, r24
    15de:	87 e0       	ldi	r24, 0x07	; 7
    15e0:	80 93 7c 00 	sts	0x007C, r24
    15e4:	80 e4       	ldi	r24, 0x40	; 64
    15e6:	9c e9       	ldi	r25, 0x9C	; 156
    15e8:	01 97       	sbiw	r24, 0x01	; 1
    15ea:	f1 f7       	brne	.-4      	; 0x15e8 <ADC_Task+0x9e>
    15ec:	80 91 7a 00 	lds	r24, 0x007A
    15f0:	80 64       	ori	r24, 0x40	; 64
    15f2:	80 93 7a 00 	sts	0x007A, r24
    15f6:	80 91 7a 00 	lds	r24, 0x007A
    15fa:	84 ff       	sbrs	r24, 4
    15fc:	fc cf       	rjmp	.-8      	; 0x15f6 <ADC_Task+0xac>
    15fe:	80 91 78 00 	lds	r24, 0x0078
    1602:	90 91 79 00 	lds	r25, 0x0079
    1606:	0e 94 b9 00 	call	0x172	; 0x172 <MSN_SetIllumination>
    160a:	80 91 7a 00 	lds	r24, 0x007A
    160e:	80 61       	ori	r24, 0x10	; 16
    1610:	80 93 7a 00 	sts	0x007A, r24
    1614:	10 92 7c 00 	sts	0x007C, r1
    1618:	89 e0       	ldi	r24, 0x09	; 9
    161a:	90 e0       	ldi	r25, 0x00	; 0
    161c:	0e 94 8d 03 	call	0x71a	; 0x71a <timer_clear>
    1620:	89 e0       	ldi	r24, 0x09	; 9
    1622:	90 e0       	ldi	r25, 0x00	; 0
    1624:	48 eb       	ldi	r20, 0xB8	; 184
    1626:	5b e0       	ldi	r21, 0x0B	; 11
    1628:	60 e0       	ldi	r22, 0x00	; 0
    162a:	70 e0       	ldi	r23, 0x00	; 0
    162c:	0e 94 5b 03 	call	0x6b6	; 0x6b6 <timer_set>
    1630:	08 95       	ret

00001632 <isSensored>:
    1632:	bf 92       	push	r11
    1634:	cf 92       	push	r12
    1636:	df 92       	push	r13
    1638:	ef 92       	push	r14
    163a:	ff 92       	push	r15
    163c:	0f 93       	push	r16
    163e:	1f 93       	push	r17
    1640:	cf 93       	push	r28
    1642:	df 93       	push	r29
    1644:	10 92 85 03 	sts	0x0385, r1
    1648:	10 92 86 03 	sts	0x0386, r1
    164c:	5c e8       	ldi	r21, 0x8C	; 140
    164e:	c5 2e       	mov	r12, r21
    1650:	58 e0       	ldi	r21, 0x08	; 8
    1652:	d5 2e       	mov	r13, r21
    1654:	76 01       	movw	r14, r12
    1656:	47 e0       	ldi	r20, 0x07	; 7
    1658:	b4 2e       	mov	r11, r20
    165a:	f7 01       	movw	r30, r14
    165c:	c0 81       	ld	r28, Z
    165e:	d1 81       	ldd	r29, Z+1	; 0x01
    1660:	80 91 07 02 	lds	r24, 0x0207
    1664:	90 91 08 02 	lds	r25, 0x0208
    1668:	c8 17       	cp	r28, r24
    166a:	d9 07       	cpc	r29, r25
    166c:	08 f4       	brcc	.+2      	; 0x1670 <isSensored+0x3e>
    166e:	98 c0       	rjmp	.+304    	; 0x17a0 <isSensored+0x16e>
    1670:	00 91 07 02 	lds	r16, 0x0207
    1674:	10 91 08 02 	lds	r17, 0x0208
    1678:	0e 94 9e 00 	call	0x13c	; 0x13c <MSN_GetSensorDiff>
    167c:	c0 1b       	sub	r28, r16
    167e:	d1 0b       	sbc	r29, r17
    1680:	90 e0       	ldi	r25, 0x00	; 0
    1682:	c8 17       	cp	r28, r24
    1684:	d9 07       	cpc	r29, r25
    1686:	08 f4       	brcc	.+2      	; 0x168a <isSensored+0x58>
    1688:	8b c0       	rjmp	.+278    	; 0x17a0 <isSensored+0x16e>
    168a:	b3 94       	inc	r11
    168c:	82 e0       	ldi	r24, 0x02	; 2
    168e:	90 e0       	ldi	r25, 0x00	; 0
    1690:	e8 0e       	add	r14, r24
    1692:	f9 1e       	adc	r15, r25
    1694:	9a e0       	ldi	r25, 0x0A	; 10
    1696:	b9 16       	cp	r11, r25
    1698:	01 f7       	brne	.-64     	; 0x165a <isSensored+0x28>
    169a:	84 e1       	ldi	r24, 0x14	; 20
    169c:	80 93 85 03 	sts	0x0385, r24
    16a0:	bb 24       	eor	r11, r11
    16a2:	b3 94       	inc	r11
    16a4:	37 e0       	ldi	r19, 0x07	; 7
    16a6:	f3 2e       	mov	r15, r19
    16a8:	f6 01       	movw	r30, r12
    16aa:	c0 81       	ld	r28, Z
    16ac:	d1 81       	ldd	r29, Z+1	; 0x01
    16ae:	80 91 07 02 	lds	r24, 0x0207
    16b2:	90 91 08 02 	lds	r25, 0x0208
    16b6:	8c 17       	cp	r24, r28
    16b8:	9d 07       	cpc	r25, r29
    16ba:	c8 f0       	brcs	.+50     	; 0x16ee <isSensored+0xbc>
    16bc:	00 91 07 02 	lds	r16, 0x0207
    16c0:	10 91 08 02 	lds	r17, 0x0208
    16c4:	0e 94 9e 00 	call	0x13c	; 0x13c <MSN_GetSensorDiff>
    16c8:	0c 1b       	sub	r16, r28
    16ca:	1d 0b       	sbc	r17, r29
    16cc:	90 e0       	ldi	r25, 0x00	; 0
    16ce:	08 17       	cp	r16, r24
    16d0:	19 07       	cpc	r17, r25
    16d2:	68 f0       	brcs	.+26     	; 0x16ee <isSensored+0xbc>
    16d4:	f3 94       	inc	r15
    16d6:	82 e0       	ldi	r24, 0x02	; 2
    16d8:	90 e0       	ldi	r25, 0x00	; 0
    16da:	c8 0e       	add	r12, r24
    16dc:	d9 1e       	adc	r13, r25
    16de:	9a e0       	ldi	r25, 0x0A	; 10
    16e0:	f9 16       	cp	r15, r25
    16e2:	11 f7       	brne	.-60     	; 0x16a8 <isSensored+0x76>
    16e4:	84 e1       	ldi	r24, 0x14	; 20
    16e6:	80 93 85 03 	sts	0x0385, r24
    16ea:	bb 24       	eor	r11, r11
    16ec:	b3 94       	inc	r11
    16ee:	2e e7       	ldi	r18, 0x7E	; 126
    16f0:	e2 2e       	mov	r14, r18
    16f2:	28 e0       	ldi	r18, 0x08	; 8
    16f4:	f2 2e       	mov	r15, r18
    16f6:	dd 24       	eor	r13, r13
    16f8:	f7 01       	movw	r30, r14
    16fa:	c0 81       	ld	r28, Z
    16fc:	d1 81       	ldd	r29, Z+1	; 0x01
    16fe:	80 91 07 02 	lds	r24, 0x0207
    1702:	90 91 08 02 	lds	r25, 0x0208
    1706:	8c 17       	cp	r24, r28
    1708:	9d 07       	cpc	r25, r29
    170a:	68 f4       	brcc	.+26     	; 0x1726 <isSensored+0xf4>
    170c:	00 91 07 02 	lds	r16, 0x0207
    1710:	10 91 08 02 	lds	r17, 0x0208
    1714:	0e 94 9e 00 	call	0x13c	; 0x13c <MSN_GetSensorDiff>
    1718:	c0 1b       	sub	r28, r16
    171a:	d1 0b       	sbc	r29, r17
    171c:	90 e0       	ldi	r25, 0x00	; 0
    171e:	8c 17       	cp	r24, r28
    1720:	9d 07       	cpc	r25, r29
    1722:	70 f4       	brcc	.+28     	; 0x1740 <isSensored+0x10e>
    1724:	0c c0       	rjmp	.+24     	; 0x173e <isSensored+0x10c>
    1726:	00 91 07 02 	lds	r16, 0x0207
    172a:	10 91 08 02 	lds	r17, 0x0208
    172e:	0e 94 9e 00 	call	0x13c	; 0x13c <MSN_GetSensorDiff>
    1732:	0c 1b       	sub	r16, r28
    1734:	1d 0b       	sbc	r17, r29
    1736:	90 e0       	ldi	r25, 0x00	; 0
    1738:	80 17       	cp	r24, r16
    173a:	91 07       	cpc	r25, r17
    173c:	08 f4       	brcc	.+2      	; 0x1740 <isSensored+0x10e>
    173e:	d3 94       	inc	r13
    1740:	82 e0       	ldi	r24, 0x02	; 2
    1742:	90 e0       	ldi	r25, 0x00	; 0
    1744:	e8 0e       	add	r14, r24
    1746:	f9 1e       	adc	r15, r25
    1748:	92 e9       	ldi	r25, 0x92	; 146
    174a:	e9 16       	cp	r14, r25
    174c:	98 e0       	ldi	r25, 0x08	; 8
    174e:	f9 06       	cpc	r15, r25
    1750:	99 f6       	brne	.-90     	; 0x16f8 <isSensored+0xc6>
    1752:	6d 2d       	mov	r22, r13
    1754:	70 e0       	ldi	r23, 0x00	; 0
    1756:	88 27       	eor	r24, r24
    1758:	77 fd       	sbrc	r23, 7
    175a:	80 95       	com	r24
    175c:	98 2f       	mov	r25, r24
    175e:	0e 94 cb 10 	call	0x2196	; 0x2196 <__floatsisf>
    1762:	20 e0       	ldi	r18, 0x00	; 0
    1764:	30 e0       	ldi	r19, 0x00	; 0
    1766:	40 e9       	ldi	r20, 0x90	; 144
    1768:	50 e4       	ldi	r21, 0x40	; 64
    176a:	0e 94 9b 10 	call	0x2136	; 0x2136 <__gtsf2>
    176e:	18 16       	cp	r1, r24
    1770:	3c f4       	brge	.+14     	; 0x1780 <isSensored+0x14e>
    1772:	ea e0       	ldi	r30, 0x0A	; 10
    1774:	de 0e       	add	r13, r30
    1776:	d0 92 86 03 	sts	0x0386, r13
    177a:	bb 24       	eor	r11, r11
    177c:	b3 94       	inc	r11
    177e:	02 c0       	rjmp	.+4      	; 0x1784 <isSensored+0x152>
    1780:	d0 92 86 03 	sts	0x0386, r13
    1784:	b0 92 84 03 	sts	0x0384, r11
    1788:	80 91 84 03 	lds	r24, 0x0384
    178c:	df 91       	pop	r29
    178e:	cf 91       	pop	r28
    1790:	1f 91       	pop	r17
    1792:	0f 91       	pop	r16
    1794:	ff 90       	pop	r15
    1796:	ef 90       	pop	r14
    1798:	df 90       	pop	r13
    179a:	cf 90       	pop	r12
    179c:	bf 90       	pop	r11
    179e:	08 95       	ret
    17a0:	bb 24       	eor	r11, r11
    17a2:	80 cf       	rjmp	.-256    	; 0x16a4 <isSensored+0x72>

000017a4 <debugModeTask>:
    17a4:	cf 92       	push	r12
    17a6:	df 92       	push	r13
    17a8:	ef 92       	push	r14
    17aa:	0f 93       	push	r16
    17ac:	1f 93       	push	r17
    17ae:	86 e0       	ldi	r24, 0x06	; 6
    17b0:	90 e0       	ldi	r25, 0x00	; 0
    17b2:	0e 94 70 03 	call	0x6e0	; 0x6e0 <timer_get>
    17b6:	89 2b       	or	r24, r25
    17b8:	e1 f5       	brne	.+120    	; 0x1832 <debugModeTask+0x8e>
    17ba:	0e 94 a1 00 	call	0x142	; 0x142 <MSN_IsNormalMode>
    17be:	88 23       	and	r24, r24
    17c0:	61 f5       	brne	.+88     	; 0x181a <debugModeTask+0x76>
    17c2:	0e 94 a2 05 	call	0xb44	; 0xb44 <getZigbeeState>
    17c6:	82 33       	cpi	r24, 0x32	; 50
    17c8:	a9 f4       	brne	.+42     	; 0x17f4 <debugModeTask+0x50>
    17ca:	10 91 87 03 	lds	r17, 0x0387
    17ce:	c0 90 07 02 	lds	r12, 0x0207
    17d2:	d0 90 08 02 	lds	r13, 0x0208
    17d6:	0e 94 9e 00 	call	0x13c	; 0x13c <MSN_GetSensorDiff>
    17da:	28 2f       	mov	r18, r24
    17dc:	00 91 85 03 	lds	r16, 0x0385
    17e0:	e0 90 86 03 	lds	r14, 0x0386
    17e4:	81 2f       	mov	r24, r17
    17e6:	62 e9       	ldi	r22, 0x92	; 146
    17e8:	78 e0       	ldi	r23, 0x08	; 8
    17ea:	a6 01       	movw	r20, r12
    17ec:	0e 94 f9 00 	call	0x1f2	; 0x1f2 <GCP_SendNoticeEvent_Debug>
    17f0:	10 92 87 03 	sts	0x0387, r1
    17f4:	80 91 92 03 	lds	r24, 0x0392
    17f8:	90 91 93 03 	lds	r25, 0x0393
    17fc:	01 96       	adiw	r24, 0x01	; 1
    17fe:	90 93 93 03 	sts	0x0393, r25
    1802:	80 93 92 03 	sts	0x0392, r24
    1806:	89 5b       	subi	r24, 0xB9	; 185
    1808:	9b 40       	sbci	r25, 0x0B	; 11
    180a:	38 f0       	brcs	.+14     	; 0x181a <debugModeTask+0x76>
    180c:	81 e0       	ldi	r24, 0x01	; 1
    180e:	0e 94 a7 00 	call	0x14e	; 0x14e <MSN_SetNormalMode>
    1812:	10 92 93 03 	sts	0x0393, r1
    1816:	10 92 92 03 	sts	0x0392, r1
    181a:	86 e0       	ldi	r24, 0x06	; 6
    181c:	90 e0       	ldi	r25, 0x00	; 0
    181e:	0e 94 8d 03 	call	0x71a	; 0x71a <timer_clear>
    1822:	86 e0       	ldi	r24, 0x06	; 6
    1824:	90 e0       	ldi	r25, 0x00	; 0
    1826:	44 e6       	ldi	r20, 0x64	; 100
    1828:	50 e0       	ldi	r21, 0x00	; 0
    182a:	60 e0       	ldi	r22, 0x00	; 0
    182c:	70 e0       	ldi	r23, 0x00	; 0
    182e:	0e 94 5b 03 	call	0x6b6	; 0x6b6 <timer_set>
    1832:	1f 91       	pop	r17
    1834:	0f 91       	pop	r16
    1836:	ef 90       	pop	r14
    1838:	df 90       	pop	r13
    183a:	cf 90       	pop	r12
    183c:	08 95       	ret

0000183e <sensorTask>:
    183e:	1f 93       	push	r17
    1840:	df 93       	push	r29
    1842:	cf 93       	push	r28
    1844:	0f 92       	push	r0
    1846:	cd b7       	in	r28, 0x3d	; 61
    1848:	de b7       	in	r29, 0x3e	; 62
    184a:	0e 94 9e 00 	call	0x13c	; 0x13c <MSN_GetSensorDiff>
    184e:	89 83       	std	Y+1, r24	; 0x01
    1850:	10 91 a6 08 	lds	r17, 0x08A6
    1854:	0e 94 9e 00 	call	0x13c	; 0x13c <MSN_GetSensorDiff>
    1858:	18 17       	cp	r17, r24
    185a:	61 f0       	breq	.+24     	; 0x1874 <sensorTask+0x36>
    185c:	0e 94 9e 00 	call	0x13c	; 0x13c <MSN_GetSensorDiff>
    1860:	80 93 a6 08 	sts	0x08A6, r24
    1864:	ce 01       	movw	r24, r28
    1866:	01 96       	adiw	r24, 0x01	; 1
    1868:	60 e0       	ldi	r22, 0x00	; 0
    186a:	70 e0       	ldi	r23, 0x00	; 0
    186c:	41 e0       	ldi	r20, 0x01	; 1
    186e:	50 e0       	ldi	r21, 0x00	; 0
    1870:	0e 94 b7 15 	call	0x2b6e	; 0x2b6e <__eewr_block_m328p>
    1874:	87 e0       	ldi	r24, 0x07	; 7
    1876:	90 e0       	ldi	r25, 0x00	; 0
    1878:	0e 94 70 03 	call	0x6e0	; 0x6e0 <timer_get>
    187c:	89 2b       	or	r24, r25
    187e:	09 f0       	breq	.+2      	; 0x1882 <sensorTask+0x44>
    1880:	56 c0       	rjmp	.+172    	; 0x192e <sensorTask+0xf0>
    1882:	0e 94 2e 0a 	call	0x145c	; 0x145c <getAdc_10ms>
    1886:	80 91 8d 03 	lds	r24, 0x038D
    188a:	80 93 8c 03 	sts	0x038C, r24
    188e:	0e 94 19 0b 	call	0x1632	; 0x1632 <isSensored>
    1892:	80 93 8d 03 	sts	0x038D, r24
    1896:	88 23       	and	r24, r24
    1898:	29 f0       	breq	.+10     	; 0x18a4 <sensorTask+0x66>
    189a:	29 9a       	sbi	0x05, 1	; 5
    189c:	81 e0       	ldi	r24, 0x01	; 1
    189e:	80 93 88 03 	sts	0x0388, r24
    18a2:	01 c0       	rjmp	.+2      	; 0x18a6 <sensorTask+0x68>
    18a4:	29 98       	cbi	0x05, 1	; 5
    18a6:	0e 94 a2 05 	call	0xb44	; 0xb44 <getZigbeeState>
    18aa:	82 33       	cpi	r24, 0x32	; 50
    18ac:	11 f5       	brne	.+68     	; 0x18f2 <sensorTask+0xb4>
    18ae:	80 91 8c 03 	lds	r24, 0x038C
    18b2:	88 23       	and	r24, r24
    18b4:	21 f4       	brne	.+8      	; 0x18be <sensorTask+0x80>
    18b6:	80 91 8d 03 	lds	r24, 0x038D
    18ba:	81 30       	cpi	r24, 0x01	; 1
    18bc:	d1 f4       	brne	.+52     	; 0x18f2 <sensorTask+0xb4>
    18be:	20 91 8e 03 	lds	r18, 0x038E
    18c2:	30 91 8f 03 	lds	r19, 0x038F
    18c6:	80 91 90 03 	lds	r24, 0x0390
    18ca:	90 91 91 03 	lds	r25, 0x0391
    18ce:	82 17       	cp	r24, r18
    18d0:	93 07       	cpc	r25, r19
    18d2:	78 f4       	brcc	.+30     	; 0x18f2 <sensorTask+0xb4>
    18d4:	0e 94 d4 01 	call	0x3a8	; 0x3a8 <GCP_SendNoticeEvent>
    18d8:	10 92 8f 03 	sts	0x038F, r1
    18dc:	10 92 8e 03 	sts	0x038E, r1
    18e0:	80 91 90 03 	lds	r24, 0x0390
    18e4:	90 91 91 03 	lds	r25, 0x0391
    18e8:	44 96       	adiw	r24, 0x14	; 20
    18ea:	90 93 91 03 	sts	0x0391, r25
    18ee:	80 93 90 03 	sts	0x0390, r24
    18f2:	80 91 8e 03 	lds	r24, 0x038E
    18f6:	90 91 8f 03 	lds	r25, 0x038F
    18fa:	21 e0       	ldi	r18, 0x01	; 1
    18fc:	8d 32       	cpi	r24, 0x2D	; 45
    18fe:	92 07       	cpc	r25, r18
    1900:	28 f0       	brcs	.+10     	; 0x190c <sensorTask+0xce>
    1902:	10 92 91 03 	sts	0x0391, r1
    1906:	10 92 90 03 	sts	0x0390, r1
    190a:	05 c0       	rjmp	.+10     	; 0x1916 <sensorTask+0xd8>
    190c:	01 96       	adiw	r24, 0x01	; 1
    190e:	90 93 8f 03 	sts	0x038F, r25
    1912:	80 93 8e 03 	sts	0x038E, r24
    1916:	87 e0       	ldi	r24, 0x07	; 7
    1918:	90 e0       	ldi	r25, 0x00	; 0
    191a:	0e 94 8d 03 	call	0x71a	; 0x71a <timer_clear>
    191e:	87 e0       	ldi	r24, 0x07	; 7
    1920:	90 e0       	ldi	r25, 0x00	; 0
    1922:	4a e0       	ldi	r20, 0x0A	; 10
    1924:	50 e0       	ldi	r21, 0x00	; 0
    1926:	60 e0       	ldi	r22, 0x00	; 0
    1928:	70 e0       	ldi	r23, 0x00	; 0
    192a:	0e 94 5b 03 	call	0x6b6	; 0x6b6 <timer_set>
    192e:	0f 90       	pop	r0
    1930:	cf 91       	pop	r28
    1932:	df 91       	pop	r29
    1934:	1f 91       	pop	r17
    1936:	08 95       	ret

00001938 <NCP_Task>:
    1938:	84 e0       	ldi	r24, 0x04	; 4
    193a:	90 e0       	ldi	r25, 0x00	; 0
    193c:	0e 94 70 03 	call	0x6e0	; 0x6e0 <timer_get>
    1940:	89 2b       	or	r24, r25
    1942:	39 f5       	brne	.+78     	; 0x1992 <NCP_Task+0x5a>
    1944:	0e 94 70 02 	call	0x4e0	; 0x4e0 <ncp_ConnState>
    1948:	88 23       	and	r24, r24
    194a:	89 f4       	brne	.+34     	; 0x196e <NCP_Task+0x36>
    194c:	0e 94 a2 05 	call	0xb44	; 0xb44 <getZigbeeState>
    1950:	82 33       	cpi	r24, 0x32	; 50
    1952:	11 f4       	brne	.+4      	; 0x1958 <NCP_Task+0x20>
    1954:	0e 94 b8 02 	call	0x570	; 0x570 <ncp_SendRegisterReq>
    1958:	84 e0       	ldi	r24, 0x04	; 4
    195a:	90 e0       	ldi	r25, 0x00	; 0
    195c:	0e 94 8d 03 	call	0x71a	; 0x71a <timer_clear>
    1960:	84 e0       	ldi	r24, 0x04	; 4
    1962:	90 e0       	ldi	r25, 0x00	; 0
    1964:	40 e1       	ldi	r20, 0x10	; 16
    1966:	57 e2       	ldi	r21, 0x27	; 39
    1968:	60 e0       	ldi	r22, 0x00	; 0
    196a:	70 e0       	ldi	r23, 0x00	; 0
    196c:	10 c0       	rjmp	.+32     	; 0x198e <NCP_Task+0x56>
    196e:	0e 94 a2 05 	call	0xb44	; 0xb44 <getZigbeeState>
    1972:	82 33       	cpi	r24, 0x32	; 50
    1974:	11 f4       	brne	.+4      	; 0x197a <NCP_Task+0x42>
    1976:	0e 94 f2 02 	call	0x5e4	; 0x5e4 <ncp_SendPingReq>
    197a:	84 e0       	ldi	r24, 0x04	; 4
    197c:	90 e0       	ldi	r25, 0x00	; 0
    197e:	0e 94 8d 03 	call	0x71a	; 0x71a <timer_clear>
    1982:	84 e0       	ldi	r24, 0x04	; 4
    1984:	90 e0       	ldi	r25, 0x00	; 0
    1986:	40 e2       	ldi	r20, 0x20	; 32
    1988:	5e e4       	ldi	r21, 0x4E	; 78
    198a:	60 e0       	ldi	r22, 0x00	; 0
    198c:	70 e0       	ldi	r23, 0x00	; 0
    198e:	0e 94 5b 03 	call	0x6b6	; 0x6b6 <timer_set>
    1992:	85 e0       	ldi	r24, 0x05	; 5
    1994:	90 e0       	ldi	r25, 0x00	; 0
    1996:	0e 94 70 03 	call	0x6e0	; 0x6e0 <timer_get>
    199a:	89 2b       	or	r24, r25
    199c:	29 f5       	brne	.+74     	; 0x19e8 <NCP_Task+0xb0>
    199e:	0e 94 17 10 	call	0x202e	; 0x202e <rotary_GetValue>
    19a2:	90 e0       	ldi	r25, 0x00	; 0
    19a4:	92 60       	ori	r25, 0x02	; 2
    19a6:	20 91 98 03 	lds	r18, 0x0398
    19aa:	30 91 99 03 	lds	r19, 0x0399
    19ae:	82 17       	cp	r24, r18
    19b0:	93 07       	cpc	r25, r19
    19b2:	19 f0       	breq	.+6      	; 0x19ba <NCP_Task+0x82>
    19b4:	84 e1       	ldi	r24, 0x14	; 20
    19b6:	0e 94 a5 05 	call	0xb4a	; 0xb4a <setZigbeeState>
    19ba:	85 e0       	ldi	r24, 0x05	; 5
    19bc:	90 e0       	ldi	r25, 0x00	; 0
    19be:	0e 94 8d 03 	call	0x71a	; 0x71a <timer_clear>
    19c2:	0e 94 a2 05 	call	0xb44	; 0xb44 <getZigbeeState>
    19c6:	82 33       	cpi	r24, 0x32	; 50
    19c8:	39 f4       	brne	.+14     	; 0x19d8 <NCP_Task+0xa0>
    19ca:	85 e0       	ldi	r24, 0x05	; 5
    19cc:	90 e0       	ldi	r25, 0x00	; 0
    19ce:	48 e8       	ldi	r20, 0x88	; 136
    19d0:	53 e1       	ldi	r21, 0x13	; 19
    19d2:	60 e0       	ldi	r22, 0x00	; 0
    19d4:	70 e0       	ldi	r23, 0x00	; 0
    19d6:	06 c0       	rjmp	.+12     	; 0x19e4 <NCP_Task+0xac>
    19d8:	85 e0       	ldi	r24, 0x05	; 5
    19da:	90 e0       	ldi	r25, 0x00	; 0
    19dc:	40 e2       	ldi	r20, 0x20	; 32
    19de:	5e e4       	ldi	r21, 0x4E	; 78
    19e0:	60 e0       	ldi	r22, 0x00	; 0
    19e2:	70 e0       	ldi	r23, 0x00	; 0
    19e4:	0e 94 5b 03 	call	0x6b6	; 0x6b6 <timer_set>
    19e8:	8a e0       	ldi	r24, 0x0A	; 10
    19ea:	90 e0       	ldi	r25, 0x00	; 0
    19ec:	0e 94 70 03 	call	0x6e0	; 0x6e0 <timer_get>
    19f0:	89 2b       	or	r24, r25
    19f2:	a9 f4       	brne	.+42     	; 0x1a1e <NCP_Task+0xe6>
    19f4:	8a e0       	ldi	r24, 0x0A	; 10
    19f6:	90 e0       	ldi	r25, 0x00	; 0
    19f8:	0e 94 8d 03 	call	0x71a	; 0x71a <timer_clear>
    19fc:	8a e0       	ldi	r24, 0x0A	; 10
    19fe:	90 e0       	ldi	r25, 0x00	; 0
    1a00:	40 ec       	ldi	r20, 0xC0	; 192
    1a02:	54 ed       	ldi	r21, 0xD4	; 212
    1a04:	61 e0       	ldi	r22, 0x01	; 1
    1a06:	70 e0       	ldi	r23, 0x00	; 0
    1a08:	0e 94 5b 03 	call	0x6b6	; 0x6b6 <timer_set>
    1a0c:	81 e0       	ldi	r24, 0x01	; 1
    1a0e:	90 e0       	ldi	r25, 0x00	; 0
    1a10:	0e 94 53 07 	call	0xea6	; 0xea6 <ZRMsendPI>
    1a14:	0e 94 85 06 	call	0xd0a	; 0xd0a <ZRMsendATZ>
    1a18:	80 e0       	ldi	r24, 0x00	; 0
    1a1a:	0e 94 a5 05 	call	0xb4a	; 0xb4a <setZigbeeState>
    1a1e:	08 95       	ret

00001a20 <Zigbee_Task>:
    1a20:	0f 93       	push	r16
    1a22:	1f 93       	push	r17
    1a24:	82 e0       	ldi	r24, 0x02	; 2
    1a26:	90 e0       	ldi	r25, 0x00	; 0
    1a28:	0e 94 70 03 	call	0x6e0	; 0x6e0 <timer_get>
    1a2c:	89 2b       	or	r24, r25
    1a2e:	09 f0       	breq	.+2      	; 0x1a32 <Zigbee_Task+0x12>
    1a30:	0e c2       	rjmp	.+1052   	; 0x1e4e <Zigbee_Task+0x42e>
    1a32:	82 e0       	ldi	r24, 0x02	; 2
    1a34:	90 e0       	ldi	r25, 0x00	; 0
    1a36:	0e 94 8d 03 	call	0x71a	; 0x71a <timer_clear>
    1a3a:	0e 94 a2 05 	call	0xb44	; 0xb44 <getZigbeeState>
    1a3e:	88 31       	cpi	r24, 0x18	; 24
    1a40:	09 f4       	brne	.+2      	; 0x1a44 <Zigbee_Task+0x24>
    1a42:	7f c1       	rjmp	.+766    	; 0x1d42 <Zigbee_Task+0x322>
    1a44:	89 31       	cpi	r24, 0x19	; 25
    1a46:	c0 f4       	brcc	.+48     	; 0x1a78 <Zigbee_Task+0x58>
    1a48:	83 30       	cpi	r24, 0x03	; 3
    1a4a:	09 f4       	brne	.+2      	; 0x1a4e <Zigbee_Task+0x2e>
    1a4c:	94 c0       	rjmp	.+296    	; 0x1b76 <Zigbee_Task+0x156>
    1a4e:	84 30       	cpi	r24, 0x04	; 4
    1a50:	48 f4       	brcc	.+18     	; 0x1a64 <Zigbee_Task+0x44>
    1a52:	81 30       	cpi	r24, 0x01	; 1
    1a54:	09 f4       	brne	.+2      	; 0x1a58 <Zigbee_Task+0x38>
    1a56:	56 c0       	rjmp	.+172    	; 0x1b04 <Zigbee_Task+0xe4>
    1a58:	90 91 8b 03 	lds	r25, 0x038B
    1a5c:	82 30       	cpi	r24, 0x02	; 2
    1a5e:	08 f0       	brcs	.+2      	; 0x1a62 <Zigbee_Task+0x42>
    1a60:	6a c0       	rjmp	.+212    	; 0x1b36 <Zigbee_Task+0x116>
    1a62:	26 c0       	rjmp	.+76     	; 0x1ab0 <Zigbee_Task+0x90>
    1a64:	86 31       	cpi	r24, 0x16	; 22
    1a66:	09 f4       	brne	.+2      	; 0x1a6a <Zigbee_Task+0x4a>
    1a68:	c4 c0       	rjmp	.+392    	; 0x1bf2 <Zigbee_Task+0x1d2>
    1a6a:	87 31       	cpi	r24, 0x17	; 23
    1a6c:	08 f0       	brcs	.+2      	; 0x1a70 <Zigbee_Task+0x50>
    1a6e:	dc c0       	rjmp	.+440    	; 0x1c28 <Zigbee_Task+0x208>
    1a70:	84 31       	cpi	r24, 0x14	; 20
    1a72:	09 f0       	breq	.+2      	; 0x1a76 <Zigbee_Task+0x56>
    1a74:	ec c1       	rjmp	.+984    	; 0x1e4e <Zigbee_Task+0x42e>
    1a76:	a3 c0       	rjmp	.+326    	; 0x1bbe <Zigbee_Task+0x19e>
    1a78:	8e 31       	cpi	r24, 0x1E	; 30
    1a7a:	09 f4       	brne	.+2      	; 0x1a7e <Zigbee_Task+0x5e>
    1a7c:	aa c1       	rjmp	.+852    	; 0x1dd2 <Zigbee_Task+0x3b2>
    1a7e:	8f 31       	cpi	r24, 0x1F	; 31
    1a80:	50 f4       	brcc	.+20     	; 0x1a96 <Zigbee_Task+0x76>
    1a82:	8c 31       	cpi	r24, 0x1C	; 28
    1a84:	09 f4       	brne	.+2      	; 0x1a88 <Zigbee_Task+0x68>
    1a86:	ea c0       	rjmp	.+468    	; 0x1c5c <Zigbee_Task+0x23c>
    1a88:	8d 31       	cpi	r24, 0x1D	; 29
    1a8a:	08 f0       	brcs	.+2      	; 0x1a8e <Zigbee_Task+0x6e>
    1a8c:	86 c1       	rjmp	.+780    	; 0x1d9a <Zigbee_Task+0x37a>
    1a8e:	89 31       	cpi	r24, 0x19	; 25
    1a90:	09 f0       	breq	.+2      	; 0x1a94 <Zigbee_Task+0x74>
    1a92:	dd c1       	rjmp	.+954    	; 0x1e4e <Zigbee_Task+0x42e>
    1a94:	37 c1       	rjmp	.+622    	; 0x1d04 <Zigbee_Task+0x2e4>
    1a96:	80 32       	cpi	r24, 0x20	; 32
    1a98:	09 f4       	brne	.+2      	; 0x1a9c <Zigbee_Task+0x7c>
    1a9a:	18 c1       	rjmp	.+560    	; 0x1ccc <Zigbee_Task+0x2ac>
    1a9c:	80 32       	cpi	r24, 0x20	; 32
    1a9e:	08 f4       	brcc	.+2      	; 0x1aa2 <Zigbee_Task+0x82>
    1aa0:	fa c0       	rjmp	.+500    	; 0x1c96 <Zigbee_Task+0x276>
    1aa2:	82 33       	cpi	r24, 0x32	; 50
    1aa4:	09 f4       	brne	.+2      	; 0x1aa8 <Zigbee_Task+0x88>
    1aa6:	c6 c1       	rjmp	.+908    	; 0x1e34 <Zigbee_Task+0x414>
    1aa8:	83 33       	cpi	r24, 0x33	; 51
    1aaa:	09 f0       	breq	.+2      	; 0x1aae <Zigbee_Task+0x8e>
    1aac:	d0 c1       	rjmp	.+928    	; 0x1e4e <Zigbee_Task+0x42e>
    1aae:	c7 c1       	rjmp	.+910    	; 0x1e3e <Zigbee_Task+0x41e>
    1ab0:	95 31       	cpi	r25, 0x15	; 21
    1ab2:	60 f0       	brcs	.+24     	; 0x1acc <Zigbee_Task+0xac>
    1ab4:	10 92 8b 03 	sts	0x038B, r1
    1ab8:	84 e1       	ldi	r24, 0x14	; 20
    1aba:	0e 94 a5 05 	call	0xb4a	; 0xb4a <setZigbeeState>
    1abe:	82 e0       	ldi	r24, 0x02	; 2
    1ac0:	90 e0       	ldi	r25, 0x00	; 0
    1ac2:	48 ec       	ldi	r20, 0xC8	; 200
    1ac4:	50 e0       	ldi	r21, 0x00	; 0
    1ac6:	60 e0       	ldi	r22, 0x00	; 0
    1ac8:	70 e0       	ldi	r23, 0x00	; 0
    1aca:	bf c1       	rjmp	.+894    	; 0x1e4a <Zigbee_Task+0x42a>
    1acc:	89 2f       	mov	r24, r25
    1ace:	65 e0       	ldi	r22, 0x05	; 5
    1ad0:	0e 94 1e 13 	call	0x263c	; 0x263c <__udivmodqi4>
    1ad4:	99 23       	and	r25, r25
    1ad6:	09 f4       	brne	.+2      	; 0x1ada <Zigbee_Task+0xba>
    1ad8:	95 c1       	rjmp	.+810    	; 0x1e04 <Zigbee_Task+0x3e4>
    1ada:	0e 94 a8 05 	call	0xb50	; 0xb50 <getLastResult>
    1ade:	88 23       	and	r24, r24
    1ae0:	09 f4       	brne	.+2      	; 0x1ae4 <Zigbee_Task+0xc4>
    1ae2:	90 c1       	rjmp	.+800    	; 0x1e04 <Zigbee_Task+0x3e4>
    1ae4:	0e 94 a8 05 	call	0xb50	; 0xb50 <getLastResult>
    1ae8:	81 30       	cpi	r24, 0x01	; 1
    1aea:	09 f0       	breq	.+2      	; 0x1aee <Zigbee_Task+0xce>
    1aec:	1b c1       	rjmp	.+566    	; 0x1d24 <Zigbee_Task+0x304>
    1aee:	10 92 8b 03 	sts	0x038B, r1
    1af2:	0e 94 a5 05 	call	0xb4a	; 0xb4a <setZigbeeState>
    1af6:	82 e0       	ldi	r24, 0x02	; 2
    1af8:	90 e0       	ldi	r25, 0x00	; 0
    1afa:	4a e0       	ldi	r20, 0x0A	; 10
    1afc:	50 e0       	ldi	r21, 0x00	; 0
    1afe:	60 e0       	ldi	r22, 0x00	; 0
    1b00:	70 e0       	ldi	r23, 0x00	; 0
    1b02:	a3 c1       	rjmp	.+838    	; 0x1e4a <Zigbee_Task+0x42a>
    1b04:	80 91 8b 03 	lds	r24, 0x038B
    1b08:	85 31       	cpi	r24, 0x15	; 21
    1b0a:	c8 f5       	brcc	.+114    	; 0x1b7e <Zigbee_Task+0x15e>
    1b0c:	65 e0       	ldi	r22, 0x05	; 5
    1b0e:	0e 94 1e 13 	call	0x263c	; 0x263c <__udivmodqi4>
    1b12:	99 23       	and	r25, r25
    1b14:	21 f0       	breq	.+8      	; 0x1b1e <Zigbee_Task+0xfe>
    1b16:	0e 94 a8 05 	call	0xb50	; 0xb50 <getLastResult>
    1b1a:	88 23       	and	r24, r24
    1b1c:	19 f4       	brne	.+6      	; 0x1b24 <Zigbee_Task+0x104>
    1b1e:	0e 94 1c 08 	call	0x1038	; 0x1038 <ZRMreadOI>
    1b22:	00 c1       	rjmp	.+512    	; 0x1d24 <Zigbee_Task+0x304>
    1b24:	0e 94 a8 05 	call	0xb50	; 0xb50 <getLastResult>
    1b28:	81 30       	cpi	r24, 0x01	; 1
    1b2a:	09 f0       	breq	.+2      	; 0x1b2e <Zigbee_Task+0x10e>
    1b2c:	5b c1       	rjmp	.+694    	; 0x1de4 <Zigbee_Task+0x3c4>
    1b2e:	10 92 8b 03 	sts	0x038B, r1
    1b32:	82 e0       	ldi	r24, 0x02	; 2
    1b34:	55 c1       	rjmp	.+682    	; 0x1de0 <Zigbee_Task+0x3c0>
    1b36:	95 31       	cpi	r25, 0x15	; 21
    1b38:	10 f5       	brcc	.+68     	; 0x1b7e <Zigbee_Task+0x15e>
    1b3a:	89 2f       	mov	r24, r25
    1b3c:	65 e0       	ldi	r22, 0x05	; 5
    1b3e:	0e 94 1e 13 	call	0x263c	; 0x263c <__udivmodqi4>
    1b42:	99 23       	and	r25, r25
    1b44:	21 f0       	breq	.+8      	; 0x1b4e <Zigbee_Task+0x12e>
    1b46:	0e 94 a8 05 	call	0xb50	; 0xb50 <getLastResult>
    1b4a:	88 23       	and	r24, r24
    1b4c:	19 f4       	brne	.+6      	; 0x1b54 <Zigbee_Task+0x134>
    1b4e:	0e 94 67 06 	call	0xcce	; 0xcce <ZRMreadSA>
    1b52:	e8 c0       	rjmp	.+464    	; 0x1d24 <Zigbee_Task+0x304>
    1b54:	0e 94 a8 05 	call	0xb50	; 0xb50 <getLastResult>
    1b58:	81 30       	cpi	r24, 0x01	; 1
    1b5a:	09 f0       	breq	.+2      	; 0x1b5e <Zigbee_Task+0x13e>
    1b5c:	43 c1       	rjmp	.+646    	; 0x1de4 <Zigbee_Task+0x3c4>
    1b5e:	10 92 8b 03 	sts	0x038B, r1
    1b62:	80 91 9a 03 	lds	r24, 0x039A
    1b66:	90 91 9b 03 	lds	r25, 0x039B
    1b6a:	8e 5f       	subi	r24, 0xFE	; 254
    1b6c:	9f 4f       	sbci	r25, 0xFF	; 255
    1b6e:	09 f4       	brne	.+2      	; 0x1b72 <Zigbee_Task+0x152>
    1b70:	36 c1       	rjmp	.+620    	; 0x1dde <Zigbee_Task+0x3be>
    1b72:	83 e0       	ldi	r24, 0x03	; 3
    1b74:	35 c1       	rjmp	.+618    	; 0x1de0 <Zigbee_Task+0x3c0>
    1b76:	80 91 8b 03 	lds	r24, 0x038B
    1b7a:	85 31       	cpi	r24, 0x15	; 21
    1b7c:	20 f0       	brcs	.+8      	; 0x1b86 <Zigbee_Task+0x166>
    1b7e:	10 92 8b 03 	sts	0x038B, r1
    1b82:	80 e0       	ldi	r24, 0x00	; 0
    1b84:	2d c1       	rjmp	.+602    	; 0x1de0 <Zigbee_Task+0x3c0>
    1b86:	65 e0       	ldi	r22, 0x05	; 5
    1b88:	0e 94 1e 13 	call	0x263c	; 0x263c <__udivmodqi4>
    1b8c:	99 23       	and	r25, r25
    1b8e:	21 f0       	breq	.+8      	; 0x1b98 <Zigbee_Task+0x178>
    1b90:	0e 94 a8 05 	call	0xb50	; 0xb50 <getLastResult>
    1b94:	88 23       	and	r24, r24
    1b96:	19 f4       	brne	.+6      	; 0x1b9e <Zigbee_Task+0x17e>
    1b98:	0e 94 71 06 	call	0xce2	; 0xce2 <ZRMreadLA>
    1b9c:	c3 c0       	rjmp	.+390    	; 0x1d24 <Zigbee_Task+0x304>
    1b9e:	0e 94 a8 05 	call	0xb50	; 0xb50 <getLastResult>
    1ba2:	81 30       	cpi	r24, 0x01	; 1
    1ba4:	09 f0       	breq	.+2      	; 0x1ba8 <Zigbee_Task+0x188>
    1ba6:	1e c1       	rjmp	.+572    	; 0x1de4 <Zigbee_Task+0x3c4>
    1ba8:	10 92 8b 03 	sts	0x038B, r1
    1bac:	80 91 96 03 	lds	r24, 0x0396
    1bb0:	90 91 97 03 	lds	r25, 0x0397
    1bb4:	89 2b       	or	r24, r25
    1bb6:	09 f4       	brne	.+2      	; 0x1bba <Zigbee_Task+0x19a>
    1bb8:	15 c1       	rjmp	.+554    	; 0x1de4 <Zigbee_Task+0x3c4>
    1bba:	82 e3       	ldi	r24, 0x32	; 50
    1bbc:	11 c1       	rjmp	.+546    	; 0x1de0 <Zigbee_Task+0x3c0>
    1bbe:	80 91 8b 03 	lds	r24, 0x038B
    1bc2:	85 31       	cpi	r24, 0x15	; 21
    1bc4:	08 f0       	brcs	.+2      	; 0x1bc8 <Zigbee_Task+0x1a8>
    1bc6:	09 c1       	rjmp	.+530    	; 0x1dda <Zigbee_Task+0x3ba>
    1bc8:	65 e0       	ldi	r22, 0x05	; 5
    1bca:	0e 94 1e 13 	call	0x263c	; 0x263c <__udivmodqi4>
    1bce:	99 23       	and	r25, r25
    1bd0:	21 f0       	breq	.+8      	; 0x1bda <Zigbee_Task+0x1ba>
    1bd2:	0e 94 a8 05 	call	0xb50	; 0xb50 <getLastResult>
    1bd6:	88 23       	and	r24, r24
    1bd8:	19 f4       	brne	.+6      	; 0x1be0 <Zigbee_Task+0x1c0>
    1bda:	0e 94 b6 07 	call	0xf6c	; 0xf6c <ZRMsendUF>
    1bde:	a2 c0       	rjmp	.+324    	; 0x1d24 <Zigbee_Task+0x304>
    1be0:	0e 94 a8 05 	call	0xb50	; 0xb50 <getLastResult>
    1be4:	81 30       	cpi	r24, 0x01	; 1
    1be6:	09 f0       	breq	.+2      	; 0x1bea <Zigbee_Task+0x1ca>
    1be8:	fd c0       	rjmp	.+506    	; 0x1de4 <Zigbee_Task+0x3c4>
    1bea:	10 92 8b 03 	sts	0x038B, r1
    1bee:	86 e1       	ldi	r24, 0x16	; 22
    1bf0:	f7 c0       	rjmp	.+494    	; 0x1de0 <Zigbee_Task+0x3c0>
    1bf2:	80 91 8b 03 	lds	r24, 0x038B
    1bf6:	85 31       	cpi	r24, 0x15	; 21
    1bf8:	08 f0       	brcs	.+2      	; 0x1bfc <Zigbee_Task+0x1dc>
    1bfa:	ef c0       	rjmp	.+478    	; 0x1dda <Zigbee_Task+0x3ba>
    1bfc:	65 e0       	ldi	r22, 0x05	; 5
    1bfe:	0e 94 1e 13 	call	0x263c	; 0x263c <__udivmodqi4>
    1c02:	99 23       	and	r25, r25
    1c04:	21 f0       	breq	.+8      	; 0x1c0e <Zigbee_Task+0x1ee>
    1c06:	0e 94 a8 05 	call	0xb50	; 0xb50 <getLastResult>
    1c0a:	88 23       	and	r24, r24
    1c0c:	21 f4       	brne	.+8      	; 0x1c16 <Zigbee_Task+0x1f6>
    1c0e:	83 e0       	ldi	r24, 0x03	; 3
    1c10:	0e 94 9b 07 	call	0xf36	; 0xf36 <ZRMsendNT>
    1c14:	87 c0       	rjmp	.+270    	; 0x1d24 <Zigbee_Task+0x304>
    1c16:	0e 94 a8 05 	call	0xb50	; 0xb50 <getLastResult>
    1c1a:	81 30       	cpi	r24, 0x01	; 1
    1c1c:	09 f0       	breq	.+2      	; 0x1c20 <Zigbee_Task+0x200>
    1c1e:	e2 c0       	rjmp	.+452    	; 0x1de4 <Zigbee_Task+0x3c4>
    1c20:	10 92 8b 03 	sts	0x038B, r1
    1c24:	87 e1       	ldi	r24, 0x17	; 23
    1c26:	dc c0       	rjmp	.+440    	; 0x1de0 <Zigbee_Task+0x3c0>
    1c28:	80 91 8b 03 	lds	r24, 0x038B
    1c2c:	85 31       	cpi	r24, 0x15	; 21
    1c2e:	08 f0       	brcs	.+2      	; 0x1c32 <Zigbee_Task+0x212>
    1c30:	d4 c0       	rjmp	.+424    	; 0x1dda <Zigbee_Task+0x3ba>
    1c32:	65 e0       	ldi	r22, 0x05	; 5
    1c34:	0e 94 1e 13 	call	0x263c	; 0x263c <__udivmodqi4>
    1c38:	99 23       	and	r25, r25
    1c3a:	21 f0       	breq	.+8      	; 0x1c44 <Zigbee_Task+0x224>
    1c3c:	0e 94 a8 05 	call	0xb50	; 0xb50 <getLastResult>
    1c40:	88 23       	and	r24, r24
    1c42:	19 f4       	brne	.+6      	; 0x1c4a <Zigbee_Task+0x22a>
    1c44:	0e 94 91 07 	call	0xf22	; 0xf22 <ZRMsendZS>
    1c48:	6d c0       	rjmp	.+218    	; 0x1d24 <Zigbee_Task+0x304>
    1c4a:	0e 94 a8 05 	call	0xb50	; 0xb50 <getLastResult>
    1c4e:	81 30       	cpi	r24, 0x01	; 1
    1c50:	09 f0       	breq	.+2      	; 0x1c54 <Zigbee_Task+0x234>
    1c52:	c8 c0       	rjmp	.+400    	; 0x1de4 <Zigbee_Task+0x3c4>
    1c54:	10 92 8b 03 	sts	0x038B, r1
    1c58:	8c e1       	ldi	r24, 0x1C	; 28
    1c5a:	c2 c0       	rjmp	.+388    	; 0x1de0 <Zigbee_Task+0x3c0>
    1c5c:	80 91 8b 03 	lds	r24, 0x038B
    1c60:	85 31       	cpi	r24, 0x15	; 21
    1c62:	08 f0       	brcs	.+2      	; 0x1c66 <Zigbee_Task+0x246>
    1c64:	ba c0       	rjmp	.+372    	; 0x1dda <Zigbee_Task+0x3ba>
    1c66:	65 e0       	ldi	r22, 0x05	; 5
    1c68:	0e 94 1e 13 	call	0x263c	; 0x263c <__udivmodqi4>
    1c6c:	99 23       	and	r25, r25
    1c6e:	21 f0       	breq	.+8      	; 0x1c78 <Zigbee_Task+0x258>
    1c70:	0e 94 a8 05 	call	0xb50	; 0xb50 <getLastResult>
    1c74:	88 23       	and	r24, r24
    1c76:	31 f4       	brne	.+12     	; 0x1c84 <Zigbee_Task+0x264>
    1c78:	0e 94 17 10 	call	0x202e	; 0x202e <rotary_GetValue>
    1c7c:	90 e0       	ldi	r25, 0x00	; 0
    1c7e:	0e 94 43 08 	call	0x1086	; 0x1086 <ZRMsendCM>
    1c82:	50 c0       	rjmp	.+160    	; 0x1d24 <Zigbee_Task+0x304>
    1c84:	0e 94 a8 05 	call	0xb50	; 0xb50 <getLastResult>
    1c88:	81 30       	cpi	r24, 0x01	; 1
    1c8a:	09 f0       	breq	.+2      	; 0x1c8e <Zigbee_Task+0x26e>
    1c8c:	ab c0       	rjmp	.+342    	; 0x1de4 <Zigbee_Task+0x3c4>
    1c8e:	10 92 8b 03 	sts	0x038B, r1
    1c92:	8f e1       	ldi	r24, 0x1F	; 31
    1c94:	a5 c0       	rjmp	.+330    	; 0x1de0 <Zigbee_Task+0x3c0>
    1c96:	80 91 8b 03 	lds	r24, 0x038B
    1c9a:	85 31       	cpi	r24, 0x15	; 21
    1c9c:	08 f0       	brcs	.+2      	; 0x1ca0 <Zigbee_Task+0x280>
    1c9e:	9d c0       	rjmp	.+314    	; 0x1dda <Zigbee_Task+0x3ba>
    1ca0:	65 e0       	ldi	r22, 0x05	; 5
    1ca2:	0e 94 1e 13 	call	0x263c	; 0x263c <__udivmodqi4>
    1ca6:	99 23       	and	r25, r25
    1ca8:	21 f0       	breq	.+8      	; 0x1cb2 <Zigbee_Task+0x292>
    1caa:	0e 94 a8 05 	call	0xb50	; 0xb50 <getLastResult>
    1cae:	88 23       	and	r24, r24
    1cb0:	21 f4       	brne	.+8      	; 0x1cba <Zigbee_Task+0x29a>
    1cb2:	80 e0       	ldi	r24, 0x00	; 0
    1cb4:	0e 94 d7 06 	call	0xdae	; 0xdae <ZRMsendRetry>
    1cb8:	35 c0       	rjmp	.+106    	; 0x1d24 <Zigbee_Task+0x304>
    1cba:	0e 94 a8 05 	call	0xb50	; 0xb50 <getLastResult>
    1cbe:	81 30       	cpi	r24, 0x01	; 1
    1cc0:	09 f0       	breq	.+2      	; 0x1cc4 <Zigbee_Task+0x2a4>
    1cc2:	90 c0       	rjmp	.+288    	; 0x1de4 <Zigbee_Task+0x3c4>
    1cc4:	10 92 8b 03 	sts	0x038B, r1
    1cc8:	80 e2       	ldi	r24, 0x20	; 32
    1cca:	8a c0       	rjmp	.+276    	; 0x1de0 <Zigbee_Task+0x3c0>
    1ccc:	80 91 8b 03 	lds	r24, 0x038B
    1cd0:	85 31       	cpi	r24, 0x15	; 21
    1cd2:	08 f0       	brcs	.+2      	; 0x1cd6 <Zigbee_Task+0x2b6>
    1cd4:	82 c0       	rjmp	.+260    	; 0x1dda <Zigbee_Task+0x3ba>
    1cd6:	65 e0       	ldi	r22, 0x05	; 5
    1cd8:	0e 94 1e 13 	call	0x263c	; 0x263c <__udivmodqi4>
    1cdc:	99 23       	and	r25, r25
    1cde:	21 f0       	breq	.+8      	; 0x1ce8 <Zigbee_Task+0x2c8>
    1ce0:	0e 94 a8 05 	call	0xb50	; 0xb50 <getLastResult>
    1ce4:	88 23       	and	r24, r24
    1ce6:	29 f4       	brne	.+10     	; 0x1cf2 <Zigbee_Task+0x2d2>
    1ce8:	80 e0       	ldi	r24, 0x00	; 0
    1cea:	90 e0       	ldi	r25, 0x00	; 0
    1cec:	0e 94 99 06 	call	0xd32	; 0xd32 <ZRMsendSoTimeout>
    1cf0:	19 c0       	rjmp	.+50     	; 0x1d24 <Zigbee_Task+0x304>
    1cf2:	0e 94 a8 05 	call	0xb50	; 0xb50 <getLastResult>
    1cf6:	81 30       	cpi	r24, 0x01	; 1
    1cf8:	09 f0       	breq	.+2      	; 0x1cfc <Zigbee_Task+0x2dc>
    1cfa:	74 c0       	rjmp	.+232    	; 0x1de4 <Zigbee_Task+0x3c4>
    1cfc:	10 92 8b 03 	sts	0x038B, r1
    1d00:	89 e1       	ldi	r24, 0x19	; 25
    1d02:	6e c0       	rjmp	.+220    	; 0x1de0 <Zigbee_Task+0x3c0>
    1d04:	80 91 8b 03 	lds	r24, 0x038B
    1d08:	85 31       	cpi	r24, 0x15	; 21
    1d0a:	08 f0       	brcs	.+2      	; 0x1d0e <Zigbee_Task+0x2ee>
    1d0c:	66 c0       	rjmp	.+204    	; 0x1dda <Zigbee_Task+0x3ba>
    1d0e:	65 e0       	ldi	r22, 0x05	; 5
    1d10:	0e 94 1e 13 	call	0x263c	; 0x263c <__udivmodqi4>
    1d14:	99 23       	and	r25, r25
    1d16:	21 f0       	breq	.+8      	; 0x1d20 <Zigbee_Task+0x300>
    1d18:	0e 94 a8 05 	call	0xb50	; 0xb50 <getLastResult>
    1d1c:	88 23       	and	r24, r24
    1d1e:	41 f4       	brne	.+16     	; 0x1d30 <Zigbee_Task+0x310>
    1d20:	0e 94 f5 07 	call	0xfea	; 0xfea <ZRMsendATS11>
    1d24:	80 91 8b 03 	lds	r24, 0x038B
    1d28:	8f 5f       	subi	r24, 0xFF	; 255
    1d2a:	80 93 8b 03 	sts	0x038B, r24
    1d2e:	5a c0       	rjmp	.+180    	; 0x1de4 <Zigbee_Task+0x3c4>
    1d30:	0e 94 a8 05 	call	0xb50	; 0xb50 <getLastResult>
    1d34:	81 30       	cpi	r24, 0x01	; 1
    1d36:	09 f0       	breq	.+2      	; 0x1d3a <Zigbee_Task+0x31a>
    1d38:	8a c0       	rjmp	.+276    	; 0x1e4e <Zigbee_Task+0x42e>
    1d3a:	10 92 8b 03 	sts	0x038B, r1
    1d3e:	88 e1       	ldi	r24, 0x18	; 24
    1d40:	4f c0       	rjmp	.+158    	; 0x1de0 <Zigbee_Task+0x3c0>
    1d42:	80 91 8b 03 	lds	r24, 0x038B
    1d46:	85 31       	cpi	r24, 0x15	; 21
    1d48:	08 f0       	brcs	.+2      	; 0x1d4c <Zigbee_Task+0x32c>
    1d4a:	47 c0       	rjmp	.+142    	; 0x1dda <Zigbee_Task+0x3ba>
    1d4c:	65 e0       	ldi	r22, 0x05	; 5
    1d4e:	0e 94 1e 13 	call	0x263c	; 0x263c <__udivmodqi4>
    1d52:	99 23       	and	r25, r25
    1d54:	21 f0       	breq	.+8      	; 0x1d5e <Zigbee_Task+0x33e>
    1d56:	0e 94 a8 05 	call	0xb50	; 0xb50 <getLastResult>
    1d5a:	88 23       	and	r24, r24
    1d5c:	b1 f4       	brne	.+44     	; 0x1d8a <Zigbee_Task+0x36a>
    1d5e:	00 91 98 03 	lds	r16, 0x0398
    1d62:	10 91 99 03 	lds	r17, 0x0399
    1d66:	0e 94 17 10 	call	0x202e	; 0x202e <rotary_GetValue>
    1d6a:	90 e0       	ldi	r25, 0x00	; 0
    1d6c:	92 60       	ori	r25, 0x02	; 2
    1d6e:	08 17       	cp	r16, r24
    1d70:	19 07       	cpc	r17, r25
    1d72:	39 f0       	breq	.+14     	; 0x1d82 <Zigbee_Task+0x362>
    1d74:	0e 94 17 10 	call	0x202e	; 0x202e <rotary_GetValue>
    1d78:	90 e0       	ldi	r25, 0x00	; 0
    1d7a:	92 60       	ori	r25, 0x02	; 2
    1d7c:	0e 94 53 07 	call	0xea6	; 0xea6 <ZRMsendPI>
    1d80:	d1 cf       	rjmp	.-94     	; 0x1d24 <Zigbee_Task+0x304>
    1d82:	8a e1       	ldi	r24, 0x1A	; 26
    1d84:	0e 94 a5 05 	call	0xb4a	; 0xb4a <setZigbeeState>
    1d88:	cd cf       	rjmp	.-102    	; 0x1d24 <Zigbee_Task+0x304>
    1d8a:	0e 94 a8 05 	call	0xb50	; 0xb50 <getLastResult>
    1d8e:	81 30       	cpi	r24, 0x01	; 1
    1d90:	49 f5       	brne	.+82     	; 0x1de4 <Zigbee_Task+0x3c4>
    1d92:	10 92 8b 03 	sts	0x038B, r1
    1d96:	8d e1       	ldi	r24, 0x1D	; 29
    1d98:	23 c0       	rjmp	.+70     	; 0x1de0 <Zigbee_Task+0x3c0>
    1d9a:	80 91 8b 03 	lds	r24, 0x038B
    1d9e:	85 31       	cpi	r24, 0x15	; 21
    1da0:	e0 f4       	brcc	.+56     	; 0x1dda <Zigbee_Task+0x3ba>
    1da2:	65 e0       	ldi	r22, 0x05	; 5
    1da4:	0e 94 1e 13 	call	0x263c	; 0x263c <__udivmodqi4>
    1da8:	99 23       	and	r25, r25
    1daa:	21 f0       	breq	.+8      	; 0x1db4 <Zigbee_Task+0x394>
    1dac:	0e 94 a8 05 	call	0xb50	; 0xb50 <getLastResult>
    1db0:	88 23       	and	r24, r24
    1db2:	39 f4       	brne	.+14     	; 0x1dc2 <Zigbee_Task+0x3a2>
    1db4:	0e 94 17 10 	call	0x202e	; 0x202e <rotary_GetValue>
    1db8:	90 e0       	ldi	r25, 0x00	; 0
    1dba:	92 60       	ori	r25, 0x02	; 2
    1dbc:	0e 94 15 07 	call	0xe2a	; 0xe2a <ZRMsendEI>
    1dc0:	b1 cf       	rjmp	.-158    	; 0x1d24 <Zigbee_Task+0x304>
    1dc2:	0e 94 a8 05 	call	0xb50	; 0xb50 <getLastResult>
    1dc6:	81 30       	cpi	r24, 0x01	; 1
    1dc8:	69 f4       	brne	.+26     	; 0x1de4 <Zigbee_Task+0x3c4>
    1dca:	10 92 8b 03 	sts	0x038B, r1
    1dce:	8e e1       	ldi	r24, 0x1E	; 30
    1dd0:	07 c0       	rjmp	.+14     	; 0x1de0 <Zigbee_Task+0x3c0>
    1dd2:	80 91 8b 03 	lds	r24, 0x038B
    1dd6:	85 31       	cpi	r24, 0x15	; 21
    1dd8:	60 f0       	brcs	.+24     	; 0x1df2 <Zigbee_Task+0x3d2>
    1dda:	10 92 8b 03 	sts	0x038B, r1
    1dde:	84 e1       	ldi	r24, 0x14	; 20
    1de0:	0e 94 a5 05 	call	0xb4a	; 0xb4a <setZigbeeState>
    1de4:	82 e0       	ldi	r24, 0x02	; 2
    1de6:	90 e0       	ldi	r25, 0x00	; 0
    1de8:	44 e6       	ldi	r20, 0x64	; 100
    1dea:	50 e0       	ldi	r21, 0x00	; 0
    1dec:	60 e0       	ldi	r22, 0x00	; 0
    1dee:	70 e0       	ldi	r23, 0x00	; 0
    1df0:	2c c0       	rjmp	.+88     	; 0x1e4a <Zigbee_Task+0x42a>
    1df2:	65 e0       	ldi	r22, 0x05	; 5
    1df4:	0e 94 1e 13 	call	0x263c	; 0x263c <__udivmodqi4>
    1df8:	99 23       	and	r25, r25
    1dfa:	21 f0       	breq	.+8      	; 0x1e04 <Zigbee_Task+0x3e4>
    1dfc:	0e 94 a8 05 	call	0xb50	; 0xb50 <getLastResult>
    1e00:	88 23       	and	r24, r24
    1e02:	41 f4       	brne	.+16     	; 0x1e14 <Zigbee_Task+0x3f4>
    1e04:	0e 94 85 06 	call	0xd0a	; 0xd0a <ZRMsendATZ>
    1e08:	80 91 8b 03 	lds	r24, 0x038B
    1e0c:	8f 5f       	subi	r24, 0xFF	; 255
    1e0e:	80 93 8b 03 	sts	0x038B, r24
    1e12:	15 c0       	rjmp	.+42     	; 0x1e3e <Zigbee_Task+0x41e>
    1e14:	0e 94 a8 05 	call	0xb50	; 0xb50 <getLastResult>
    1e18:	81 30       	cpi	r24, 0x01	; 1
    1e1a:	c9 f4       	brne	.+50     	; 0x1e4e <Zigbee_Task+0x42e>
    1e1c:	10 92 8b 03 	sts	0x038B, r1
    1e20:	80 e0       	ldi	r24, 0x00	; 0
    1e22:	0e 94 a5 05 	call	0xb4a	; 0xb4a <setZigbeeState>
    1e26:	82 e0       	ldi	r24, 0x02	; 2
    1e28:	90 e0       	ldi	r25, 0x00	; 0
    1e2a:	4c e2       	ldi	r20, 0x2C	; 44
    1e2c:	51 e0       	ldi	r21, 0x01	; 1
    1e2e:	60 e0       	ldi	r22, 0x00	; 0
    1e30:	70 e0       	ldi	r23, 0x00	; 0
    1e32:	0b c0       	rjmp	.+22     	; 0x1e4a <Zigbee_Task+0x42a>
    1e34:	80 91 89 03 	lds	r24, 0x0389
    1e38:	8f 5f       	subi	r24, 0xFF	; 255
    1e3a:	80 93 89 03 	sts	0x0389, r24
    1e3e:	82 e0       	ldi	r24, 0x02	; 2
    1e40:	90 e0       	ldi	r25, 0x00	; 0
    1e42:	48 ee       	ldi	r20, 0xE8	; 232
    1e44:	53 e0       	ldi	r21, 0x03	; 3
    1e46:	60 e0       	ldi	r22, 0x00	; 0
    1e48:	70 e0       	ldi	r23, 0x00	; 0
    1e4a:	0e 94 5b 03 	call	0x6b6	; 0x6b6 <timer_set>
    1e4e:	84 e2       	ldi	r24, 0x24	; 36
    1e50:	98 e0       	ldi	r25, 0x08	; 8
    1e52:	6a e5       	ldi	r22, 0x5A	; 90
    1e54:	70 e0       	ldi	r23, 0x00	; 0
    1e56:	0e 94 15 05 	call	0xa2a	; 0xa2a <xcps_recv_zigbee>
    1e5a:	68 2f       	mov	r22, r24
    1e5c:	80 93 8a 03 	sts	0x038A, r24
    1e60:	88 23       	and	r24, r24
    1e62:	c1 f0       	breq	.+48     	; 0x1e94 <Zigbee_Task+0x474>
    1e64:	84 e2       	ldi	r24, 0x24	; 36
    1e66:	98 e0       	ldi	r25, 0x08	; 8
    1e68:	70 e0       	ldi	r23, 0x00	; 0
    1e6a:	0e 94 6a 08 	call	0x10d4	; 0x10d4 <ZRMPMessage>
    1e6e:	60 91 8a 03 	lds	r22, 0x038A
    1e72:	84 e2       	ldi	r24, 0x24	; 36
    1e74:	98 e0       	ldi	r25, 0x08	; 8
    1e76:	70 e0       	ldi	r23, 0x00	; 0
    1e78:	0e 94 64 04 	call	0x8c8	; 0x8c8 <XNetHandler>
    1e7c:	88 23       	and	r24, r24
    1e7e:	51 f0       	breq	.+20     	; 0x1e94 <Zigbee_Task+0x474>
    1e80:	10 92 89 03 	sts	0x0389, r1
    1e84:	8a e0       	ldi	r24, 0x0A	; 10
    1e86:	90 e0       	ldi	r25, 0x00	; 0
    1e88:	40 ec       	ldi	r20, 0xC0	; 192
    1e8a:	54 ed       	ldi	r21, 0xD4	; 212
    1e8c:	61 e0       	ldi	r22, 0x01	; 1
    1e8e:	70 e0       	ldi	r23, 0x00	; 0
    1e90:	0e 94 5b 03 	call	0x6b6	; 0x6b6 <timer_set>
    1e94:	1f 91       	pop	r17
    1e96:	0f 91       	pop	r16
    1e98:	08 95       	ret

00001e9a <main>:
    1e9a:	df 93       	push	r29
    1e9c:	cf 93       	push	r28
    1e9e:	0f 92       	push	r0
    1ea0:	cd b7       	in	r28, 0x3d	; 61
    1ea2:	de b7       	in	r29, 0x3e	; 62
    1ea4:	0e 94 fe 09 	call	0x13fc	; 0x13fc <InitMCU>
    1ea8:	0e 94 0a 10 	call	0x2014	; 0x2014 <initRotary>
    1eac:	0e 94 f7 03 	call	0x7ee	; 0x7ee <InitUART>
    1eb0:	0e 94 9d 03 	call	0x73a	; 0x73a <timer_init>
    1eb4:	0e 94 53 00 	call	0xa6	; 0xa6 <initADC>
    1eb8:	ce 01       	movw	r24, r28
    1eba:	01 96       	adiw	r24, 0x01	; 1
    1ebc:	60 e0       	ldi	r22, 0x00	; 0
    1ebe:	70 e0       	ldi	r23, 0x00	; 0
    1ec0:	41 e0       	ldi	r20, 0x01	; 1
    1ec2:	50 e0       	ldi	r21, 0x00	; 0
    1ec4:	0e 94 a7 15 	call	0x2b4e	; 0x2b4e <__eerd_block_m328p>
    1ec8:	89 81       	ldd	r24, Y+1	; 0x01
    1eca:	81 50       	subi	r24, 0x01	; 1
    1ecc:	8e 3f       	cpi	r24, 0xFE	; 254
    1ece:	10 f0       	brcs	.+4      	; 0x1ed4 <main+0x3a>
    1ed0:	80 e5       	ldi	r24, 0x50	; 80
    1ed2:	89 83       	std	Y+1, r24	; 0x01
    1ed4:	89 81       	ldd	r24, Y+1	; 0x01
    1ed6:	80 93 a6 08 	sts	0x08A6, r24
    1eda:	0e 94 a4 00 	call	0x148	; 0x148 <MSN_SetSensorDiff>
    1ede:	20 e0       	ldi	r18, 0x00	; 0
    1ee0:	32 e0       	ldi	r19, 0x02	; 2
    1ee2:	48 ec       	ldi	r20, 0xC8	; 200
    1ee4:	50 e0       	ldi	r21, 0x00	; 0
    1ee6:	a8 95       	wdr
    1ee8:	85 b1       	in	r24, 0x05	; 5
    1eea:	83 27       	eor	r24, r19
    1eec:	85 b9       	out	0x05, r24	; 5
    1eee:	88 e8       	ldi	r24, 0x88	; 136
    1ef0:	93 e1       	ldi	r25, 0x13	; 19
    1ef2:	fa 01       	movw	r30, r20
    1ef4:	31 97       	sbiw	r30, 0x01	; 1
    1ef6:	f1 f7       	brne	.-4      	; 0x1ef4 <main+0x5a>
    1ef8:	01 97       	sbiw	r24, 0x01	; 1
    1efa:	d9 f7       	brne	.-10     	; 0x1ef2 <main+0x58>
    1efc:	a8 95       	wdr
    1efe:	85 b1       	in	r24, 0x05	; 5
    1f00:	83 27       	eor	r24, r19
    1f02:	85 b9       	out	0x05, r24	; 5
    1f04:	88 e8       	ldi	r24, 0x88	; 136
    1f06:	93 e1       	ldi	r25, 0x13	; 19
    1f08:	fa 01       	movw	r30, r20
    1f0a:	31 97       	sbiw	r30, 0x01	; 1
    1f0c:	f1 f7       	brne	.-4      	; 0x1f0a <main+0x70>
    1f0e:	01 97       	sbiw	r24, 0x01	; 1
    1f10:	d9 f7       	brne	.-10     	; 0x1f08 <main+0x6e>
    1f12:	2f 5f       	subi	r18, 0xFF	; 255
    1f14:	25 30       	cpi	r18, 0x05	; 5
    1f16:	39 f7       	brne	.-50     	; 0x1ee6 <main+0x4c>
    1f18:	84 b7       	in	r24, 0x34	; 52
    1f1a:	87 7f       	andi	r24, 0xF7	; 247
    1f1c:	84 bf       	out	0x34, r24	; 52
    1f1e:	2f e0       	ldi	r18, 0x0F	; 15
    1f20:	88 e1       	ldi	r24, 0x18	; 24
    1f22:	90 e0       	ldi	r25, 0x00	; 0
    1f24:	0f b6       	in	r0, 0x3f	; 63
    1f26:	f8 94       	cli
    1f28:	a8 95       	wdr
    1f2a:	80 93 60 00 	sts	0x0060, r24
    1f2e:	0f be       	out	0x3f, r0	; 63
    1f30:	20 93 60 00 	sts	0x0060, r18
    1f34:	89 e3       	ldi	r24, 0x39	; 57
    1f36:	94 e0       	ldi	r25, 0x04	; 4
    1f38:	6a e5       	ldi	r22, 0x5A	; 90
    1f3a:	74 e0       	ldi	r23, 0x04	; 4
    1f3c:	0e 94 eb 04 	call	0x9d6	; 0x9d6 <xcps_init_zigbee>
    1f40:	86 e0       	ldi	r24, 0x06	; 6
    1f42:	90 e0       	ldi	r25, 0x00	; 0
    1f44:	44 e6       	ldi	r20, 0x64	; 100
    1f46:	50 e0       	ldi	r21, 0x00	; 0
    1f48:	60 e0       	ldi	r22, 0x00	; 0
    1f4a:	70 e0       	ldi	r23, 0x00	; 0
    1f4c:	0e 94 5b 03 	call	0x6b6	; 0x6b6 <timer_set>
    1f50:	87 e0       	ldi	r24, 0x07	; 7
    1f52:	90 e0       	ldi	r25, 0x00	; 0
    1f54:	4a e0       	ldi	r20, 0x0A	; 10
    1f56:	50 e0       	ldi	r21, 0x00	; 0
    1f58:	60 e0       	ldi	r22, 0x00	; 0
    1f5a:	70 e0       	ldi	r23, 0x00	; 0
    1f5c:	0e 94 5b 03 	call	0x6b6	; 0x6b6 <timer_set>
    1f60:	88 e0       	ldi	r24, 0x08	; 8
    1f62:	90 e0       	ldi	r25, 0x00	; 0
    1f64:	48 ee       	ldi	r20, 0xE8	; 232
    1f66:	53 e0       	ldi	r21, 0x03	; 3
    1f68:	60 e0       	ldi	r22, 0x00	; 0
    1f6a:	70 e0       	ldi	r23, 0x00	; 0
    1f6c:	0e 94 5b 03 	call	0x6b6	; 0x6b6 <timer_set>
    1f70:	89 e0       	ldi	r24, 0x09	; 9
    1f72:	90 e0       	ldi	r25, 0x00	; 0
    1f74:	40 e1       	ldi	r20, 0x10	; 16
    1f76:	57 e2       	ldi	r21, 0x27	; 39
    1f78:	60 e0       	ldi	r22, 0x00	; 0
    1f7a:	70 e0       	ldi	r23, 0x00	; 0
    1f7c:	0e 94 5b 03 	call	0x6b6	; 0x6b6 <timer_set>
    1f80:	83 e0       	ldi	r24, 0x03	; 3
    1f82:	90 e0       	ldi	r25, 0x00	; 0
    1f84:	44 e6       	ldi	r20, 0x64	; 100
    1f86:	50 e0       	ldi	r21, 0x00	; 0
    1f88:	60 e0       	ldi	r22, 0x00	; 0
    1f8a:	70 e0       	ldi	r23, 0x00	; 0
    1f8c:	0e 94 5b 03 	call	0x6b6	; 0x6b6 <timer_set>
    1f90:	84 e0       	ldi	r24, 0x04	; 4
    1f92:	90 e0       	ldi	r25, 0x00	; 0
    1f94:	40 e1       	ldi	r20, 0x10	; 16
    1f96:	57 e2       	ldi	r21, 0x27	; 39
    1f98:	60 e0       	ldi	r22, 0x00	; 0
    1f9a:	70 e0       	ldi	r23, 0x00	; 0
    1f9c:	0e 94 5b 03 	call	0x6b6	; 0x6b6 <timer_set>
    1fa0:	81 e0       	ldi	r24, 0x01	; 1
    1fa2:	90 e0       	ldi	r25, 0x00	; 0
    1fa4:	45 e0       	ldi	r20, 0x05	; 5
    1fa6:	50 e0       	ldi	r21, 0x00	; 0
    1fa8:	60 e0       	ldi	r22, 0x00	; 0
    1faa:	70 e0       	ldi	r23, 0x00	; 0
    1fac:	0e 94 5b 03 	call	0x6b6	; 0x6b6 <timer_set>
    1fb0:	82 e0       	ldi	r24, 0x02	; 2
    1fb2:	90 e0       	ldi	r25, 0x00	; 0
    1fb4:	44 e6       	ldi	r20, 0x64	; 100
    1fb6:	50 e0       	ldi	r21, 0x00	; 0
    1fb8:	60 e0       	ldi	r22, 0x00	; 0
    1fba:	70 e0       	ldi	r23, 0x00	; 0
    1fbc:	0e 94 5b 03 	call	0x6b6	; 0x6b6 <timer_set>
    1fc0:	85 e0       	ldi	r24, 0x05	; 5
    1fc2:	90 e0       	ldi	r25, 0x00	; 0
    1fc4:	40 e1       	ldi	r20, 0x10	; 16
    1fc6:	57 e2       	ldi	r21, 0x27	; 39
    1fc8:	60 e0       	ldi	r22, 0x00	; 0
    1fca:	70 e0       	ldi	r23, 0x00	; 0
    1fcc:	0e 94 5b 03 	call	0x6b6	; 0x6b6 <timer_set>
    1fd0:	8a e0       	ldi	r24, 0x0A	; 10
    1fd2:	90 e0       	ldi	r25, 0x00	; 0
    1fd4:	40 ee       	ldi	r20, 0xE0	; 224
    1fd6:	53 e9       	ldi	r21, 0x93	; 147
    1fd8:	64 e0       	ldi	r22, 0x04	; 4
    1fda:	70 e0       	ldi	r23, 0x00	; 0
    1fdc:	0e 94 5b 03 	call	0x6b6	; 0x6b6 <timer_set>
    1fe0:	8b e0       	ldi	r24, 0x0B	; 11
    1fe2:	90 e0       	ldi	r25, 0x00	; 0
    1fe4:	40 e1       	ldi	r20, 0x10	; 16
    1fe6:	57 e2       	ldi	r21, 0x27	; 39
    1fe8:	60 e0       	ldi	r22, 0x00	; 0
    1fea:	70 e0       	ldi	r23, 0x00	; 0
    1fec:	0e 94 5b 03 	call	0x6b6	; 0x6b6 <timer_set>
    1ff0:	78 94       	sei
    1ff2:	0e 94 7c 0a 	call	0x14f8	; 0x14f8 <WTD_Task>
    1ff6:	0e 94 10 0d 	call	0x1a20	; 0x1a20 <Zigbee_Task>
    1ffa:	0e 94 9c 0c 	call	0x1938	; 0x1938 <NCP_Task>
    1ffe:	0e 94 1f 0c 	call	0x183e	; 0x183e <sensorTask>
    2002:	0e 94 d2 0b 	call	0x17a4	; 0x17a4 <debugModeTask>
    2006:	0e 94 a5 0a 	call	0x154a	; 0x154a <ADC_Task>
    200a:	0e 94 54 0a 	call	0x14a8	; 0x14a8 <TestLamp_Task>
    200e:	0e 94 90 0a 	call	0x1520	; 0x1520 <ZigbeeSend_Task>
    2012:	ef cf       	rjmp	.-34     	; 0x1ff2 <main+0x158>

00002014 <initRotary>:
    2014:	8a b1       	in	r24, 0x0a	; 10
    2016:	87 7c       	andi	r24, 0xC7	; 199
    2018:	8a b9       	out	0x0a, r24	; 10
    201a:	87 b1       	in	r24, 0x07	; 7
    201c:	81 7c       	andi	r24, 0xC1	; 193
    201e:	87 b9       	out	0x07, r24	; 7
    2020:	8b b1       	in	r24, 0x0b	; 11
    2022:	88 63       	ori	r24, 0x38	; 56
    2024:	8b b9       	out	0x0b, r24	; 11
    2026:	88 b1       	in	r24, 0x08	; 8
    2028:	8e 63       	ori	r24, 0x3E	; 62
    202a:	88 b9       	out	0x08, r24	; 8
    202c:	08 95       	ret

0000202e <rotary_GetValue>:
    202e:	35 99       	sbic	0x06, 5	; 6
    2030:	02 c0       	rjmp	.+4      	; 0x2036 <rotary_GetValue+0x8>
    2032:	88 e0       	ldi	r24, 0x08	; 8
    2034:	01 c0       	rjmp	.+2      	; 0x2038 <rotary_GetValue+0xa>
    2036:	80 e0       	ldi	r24, 0x00	; 0
    2038:	34 9b       	sbis	0x06, 4	; 6
    203a:	84 60       	ori	r24, 0x04	; 4
    203c:	33 9b       	sbis	0x06, 3	; 6
    203e:	82 60       	ori	r24, 0x02	; 2
    2040:	32 9b       	sbis	0x06, 2	; 6
    2042:	81 60       	ori	r24, 0x01	; 1
    2044:	4d 9b       	sbis	0x09, 5	; 9
    2046:	80 68       	ori	r24, 0x80	; 128
    2048:	4c 9b       	sbis	0x09, 4	; 9
    204a:	80 64       	ori	r24, 0x40	; 64
    204c:	4b 9b       	sbis	0x09, 3	; 9
    204e:	80 62       	ori	r24, 0x20	; 32
    2050:	31 9b       	sbis	0x06, 1	; 6
    2052:	80 61       	ori	r24, 0x10	; 16
    2054:	08 95       	ret

00002056 <toUint16>:
    2056:	fc 01       	movw	r30, r24
    2058:	20 e0       	ldi	r18, 0x00	; 0
    205a:	30 e0       	ldi	r19, 0x00	; 0
    205c:	4c e0       	ldi	r20, 0x0C	; 12
    205e:	50 e0       	ldi	r21, 0x00	; 0
    2060:	90 81       	ld	r25, Z
    2062:	89 2f       	mov	r24, r25
    2064:	80 53       	subi	r24, 0x30	; 48
    2066:	8a 30       	cpi	r24, 0x0A	; 10
    2068:	20 f4       	brcc	.+8      	; 0x2072 <toUint16+0x1c>
    206a:	89 2f       	mov	r24, r25
    206c:	90 e0       	ldi	r25, 0x00	; 0
    206e:	c0 97       	sbiw	r24, 0x30	; 48
    2070:	10 c0       	rjmp	.+32     	; 0x2092 <toUint16+0x3c>
    2072:	89 2f       	mov	r24, r25
    2074:	81 54       	subi	r24, 0x41	; 65
    2076:	86 30       	cpi	r24, 0x06	; 6
    2078:	20 f4       	brcc	.+8      	; 0x2082 <toUint16+0x2c>
    207a:	89 2f       	mov	r24, r25
    207c:	90 e0       	ldi	r25, 0x00	; 0
    207e:	c7 97       	sbiw	r24, 0x37	; 55
    2080:	08 c0       	rjmp	.+16     	; 0x2092 <toUint16+0x3c>
    2082:	89 2f       	mov	r24, r25
    2084:	81 56       	subi	r24, 0x61	; 97
    2086:	86 30       	cpi	r24, 0x06	; 6
    2088:	60 f4       	brcc	.+24     	; 0x20a2 <toUint16+0x4c>
    208a:	89 2f       	mov	r24, r25
    208c:	90 e0       	ldi	r25, 0x00	; 0
    208e:	87 55       	subi	r24, 0x57	; 87
    2090:	90 40       	sbci	r25, 0x00	; 0
    2092:	04 2e       	mov	r0, r20
    2094:	02 c0       	rjmp	.+4      	; 0x209a <toUint16+0x44>
    2096:	88 0f       	add	r24, r24
    2098:	99 1f       	adc	r25, r25
    209a:	0a 94       	dec	r0
    209c:	e2 f7       	brpl	.-8      	; 0x2096 <toUint16+0x40>
    209e:	28 2b       	or	r18, r24
    20a0:	39 2b       	or	r19, r25
    20a2:	31 96       	adiw	r30, 0x01	; 1
    20a4:	44 50       	subi	r20, 0x04	; 4
    20a6:	50 40       	sbci	r21, 0x00	; 0
    20a8:	8f ef       	ldi	r24, 0xFF	; 255
    20aa:	4c 3f       	cpi	r20, 0xFC	; 252
    20ac:	58 07       	cpc	r21, r24
    20ae:	c1 f6       	brne	.-80     	; 0x2060 <toUint16+0xa>
    20b0:	c9 01       	movw	r24, r18
    20b2:	08 95       	ret

000020b4 <toUint8>:
    20b4:	fc 01       	movw	r30, r24
    20b6:	40 e0       	ldi	r20, 0x00	; 0
    20b8:	24 e0       	ldi	r18, 0x04	; 4
    20ba:	30 e0       	ldi	r19, 0x00	; 0
    20bc:	90 81       	ld	r25, Z
    20be:	89 2f       	mov	r24, r25
    20c0:	80 53       	subi	r24, 0x30	; 48
    20c2:	8a 30       	cpi	r24, 0x0A	; 10
    20c4:	20 f4       	brcc	.+8      	; 0x20ce <toUint8+0x1a>
    20c6:	89 2f       	mov	r24, r25
    20c8:	90 e0       	ldi	r25, 0x00	; 0
    20ca:	c0 97       	sbiw	r24, 0x30	; 48
    20cc:	10 c0       	rjmp	.+32     	; 0x20ee <toUint8+0x3a>
    20ce:	89 2f       	mov	r24, r25
    20d0:	81 54       	subi	r24, 0x41	; 65
    20d2:	86 30       	cpi	r24, 0x06	; 6
    20d4:	20 f4       	brcc	.+8      	; 0x20de <toUint8+0x2a>
    20d6:	89 2f       	mov	r24, r25
    20d8:	90 e0       	ldi	r25, 0x00	; 0
    20da:	c7 97       	sbiw	r24, 0x37	; 55
    20dc:	08 c0       	rjmp	.+16     	; 0x20ee <toUint8+0x3a>
    20de:	89 2f       	mov	r24, r25
    20e0:	81 56       	subi	r24, 0x61	; 97
    20e2:	86 30       	cpi	r24, 0x06	; 6
    20e4:	58 f4       	brcc	.+22     	; 0x20fc <toUint8+0x48>
    20e6:	89 2f       	mov	r24, r25
    20e8:	90 e0       	ldi	r25, 0x00	; 0
    20ea:	87 55       	subi	r24, 0x57	; 87
    20ec:	90 40       	sbci	r25, 0x00	; 0
    20ee:	02 2e       	mov	r0, r18
    20f0:	02 c0       	rjmp	.+4      	; 0x20f6 <toUint8+0x42>
    20f2:	88 0f       	add	r24, r24
    20f4:	99 1f       	adc	r25, r25
    20f6:	0a 94       	dec	r0
    20f8:	e2 f7       	brpl	.-8      	; 0x20f2 <toUint8+0x3e>
    20fa:	48 2b       	or	r20, r24
    20fc:	31 96       	adiw	r30, 0x01	; 1
    20fe:	24 50       	subi	r18, 0x04	; 4
    2100:	30 40       	sbci	r19, 0x00	; 0
    2102:	8f ef       	ldi	r24, 0xFF	; 255
    2104:	2c 3f       	cpi	r18, 0xFC	; 252
    2106:	38 07       	cpc	r19, r24
    2108:	c9 f6       	brne	.-78     	; 0x20bc <toUint8+0x8>
    210a:	84 2f       	mov	r24, r20
    210c:	08 95       	ret

0000210e <toHexCharacterOfLowerByte>:
    210e:	28 2f       	mov	r18, r24
    2110:	30 e0       	ldi	r19, 0x00	; 0
    2112:	2f 70       	andi	r18, 0x0F	; 15
    2114:	30 70       	andi	r19, 0x00	; 0
    2116:	2a 30       	cpi	r18, 0x0A	; 10
    2118:	31 05       	cpc	r19, r1
    211a:	1c f4       	brge	.+6      	; 0x2122 <toHexCharacterOfLowerByte+0x14>
    211c:	8f 70       	andi	r24, 0x0F	; 15
    211e:	80 5d       	subi	r24, 0xD0	; 208
    2120:	08 95       	ret
    2122:	2a 50       	subi	r18, 0x0A	; 10
    2124:	30 40       	sbci	r19, 0x00	; 0
    2126:	26 30       	cpi	r18, 0x06	; 6
    2128:	31 05       	cpc	r19, r1
    212a:	10 f0       	brcs	.+4      	; 0x2130 <toHexCharacterOfLowerByte+0x22>
    212c:	80 e0       	ldi	r24, 0x00	; 0
    212e:	08 95       	ret
    2130:	8f 70       	andi	r24, 0x0F	; 15
    2132:	89 5c       	subi	r24, 0xC9	; 201
    2134:	08 95       	ret

00002136 <__gtsf2>:
    2136:	a8 e1       	ldi	r26, 0x18	; 24
    2138:	b0 e0       	ldi	r27, 0x00	; 0
    213a:	e1 ea       	ldi	r30, 0xA1	; 161
    213c:	f0 e1       	ldi	r31, 0x10	; 16
    213e:	0c 94 5d 13 	jmp	0x26ba	; 0x26ba <__prologue_saves__+0x18>
    2142:	69 83       	std	Y+1, r22	; 0x01
    2144:	7a 83       	std	Y+2, r23	; 0x02
    2146:	8b 83       	std	Y+3, r24	; 0x03
    2148:	9c 83       	std	Y+4, r25	; 0x04
    214a:	2d 83       	std	Y+5, r18	; 0x05
    214c:	3e 83       	std	Y+6, r19	; 0x06
    214e:	4f 83       	std	Y+7, r20	; 0x07
    2150:	58 87       	std	Y+8, r21	; 0x08
    2152:	89 e0       	ldi	r24, 0x09	; 9
    2154:	e8 2e       	mov	r14, r24
    2156:	f1 2c       	mov	r15, r1
    2158:	ec 0e       	add	r14, r28
    215a:	fd 1e       	adc	r15, r29
    215c:	ce 01       	movw	r24, r28
    215e:	01 96       	adiw	r24, 0x01	; 1
    2160:	b7 01       	movw	r22, r14
    2162:	0e 94 4d 12 	call	0x249a	; 0x249a <__unpack_f>
    2166:	8e 01       	movw	r16, r28
    2168:	0f 5e       	subi	r16, 0xEF	; 239
    216a:	1f 4f       	sbci	r17, 0xFF	; 255
    216c:	ce 01       	movw	r24, r28
    216e:	05 96       	adiw	r24, 0x05	; 5
    2170:	b8 01       	movw	r22, r16
    2172:	0e 94 4d 12 	call	0x249a	; 0x249a <__unpack_f>
    2176:	89 85       	ldd	r24, Y+9	; 0x09
    2178:	82 30       	cpi	r24, 0x02	; 2
    217a:	40 f0       	brcs	.+16     	; 0x218c <__gtsf2+0x56>
    217c:	89 89       	ldd	r24, Y+17	; 0x11
    217e:	82 30       	cpi	r24, 0x02	; 2
    2180:	28 f0       	brcs	.+10     	; 0x218c <__gtsf2+0x56>
    2182:	c7 01       	movw	r24, r14
    2184:	b8 01       	movw	r22, r16
    2186:	0e 94 c5 12 	call	0x258a	; 0x258a <__fpcmp_parts_f>
    218a:	01 c0       	rjmp	.+2      	; 0x218e <__gtsf2+0x58>
    218c:	8f ef       	ldi	r24, 0xFF	; 255
    218e:	68 96       	adiw	r28, 0x18	; 24
    2190:	e6 e0       	ldi	r30, 0x06	; 6
    2192:	0c 94 79 13 	jmp	0x26f2	; 0x26f2 <__epilogue_restores__+0x18>

00002196 <__floatsisf>:
    2196:	a8 e0       	ldi	r26, 0x08	; 8
    2198:	b0 e0       	ldi	r27, 0x00	; 0
    219a:	e1 ed       	ldi	r30, 0xD1	; 209
    219c:	f0 e1       	ldi	r31, 0x10	; 16
    219e:	0c 94 5a 13 	jmp	0x26b4	; 0x26b4 <__prologue_saves__+0x12>
    21a2:	9b 01       	movw	r18, r22
    21a4:	ac 01       	movw	r20, r24
    21a6:	83 e0       	ldi	r24, 0x03	; 3
    21a8:	89 83       	std	Y+1, r24	; 0x01
    21aa:	da 01       	movw	r26, r20
    21ac:	c9 01       	movw	r24, r18
    21ae:	88 27       	eor	r24, r24
    21b0:	b7 fd       	sbrc	r27, 7
    21b2:	83 95       	inc	r24
    21b4:	99 27       	eor	r25, r25
    21b6:	aa 27       	eor	r26, r26
    21b8:	bb 27       	eor	r27, r27
    21ba:	b8 2e       	mov	r11, r24
    21bc:	21 15       	cp	r18, r1
    21be:	31 05       	cpc	r19, r1
    21c0:	41 05       	cpc	r20, r1
    21c2:	51 05       	cpc	r21, r1
    21c4:	19 f4       	brne	.+6      	; 0x21cc <__floatsisf+0x36>
    21c6:	82 e0       	ldi	r24, 0x02	; 2
    21c8:	89 83       	std	Y+1, r24	; 0x01
    21ca:	3a c0       	rjmp	.+116    	; 0x2240 <__floatsisf+0xaa>
    21cc:	88 23       	and	r24, r24
    21ce:	a9 f0       	breq	.+42     	; 0x21fa <__floatsisf+0x64>
    21d0:	20 30       	cpi	r18, 0x00	; 0
    21d2:	80 e0       	ldi	r24, 0x00	; 0
    21d4:	38 07       	cpc	r19, r24
    21d6:	80 e0       	ldi	r24, 0x00	; 0
    21d8:	48 07       	cpc	r20, r24
    21da:	80 e8       	ldi	r24, 0x80	; 128
    21dc:	58 07       	cpc	r21, r24
    21de:	29 f4       	brne	.+10     	; 0x21ea <__floatsisf+0x54>
    21e0:	60 e0       	ldi	r22, 0x00	; 0
    21e2:	70 e0       	ldi	r23, 0x00	; 0
    21e4:	80 e0       	ldi	r24, 0x00	; 0
    21e6:	9f ec       	ldi	r25, 0xCF	; 207
    21e8:	30 c0       	rjmp	.+96     	; 0x224a <__floatsisf+0xb4>
    21ea:	ee 24       	eor	r14, r14
    21ec:	ff 24       	eor	r15, r15
    21ee:	87 01       	movw	r16, r14
    21f0:	e2 1a       	sub	r14, r18
    21f2:	f3 0a       	sbc	r15, r19
    21f4:	04 0b       	sbc	r16, r20
    21f6:	15 0b       	sbc	r17, r21
    21f8:	02 c0       	rjmp	.+4      	; 0x21fe <__floatsisf+0x68>
    21fa:	79 01       	movw	r14, r18
    21fc:	8a 01       	movw	r16, r20
    21fe:	8e e1       	ldi	r24, 0x1E	; 30
    2200:	c8 2e       	mov	r12, r24
    2202:	d1 2c       	mov	r13, r1
    2204:	dc 82       	std	Y+4, r13	; 0x04
    2206:	cb 82       	std	Y+3, r12	; 0x03
    2208:	ed 82       	std	Y+5, r14	; 0x05
    220a:	fe 82       	std	Y+6, r15	; 0x06
    220c:	0f 83       	std	Y+7, r16	; 0x07
    220e:	18 87       	std	Y+8, r17	; 0x08
    2210:	c8 01       	movw	r24, r16
    2212:	b7 01       	movw	r22, r14
    2214:	0e 94 29 11 	call	0x2252	; 0x2252 <__clzsi2>
    2218:	01 97       	sbiw	r24, 0x01	; 1
    221a:	18 16       	cp	r1, r24
    221c:	19 06       	cpc	r1, r25
    221e:	84 f4       	brge	.+32     	; 0x2240 <__floatsisf+0xaa>
    2220:	08 2e       	mov	r0, r24
    2222:	04 c0       	rjmp	.+8      	; 0x222c <__floatsisf+0x96>
    2224:	ee 0c       	add	r14, r14
    2226:	ff 1c       	adc	r15, r15
    2228:	00 1f       	adc	r16, r16
    222a:	11 1f       	adc	r17, r17
    222c:	0a 94       	dec	r0
    222e:	d2 f7       	brpl	.-12     	; 0x2224 <__floatsisf+0x8e>
    2230:	ed 82       	std	Y+5, r14	; 0x05
    2232:	fe 82       	std	Y+6, r15	; 0x06
    2234:	0f 83       	std	Y+7, r16	; 0x07
    2236:	18 87       	std	Y+8, r17	; 0x08
    2238:	c8 1a       	sub	r12, r24
    223a:	d9 0a       	sbc	r13, r25
    223c:	dc 82       	std	Y+4, r13	; 0x04
    223e:	cb 82       	std	Y+3, r12	; 0x03
    2240:	ba 82       	std	Y+2, r11	; 0x02
    2242:	ce 01       	movw	r24, r28
    2244:	01 96       	adiw	r24, 0x01	; 1
    2246:	0e 94 78 11 	call	0x22f0	; 0x22f0 <__pack_f>
    224a:	28 96       	adiw	r28, 0x08	; 8
    224c:	e9 e0       	ldi	r30, 0x09	; 9
    224e:	0c 94 76 13 	jmp	0x26ec	; 0x26ec <__epilogue_restores__+0x12>

00002252 <__clzsi2>:
    2252:	ef 92       	push	r14
    2254:	ff 92       	push	r15
    2256:	0f 93       	push	r16
    2258:	1f 93       	push	r17
    225a:	7b 01       	movw	r14, r22
    225c:	8c 01       	movw	r16, r24
    225e:	80 e0       	ldi	r24, 0x00	; 0
    2260:	e8 16       	cp	r14, r24
    2262:	80 e0       	ldi	r24, 0x00	; 0
    2264:	f8 06       	cpc	r15, r24
    2266:	81 e0       	ldi	r24, 0x01	; 1
    2268:	08 07       	cpc	r16, r24
    226a:	80 e0       	ldi	r24, 0x00	; 0
    226c:	18 07       	cpc	r17, r24
    226e:	88 f4       	brcc	.+34     	; 0x2292 <__clzsi2+0x40>
    2270:	8f ef       	ldi	r24, 0xFF	; 255
    2272:	e8 16       	cp	r14, r24
    2274:	f1 04       	cpc	r15, r1
    2276:	01 05       	cpc	r16, r1
    2278:	11 05       	cpc	r17, r1
    227a:	31 f0       	breq	.+12     	; 0x2288 <__clzsi2+0x36>
    227c:	28 f0       	brcs	.+10     	; 0x2288 <__clzsi2+0x36>
    227e:	88 e0       	ldi	r24, 0x08	; 8
    2280:	90 e0       	ldi	r25, 0x00	; 0
    2282:	a0 e0       	ldi	r26, 0x00	; 0
    2284:	b0 e0       	ldi	r27, 0x00	; 0
    2286:	17 c0       	rjmp	.+46     	; 0x22b6 <__clzsi2+0x64>
    2288:	80 e0       	ldi	r24, 0x00	; 0
    228a:	90 e0       	ldi	r25, 0x00	; 0
    228c:	a0 e0       	ldi	r26, 0x00	; 0
    228e:	b0 e0       	ldi	r27, 0x00	; 0
    2290:	12 c0       	rjmp	.+36     	; 0x22b6 <__clzsi2+0x64>
    2292:	80 e0       	ldi	r24, 0x00	; 0
    2294:	e8 16       	cp	r14, r24
    2296:	80 e0       	ldi	r24, 0x00	; 0
    2298:	f8 06       	cpc	r15, r24
    229a:	80 e0       	ldi	r24, 0x00	; 0
    229c:	08 07       	cpc	r16, r24
    229e:	81 e0       	ldi	r24, 0x01	; 1
    22a0:	18 07       	cpc	r17, r24
    22a2:	28 f0       	brcs	.+10     	; 0x22ae <__clzsi2+0x5c>
    22a4:	88 e1       	ldi	r24, 0x18	; 24
    22a6:	90 e0       	ldi	r25, 0x00	; 0
    22a8:	a0 e0       	ldi	r26, 0x00	; 0
    22aa:	b0 e0       	ldi	r27, 0x00	; 0
    22ac:	04 c0       	rjmp	.+8      	; 0x22b6 <__clzsi2+0x64>
    22ae:	80 e1       	ldi	r24, 0x10	; 16
    22b0:	90 e0       	ldi	r25, 0x00	; 0
    22b2:	a0 e0       	ldi	r26, 0x00	; 0
    22b4:	b0 e0       	ldi	r27, 0x00	; 0
    22b6:	20 e2       	ldi	r18, 0x20	; 32
    22b8:	30 e0       	ldi	r19, 0x00	; 0
    22ba:	40 e0       	ldi	r20, 0x00	; 0
    22bc:	50 e0       	ldi	r21, 0x00	; 0
    22be:	28 1b       	sub	r18, r24
    22c0:	39 0b       	sbc	r19, r25
    22c2:	4a 0b       	sbc	r20, r26
    22c4:	5b 0b       	sbc	r21, r27
    22c6:	04 c0       	rjmp	.+8      	; 0x22d0 <__clzsi2+0x7e>
    22c8:	16 95       	lsr	r17
    22ca:	07 95       	ror	r16
    22cc:	f7 94       	ror	r15
    22ce:	e7 94       	ror	r14
    22d0:	8a 95       	dec	r24
    22d2:	d2 f7       	brpl	.-12     	; 0x22c8 <__clzsi2+0x76>
    22d4:	f7 01       	movw	r30, r14
    22d6:	e7 5f       	subi	r30, 0xF7	; 247
    22d8:	fd 4f       	sbci	r31, 0xFD	; 253
    22da:	80 81       	ld	r24, Z
    22dc:	28 1b       	sub	r18, r24
    22de:	31 09       	sbc	r19, r1
    22e0:	41 09       	sbc	r20, r1
    22e2:	51 09       	sbc	r21, r1
    22e4:	c9 01       	movw	r24, r18
    22e6:	1f 91       	pop	r17
    22e8:	0f 91       	pop	r16
    22ea:	ff 90       	pop	r15
    22ec:	ef 90       	pop	r14
    22ee:	08 95       	ret

000022f0 <__pack_f>:
    22f0:	df 92       	push	r13
    22f2:	ef 92       	push	r14
    22f4:	ff 92       	push	r15
    22f6:	0f 93       	push	r16
    22f8:	1f 93       	push	r17
    22fa:	fc 01       	movw	r30, r24
    22fc:	e4 80       	ldd	r14, Z+4	; 0x04
    22fe:	f5 80       	ldd	r15, Z+5	; 0x05
    2300:	06 81       	ldd	r16, Z+6	; 0x06
    2302:	17 81       	ldd	r17, Z+7	; 0x07
    2304:	d1 80       	ldd	r13, Z+1	; 0x01
    2306:	80 81       	ld	r24, Z
    2308:	82 30       	cpi	r24, 0x02	; 2
    230a:	48 f4       	brcc	.+18     	; 0x231e <__pack_f+0x2e>
    230c:	80 e0       	ldi	r24, 0x00	; 0
    230e:	90 e0       	ldi	r25, 0x00	; 0
    2310:	a0 e1       	ldi	r26, 0x10	; 16
    2312:	b0 e0       	ldi	r27, 0x00	; 0
    2314:	e8 2a       	or	r14, r24
    2316:	f9 2a       	or	r15, r25
    2318:	0a 2b       	or	r16, r26
    231a:	1b 2b       	or	r17, r27
    231c:	a5 c0       	rjmp	.+330    	; 0x2468 <__pack_f+0x178>
    231e:	84 30       	cpi	r24, 0x04	; 4
    2320:	09 f4       	brne	.+2      	; 0x2324 <__pack_f+0x34>
    2322:	9f c0       	rjmp	.+318    	; 0x2462 <__pack_f+0x172>
    2324:	82 30       	cpi	r24, 0x02	; 2
    2326:	21 f4       	brne	.+8      	; 0x2330 <__pack_f+0x40>
    2328:	ee 24       	eor	r14, r14
    232a:	ff 24       	eor	r15, r15
    232c:	87 01       	movw	r16, r14
    232e:	05 c0       	rjmp	.+10     	; 0x233a <__pack_f+0x4a>
    2330:	e1 14       	cp	r14, r1
    2332:	f1 04       	cpc	r15, r1
    2334:	01 05       	cpc	r16, r1
    2336:	11 05       	cpc	r17, r1
    2338:	19 f4       	brne	.+6      	; 0x2340 <__pack_f+0x50>
    233a:	e0 e0       	ldi	r30, 0x00	; 0
    233c:	f0 e0       	ldi	r31, 0x00	; 0
    233e:	96 c0       	rjmp	.+300    	; 0x246c <__pack_f+0x17c>
    2340:	62 81       	ldd	r22, Z+2	; 0x02
    2342:	73 81       	ldd	r23, Z+3	; 0x03
    2344:	9f ef       	ldi	r25, 0xFF	; 255
    2346:	62 38       	cpi	r22, 0x82	; 130
    2348:	79 07       	cpc	r23, r25
    234a:	0c f0       	brlt	.+2      	; 0x234e <__pack_f+0x5e>
    234c:	5b c0       	rjmp	.+182    	; 0x2404 <__pack_f+0x114>
    234e:	22 e8       	ldi	r18, 0x82	; 130
    2350:	3f ef       	ldi	r19, 0xFF	; 255
    2352:	26 1b       	sub	r18, r22
    2354:	37 0b       	sbc	r19, r23
    2356:	2a 31       	cpi	r18, 0x1A	; 26
    2358:	31 05       	cpc	r19, r1
    235a:	2c f0       	brlt	.+10     	; 0x2366 <__pack_f+0x76>
    235c:	20 e0       	ldi	r18, 0x00	; 0
    235e:	30 e0       	ldi	r19, 0x00	; 0
    2360:	40 e0       	ldi	r20, 0x00	; 0
    2362:	50 e0       	ldi	r21, 0x00	; 0
    2364:	2a c0       	rjmp	.+84     	; 0x23ba <__pack_f+0xca>
    2366:	b8 01       	movw	r22, r16
    2368:	a7 01       	movw	r20, r14
    236a:	02 2e       	mov	r0, r18
    236c:	04 c0       	rjmp	.+8      	; 0x2376 <__pack_f+0x86>
    236e:	76 95       	lsr	r23
    2370:	67 95       	ror	r22
    2372:	57 95       	ror	r21
    2374:	47 95       	ror	r20
    2376:	0a 94       	dec	r0
    2378:	d2 f7       	brpl	.-12     	; 0x236e <__pack_f+0x7e>
    237a:	81 e0       	ldi	r24, 0x01	; 1
    237c:	90 e0       	ldi	r25, 0x00	; 0
    237e:	a0 e0       	ldi	r26, 0x00	; 0
    2380:	b0 e0       	ldi	r27, 0x00	; 0
    2382:	04 c0       	rjmp	.+8      	; 0x238c <__pack_f+0x9c>
    2384:	88 0f       	add	r24, r24
    2386:	99 1f       	adc	r25, r25
    2388:	aa 1f       	adc	r26, r26
    238a:	bb 1f       	adc	r27, r27
    238c:	2a 95       	dec	r18
    238e:	d2 f7       	brpl	.-12     	; 0x2384 <__pack_f+0x94>
    2390:	01 97       	sbiw	r24, 0x01	; 1
    2392:	a1 09       	sbc	r26, r1
    2394:	b1 09       	sbc	r27, r1
    2396:	8e 21       	and	r24, r14
    2398:	9f 21       	and	r25, r15
    239a:	a0 23       	and	r26, r16
    239c:	b1 23       	and	r27, r17
    239e:	00 97       	sbiw	r24, 0x00	; 0
    23a0:	a1 05       	cpc	r26, r1
    23a2:	b1 05       	cpc	r27, r1
    23a4:	21 f0       	breq	.+8      	; 0x23ae <__pack_f+0xbe>
    23a6:	81 e0       	ldi	r24, 0x01	; 1
    23a8:	90 e0       	ldi	r25, 0x00	; 0
    23aa:	a0 e0       	ldi	r26, 0x00	; 0
    23ac:	b0 e0       	ldi	r27, 0x00	; 0
    23ae:	9a 01       	movw	r18, r20
    23b0:	ab 01       	movw	r20, r22
    23b2:	28 2b       	or	r18, r24
    23b4:	39 2b       	or	r19, r25
    23b6:	4a 2b       	or	r20, r26
    23b8:	5b 2b       	or	r21, r27
    23ba:	da 01       	movw	r26, r20
    23bc:	c9 01       	movw	r24, r18
    23be:	8f 77       	andi	r24, 0x7F	; 127
    23c0:	90 70       	andi	r25, 0x00	; 0
    23c2:	a0 70       	andi	r26, 0x00	; 0
    23c4:	b0 70       	andi	r27, 0x00	; 0
    23c6:	80 34       	cpi	r24, 0x40	; 64
    23c8:	91 05       	cpc	r25, r1
    23ca:	a1 05       	cpc	r26, r1
    23cc:	b1 05       	cpc	r27, r1
    23ce:	39 f4       	brne	.+14     	; 0x23de <__pack_f+0xee>
    23d0:	27 ff       	sbrs	r18, 7
    23d2:	09 c0       	rjmp	.+18     	; 0x23e6 <__pack_f+0xf6>
    23d4:	20 5c       	subi	r18, 0xC0	; 192
    23d6:	3f 4f       	sbci	r19, 0xFF	; 255
    23d8:	4f 4f       	sbci	r20, 0xFF	; 255
    23da:	5f 4f       	sbci	r21, 0xFF	; 255
    23dc:	04 c0       	rjmp	.+8      	; 0x23e6 <__pack_f+0xf6>
    23de:	21 5c       	subi	r18, 0xC1	; 193
    23e0:	3f 4f       	sbci	r19, 0xFF	; 255
    23e2:	4f 4f       	sbci	r20, 0xFF	; 255
    23e4:	5f 4f       	sbci	r21, 0xFF	; 255
    23e6:	e0 e0       	ldi	r30, 0x00	; 0
    23e8:	f0 e0       	ldi	r31, 0x00	; 0
    23ea:	20 30       	cpi	r18, 0x00	; 0
    23ec:	a0 e0       	ldi	r26, 0x00	; 0
    23ee:	3a 07       	cpc	r19, r26
    23f0:	a0 e0       	ldi	r26, 0x00	; 0
    23f2:	4a 07       	cpc	r20, r26
    23f4:	a0 e4       	ldi	r26, 0x40	; 64
    23f6:	5a 07       	cpc	r21, r26
    23f8:	10 f0       	brcs	.+4      	; 0x23fe <__pack_f+0x10e>
    23fa:	e1 e0       	ldi	r30, 0x01	; 1
    23fc:	f0 e0       	ldi	r31, 0x00	; 0
    23fe:	79 01       	movw	r14, r18
    2400:	8a 01       	movw	r16, r20
    2402:	27 c0       	rjmp	.+78     	; 0x2452 <__pack_f+0x162>
    2404:	60 38       	cpi	r22, 0x80	; 128
    2406:	71 05       	cpc	r23, r1
    2408:	64 f5       	brge	.+88     	; 0x2462 <__pack_f+0x172>
    240a:	fb 01       	movw	r30, r22
    240c:	e1 58       	subi	r30, 0x81	; 129
    240e:	ff 4f       	sbci	r31, 0xFF	; 255
    2410:	d8 01       	movw	r26, r16
    2412:	c7 01       	movw	r24, r14
    2414:	8f 77       	andi	r24, 0x7F	; 127
    2416:	90 70       	andi	r25, 0x00	; 0
    2418:	a0 70       	andi	r26, 0x00	; 0
    241a:	b0 70       	andi	r27, 0x00	; 0
    241c:	80 34       	cpi	r24, 0x40	; 64
    241e:	91 05       	cpc	r25, r1
    2420:	a1 05       	cpc	r26, r1
    2422:	b1 05       	cpc	r27, r1
    2424:	39 f4       	brne	.+14     	; 0x2434 <__pack_f+0x144>
    2426:	e7 fe       	sbrs	r14, 7
    2428:	0d c0       	rjmp	.+26     	; 0x2444 <__pack_f+0x154>
    242a:	80 e4       	ldi	r24, 0x40	; 64
    242c:	90 e0       	ldi	r25, 0x00	; 0
    242e:	a0 e0       	ldi	r26, 0x00	; 0
    2430:	b0 e0       	ldi	r27, 0x00	; 0
    2432:	04 c0       	rjmp	.+8      	; 0x243c <__pack_f+0x14c>
    2434:	8f e3       	ldi	r24, 0x3F	; 63
    2436:	90 e0       	ldi	r25, 0x00	; 0
    2438:	a0 e0       	ldi	r26, 0x00	; 0
    243a:	b0 e0       	ldi	r27, 0x00	; 0
    243c:	e8 0e       	add	r14, r24
    243e:	f9 1e       	adc	r15, r25
    2440:	0a 1f       	adc	r16, r26
    2442:	1b 1f       	adc	r17, r27
    2444:	17 ff       	sbrs	r17, 7
    2446:	05 c0       	rjmp	.+10     	; 0x2452 <__pack_f+0x162>
    2448:	16 95       	lsr	r17
    244a:	07 95       	ror	r16
    244c:	f7 94       	ror	r15
    244e:	e7 94       	ror	r14
    2450:	31 96       	adiw	r30, 0x01	; 1
    2452:	87 e0       	ldi	r24, 0x07	; 7
    2454:	16 95       	lsr	r17
    2456:	07 95       	ror	r16
    2458:	f7 94       	ror	r15
    245a:	e7 94       	ror	r14
    245c:	8a 95       	dec	r24
    245e:	d1 f7       	brne	.-12     	; 0x2454 <__pack_f+0x164>
    2460:	05 c0       	rjmp	.+10     	; 0x246c <__pack_f+0x17c>
    2462:	ee 24       	eor	r14, r14
    2464:	ff 24       	eor	r15, r15
    2466:	87 01       	movw	r16, r14
    2468:	ef ef       	ldi	r30, 0xFF	; 255
    246a:	f0 e0       	ldi	r31, 0x00	; 0
    246c:	6e 2f       	mov	r22, r30
    246e:	67 95       	ror	r22
    2470:	66 27       	eor	r22, r22
    2472:	67 95       	ror	r22
    2474:	90 2f       	mov	r25, r16
    2476:	9f 77       	andi	r25, 0x7F	; 127
    2478:	d7 94       	ror	r13
    247a:	dd 24       	eor	r13, r13
    247c:	d7 94       	ror	r13
    247e:	8e 2f       	mov	r24, r30
    2480:	86 95       	lsr	r24
    2482:	49 2f       	mov	r20, r25
    2484:	46 2b       	or	r20, r22
    2486:	58 2f       	mov	r21, r24
    2488:	5d 29       	or	r21, r13
    248a:	b7 01       	movw	r22, r14
    248c:	ca 01       	movw	r24, r20
    248e:	1f 91       	pop	r17
    2490:	0f 91       	pop	r16
    2492:	ff 90       	pop	r15
    2494:	ef 90       	pop	r14
    2496:	df 90       	pop	r13
    2498:	08 95       	ret

0000249a <__unpack_f>:
    249a:	fc 01       	movw	r30, r24
    249c:	db 01       	movw	r26, r22
    249e:	40 81       	ld	r20, Z
    24a0:	51 81       	ldd	r21, Z+1	; 0x01
    24a2:	22 81       	ldd	r18, Z+2	; 0x02
    24a4:	62 2f       	mov	r22, r18
    24a6:	6f 77       	andi	r22, 0x7F	; 127
    24a8:	70 e0       	ldi	r23, 0x00	; 0
    24aa:	22 1f       	adc	r18, r18
    24ac:	22 27       	eor	r18, r18
    24ae:	22 1f       	adc	r18, r18
    24b0:	93 81       	ldd	r25, Z+3	; 0x03
    24b2:	89 2f       	mov	r24, r25
    24b4:	88 0f       	add	r24, r24
    24b6:	82 2b       	or	r24, r18
    24b8:	28 2f       	mov	r18, r24
    24ba:	30 e0       	ldi	r19, 0x00	; 0
    24bc:	99 1f       	adc	r25, r25
    24be:	99 27       	eor	r25, r25
    24c0:	99 1f       	adc	r25, r25
    24c2:	11 96       	adiw	r26, 0x01	; 1
    24c4:	9c 93       	st	X, r25
    24c6:	11 97       	sbiw	r26, 0x01	; 1
    24c8:	21 15       	cp	r18, r1
    24ca:	31 05       	cpc	r19, r1
    24cc:	a9 f5       	brne	.+106    	; 0x2538 <__unpack_f+0x9e>
    24ce:	41 15       	cp	r20, r1
    24d0:	51 05       	cpc	r21, r1
    24d2:	61 05       	cpc	r22, r1
    24d4:	71 05       	cpc	r23, r1
    24d6:	11 f4       	brne	.+4      	; 0x24dc <__unpack_f+0x42>
    24d8:	82 e0       	ldi	r24, 0x02	; 2
    24da:	37 c0       	rjmp	.+110    	; 0x254a <__unpack_f+0xb0>
    24dc:	82 e8       	ldi	r24, 0x82	; 130
    24de:	9f ef       	ldi	r25, 0xFF	; 255
    24e0:	13 96       	adiw	r26, 0x03	; 3
    24e2:	9c 93       	st	X, r25
    24e4:	8e 93       	st	-X, r24
    24e6:	12 97       	sbiw	r26, 0x02	; 2
    24e8:	9a 01       	movw	r18, r20
    24ea:	ab 01       	movw	r20, r22
    24ec:	67 e0       	ldi	r22, 0x07	; 7
    24ee:	22 0f       	add	r18, r18
    24f0:	33 1f       	adc	r19, r19
    24f2:	44 1f       	adc	r20, r20
    24f4:	55 1f       	adc	r21, r21
    24f6:	6a 95       	dec	r22
    24f8:	d1 f7       	brne	.-12     	; 0x24ee <__unpack_f+0x54>
    24fa:	83 e0       	ldi	r24, 0x03	; 3
    24fc:	8c 93       	st	X, r24
    24fe:	0d c0       	rjmp	.+26     	; 0x251a <__unpack_f+0x80>
    2500:	22 0f       	add	r18, r18
    2502:	33 1f       	adc	r19, r19
    2504:	44 1f       	adc	r20, r20
    2506:	55 1f       	adc	r21, r21
    2508:	12 96       	adiw	r26, 0x02	; 2
    250a:	8d 91       	ld	r24, X+
    250c:	9c 91       	ld	r25, X
    250e:	13 97       	sbiw	r26, 0x03	; 3
    2510:	01 97       	sbiw	r24, 0x01	; 1
    2512:	13 96       	adiw	r26, 0x03	; 3
    2514:	9c 93       	st	X, r25
    2516:	8e 93       	st	-X, r24
    2518:	12 97       	sbiw	r26, 0x02	; 2
    251a:	20 30       	cpi	r18, 0x00	; 0
    251c:	80 e0       	ldi	r24, 0x00	; 0
    251e:	38 07       	cpc	r19, r24
    2520:	80 e0       	ldi	r24, 0x00	; 0
    2522:	48 07       	cpc	r20, r24
    2524:	80 e4       	ldi	r24, 0x40	; 64
    2526:	58 07       	cpc	r21, r24
    2528:	58 f3       	brcs	.-42     	; 0x2500 <__unpack_f+0x66>
    252a:	14 96       	adiw	r26, 0x04	; 4
    252c:	2d 93       	st	X+, r18
    252e:	3d 93       	st	X+, r19
    2530:	4d 93       	st	X+, r20
    2532:	5c 93       	st	X, r21
    2534:	17 97       	sbiw	r26, 0x07	; 7
    2536:	08 95       	ret
    2538:	2f 3f       	cpi	r18, 0xFF	; 255
    253a:	31 05       	cpc	r19, r1
    253c:	79 f4       	brne	.+30     	; 0x255c <__unpack_f+0xc2>
    253e:	41 15       	cp	r20, r1
    2540:	51 05       	cpc	r21, r1
    2542:	61 05       	cpc	r22, r1
    2544:	71 05       	cpc	r23, r1
    2546:	19 f4       	brne	.+6      	; 0x254e <__unpack_f+0xb4>
    2548:	84 e0       	ldi	r24, 0x04	; 4
    254a:	8c 93       	st	X, r24
    254c:	08 95       	ret
    254e:	64 ff       	sbrs	r22, 4
    2550:	03 c0       	rjmp	.+6      	; 0x2558 <__unpack_f+0xbe>
    2552:	81 e0       	ldi	r24, 0x01	; 1
    2554:	8c 93       	st	X, r24
    2556:	12 c0       	rjmp	.+36     	; 0x257c <__unpack_f+0xe2>
    2558:	1c 92       	st	X, r1
    255a:	10 c0       	rjmp	.+32     	; 0x257c <__unpack_f+0xe2>
    255c:	2f 57       	subi	r18, 0x7F	; 127
    255e:	30 40       	sbci	r19, 0x00	; 0
    2560:	13 96       	adiw	r26, 0x03	; 3
    2562:	3c 93       	st	X, r19
    2564:	2e 93       	st	-X, r18
    2566:	12 97       	sbiw	r26, 0x02	; 2
    2568:	83 e0       	ldi	r24, 0x03	; 3
    256a:	8c 93       	st	X, r24
    256c:	87 e0       	ldi	r24, 0x07	; 7
    256e:	44 0f       	add	r20, r20
    2570:	55 1f       	adc	r21, r21
    2572:	66 1f       	adc	r22, r22
    2574:	77 1f       	adc	r23, r23
    2576:	8a 95       	dec	r24
    2578:	d1 f7       	brne	.-12     	; 0x256e <__unpack_f+0xd4>
    257a:	70 64       	ori	r23, 0x40	; 64
    257c:	14 96       	adiw	r26, 0x04	; 4
    257e:	4d 93       	st	X+, r20
    2580:	5d 93       	st	X+, r21
    2582:	6d 93       	st	X+, r22
    2584:	7c 93       	st	X, r23
    2586:	17 97       	sbiw	r26, 0x07	; 7
    2588:	08 95       	ret

0000258a <__fpcmp_parts_f>:
    258a:	1f 93       	push	r17
    258c:	dc 01       	movw	r26, r24
    258e:	fb 01       	movw	r30, r22
    2590:	9c 91       	ld	r25, X
    2592:	92 30       	cpi	r25, 0x02	; 2
    2594:	08 f4       	brcc	.+2      	; 0x2598 <__fpcmp_parts_f+0xe>
    2596:	47 c0       	rjmp	.+142    	; 0x2626 <__fpcmp_parts_f+0x9c>
    2598:	80 81       	ld	r24, Z
    259a:	82 30       	cpi	r24, 0x02	; 2
    259c:	08 f4       	brcc	.+2      	; 0x25a0 <__fpcmp_parts_f+0x16>
    259e:	43 c0       	rjmp	.+134    	; 0x2626 <__fpcmp_parts_f+0x9c>
    25a0:	94 30       	cpi	r25, 0x04	; 4
    25a2:	51 f4       	brne	.+20     	; 0x25b8 <__fpcmp_parts_f+0x2e>
    25a4:	11 96       	adiw	r26, 0x01	; 1
    25a6:	1c 91       	ld	r17, X
    25a8:	84 30       	cpi	r24, 0x04	; 4
    25aa:	99 f5       	brne	.+102    	; 0x2612 <__fpcmp_parts_f+0x88>
    25ac:	81 81       	ldd	r24, Z+1	; 0x01
    25ae:	68 2f       	mov	r22, r24
    25b0:	70 e0       	ldi	r23, 0x00	; 0
    25b2:	61 1b       	sub	r22, r17
    25b4:	71 09       	sbc	r23, r1
    25b6:	3f c0       	rjmp	.+126    	; 0x2636 <__fpcmp_parts_f+0xac>
    25b8:	84 30       	cpi	r24, 0x04	; 4
    25ba:	21 f0       	breq	.+8      	; 0x25c4 <__fpcmp_parts_f+0x3a>
    25bc:	92 30       	cpi	r25, 0x02	; 2
    25be:	31 f4       	brne	.+12     	; 0x25cc <__fpcmp_parts_f+0x42>
    25c0:	82 30       	cpi	r24, 0x02	; 2
    25c2:	b9 f1       	breq	.+110    	; 0x2632 <__fpcmp_parts_f+0xa8>
    25c4:	81 81       	ldd	r24, Z+1	; 0x01
    25c6:	88 23       	and	r24, r24
    25c8:	89 f1       	breq	.+98     	; 0x262c <__fpcmp_parts_f+0xa2>
    25ca:	2d c0       	rjmp	.+90     	; 0x2626 <__fpcmp_parts_f+0x9c>
    25cc:	11 96       	adiw	r26, 0x01	; 1
    25ce:	1c 91       	ld	r17, X
    25d0:	11 97       	sbiw	r26, 0x01	; 1
    25d2:	82 30       	cpi	r24, 0x02	; 2
    25d4:	f1 f0       	breq	.+60     	; 0x2612 <__fpcmp_parts_f+0x88>
    25d6:	81 81       	ldd	r24, Z+1	; 0x01
    25d8:	18 17       	cp	r17, r24
    25da:	d9 f4       	brne	.+54     	; 0x2612 <__fpcmp_parts_f+0x88>
    25dc:	12 96       	adiw	r26, 0x02	; 2
    25de:	2d 91       	ld	r18, X+
    25e0:	3c 91       	ld	r19, X
    25e2:	13 97       	sbiw	r26, 0x03	; 3
    25e4:	82 81       	ldd	r24, Z+2	; 0x02
    25e6:	93 81       	ldd	r25, Z+3	; 0x03
    25e8:	82 17       	cp	r24, r18
    25ea:	93 07       	cpc	r25, r19
    25ec:	94 f0       	brlt	.+36     	; 0x2612 <__fpcmp_parts_f+0x88>
    25ee:	28 17       	cp	r18, r24
    25f0:	39 07       	cpc	r19, r25
    25f2:	bc f0       	brlt	.+46     	; 0x2622 <__fpcmp_parts_f+0x98>
    25f4:	14 96       	adiw	r26, 0x04	; 4
    25f6:	8d 91       	ld	r24, X+
    25f8:	9d 91       	ld	r25, X+
    25fa:	0d 90       	ld	r0, X+
    25fc:	bc 91       	ld	r27, X
    25fe:	a0 2d       	mov	r26, r0
    2600:	24 81       	ldd	r18, Z+4	; 0x04
    2602:	35 81       	ldd	r19, Z+5	; 0x05
    2604:	46 81       	ldd	r20, Z+6	; 0x06
    2606:	57 81       	ldd	r21, Z+7	; 0x07
    2608:	28 17       	cp	r18, r24
    260a:	39 07       	cpc	r19, r25
    260c:	4a 07       	cpc	r20, r26
    260e:	5b 07       	cpc	r21, r27
    2610:	18 f4       	brcc	.+6      	; 0x2618 <__fpcmp_parts_f+0x8e>
    2612:	11 23       	and	r17, r17
    2614:	41 f0       	breq	.+16     	; 0x2626 <__fpcmp_parts_f+0x9c>
    2616:	0a c0       	rjmp	.+20     	; 0x262c <__fpcmp_parts_f+0xa2>
    2618:	82 17       	cp	r24, r18
    261a:	93 07       	cpc	r25, r19
    261c:	a4 07       	cpc	r26, r20
    261e:	b5 07       	cpc	r27, r21
    2620:	40 f4       	brcc	.+16     	; 0x2632 <__fpcmp_parts_f+0xa8>
    2622:	11 23       	and	r17, r17
    2624:	19 f0       	breq	.+6      	; 0x262c <__fpcmp_parts_f+0xa2>
    2626:	61 e0       	ldi	r22, 0x01	; 1
    2628:	70 e0       	ldi	r23, 0x00	; 0
    262a:	05 c0       	rjmp	.+10     	; 0x2636 <__fpcmp_parts_f+0xac>
    262c:	6f ef       	ldi	r22, 0xFF	; 255
    262e:	7f ef       	ldi	r23, 0xFF	; 255
    2630:	02 c0       	rjmp	.+4      	; 0x2636 <__fpcmp_parts_f+0xac>
    2632:	60 e0       	ldi	r22, 0x00	; 0
    2634:	70 e0       	ldi	r23, 0x00	; 0
    2636:	cb 01       	movw	r24, r22
    2638:	1f 91       	pop	r17
    263a:	08 95       	ret

0000263c <__udivmodqi4>:
    263c:	99 1b       	sub	r25, r25
    263e:	79 e0       	ldi	r23, 0x09	; 9
    2640:	04 c0       	rjmp	.+8      	; 0x264a <__udivmodqi4_ep>

00002642 <__udivmodqi4_loop>:
    2642:	99 1f       	adc	r25, r25
    2644:	96 17       	cp	r25, r22
    2646:	08 f0       	brcs	.+2      	; 0x264a <__udivmodqi4_ep>
    2648:	96 1b       	sub	r25, r22

0000264a <__udivmodqi4_ep>:
    264a:	88 1f       	adc	r24, r24
    264c:	7a 95       	dec	r23
    264e:	c9 f7       	brne	.-14     	; 0x2642 <__udivmodqi4_loop>
    2650:	80 95       	com	r24
    2652:	08 95       	ret

00002654 <__divmodhi4>:
    2654:	97 fb       	bst	r25, 7
    2656:	09 2e       	mov	r0, r25
    2658:	07 26       	eor	r0, r23
    265a:	0a d0       	rcall	.+20     	; 0x2670 <__divmodhi4_neg1>
    265c:	77 fd       	sbrc	r23, 7
    265e:	04 d0       	rcall	.+8      	; 0x2668 <__divmodhi4_neg2>
    2660:	0c d0       	rcall	.+24     	; 0x267a <__udivmodhi4>
    2662:	06 d0       	rcall	.+12     	; 0x2670 <__divmodhi4_neg1>
    2664:	00 20       	and	r0, r0
    2666:	1a f4       	brpl	.+6      	; 0x266e <__divmodhi4_exit>

00002668 <__divmodhi4_neg2>:
    2668:	70 95       	com	r23
    266a:	61 95       	neg	r22
    266c:	7f 4f       	sbci	r23, 0xFF	; 255

0000266e <__divmodhi4_exit>:
    266e:	08 95       	ret

00002670 <__divmodhi4_neg1>:
    2670:	f6 f7       	brtc	.-4      	; 0x266e <__divmodhi4_exit>
    2672:	90 95       	com	r25
    2674:	81 95       	neg	r24
    2676:	9f 4f       	sbci	r25, 0xFF	; 255
    2678:	08 95       	ret

0000267a <__udivmodhi4>:
    267a:	aa 1b       	sub	r26, r26
    267c:	bb 1b       	sub	r27, r27
    267e:	51 e1       	ldi	r21, 0x11	; 17
    2680:	07 c0       	rjmp	.+14     	; 0x2690 <__udivmodhi4_ep>

00002682 <__udivmodhi4_loop>:
    2682:	aa 1f       	adc	r26, r26
    2684:	bb 1f       	adc	r27, r27
    2686:	a6 17       	cp	r26, r22
    2688:	b7 07       	cpc	r27, r23
    268a:	10 f0       	brcs	.+4      	; 0x2690 <__udivmodhi4_ep>
    268c:	a6 1b       	sub	r26, r22
    268e:	b7 0b       	sbc	r27, r23

00002690 <__udivmodhi4_ep>:
    2690:	88 1f       	adc	r24, r24
    2692:	99 1f       	adc	r25, r25
    2694:	5a 95       	dec	r21
    2696:	a9 f7       	brne	.-22     	; 0x2682 <__udivmodhi4_loop>
    2698:	80 95       	com	r24
    269a:	90 95       	com	r25
    269c:	bc 01       	movw	r22, r24
    269e:	cd 01       	movw	r24, r26
    26a0:	08 95       	ret

000026a2 <__prologue_saves__>:
    26a2:	2f 92       	push	r2
    26a4:	3f 92       	push	r3
    26a6:	4f 92       	push	r4
    26a8:	5f 92       	push	r5
    26aa:	6f 92       	push	r6
    26ac:	7f 92       	push	r7
    26ae:	8f 92       	push	r8
    26b0:	9f 92       	push	r9
    26b2:	af 92       	push	r10
    26b4:	bf 92       	push	r11
    26b6:	cf 92       	push	r12
    26b8:	df 92       	push	r13
    26ba:	ef 92       	push	r14
    26bc:	ff 92       	push	r15
    26be:	0f 93       	push	r16
    26c0:	1f 93       	push	r17
    26c2:	cf 93       	push	r28
    26c4:	df 93       	push	r29
    26c6:	cd b7       	in	r28, 0x3d	; 61
    26c8:	de b7       	in	r29, 0x3e	; 62
    26ca:	ca 1b       	sub	r28, r26
    26cc:	db 0b       	sbc	r29, r27
    26ce:	0f b6       	in	r0, 0x3f	; 63
    26d0:	f8 94       	cli
    26d2:	de bf       	out	0x3e, r29	; 62
    26d4:	0f be       	out	0x3f, r0	; 63
    26d6:	cd bf       	out	0x3d, r28	; 61
    26d8:	09 94       	ijmp

000026da <__epilogue_restores__>:
    26da:	2a 88       	ldd	r2, Y+18	; 0x12
    26dc:	39 88       	ldd	r3, Y+17	; 0x11
    26de:	48 88       	ldd	r4, Y+16	; 0x10
    26e0:	5f 84       	ldd	r5, Y+15	; 0x0f
    26e2:	6e 84       	ldd	r6, Y+14	; 0x0e
    26e4:	7d 84       	ldd	r7, Y+13	; 0x0d
    26e6:	8c 84       	ldd	r8, Y+12	; 0x0c
    26e8:	9b 84       	ldd	r9, Y+11	; 0x0b
    26ea:	aa 84       	ldd	r10, Y+10	; 0x0a
    26ec:	b9 84       	ldd	r11, Y+9	; 0x09
    26ee:	c8 84       	ldd	r12, Y+8	; 0x08
    26f0:	df 80       	ldd	r13, Y+7	; 0x07
    26f2:	ee 80       	ldd	r14, Y+6	; 0x06
    26f4:	fd 80       	ldd	r15, Y+5	; 0x05
    26f6:	0c 81       	ldd	r16, Y+4	; 0x04
    26f8:	1b 81       	ldd	r17, Y+3	; 0x03
    26fa:	aa 81       	ldd	r26, Y+2	; 0x02
    26fc:	b9 81       	ldd	r27, Y+1	; 0x01
    26fe:	ce 0f       	add	r28, r30
    2700:	d1 1d       	adc	r29, r1
    2702:	0f b6       	in	r0, 0x3f	; 63
    2704:	f8 94       	cli
    2706:	de bf       	out	0x3e, r29	; 62
    2708:	0f be       	out	0x3f, r0	; 63
    270a:	cd bf       	out	0x3d, r28	; 61
    270c:	ed 01       	movw	r28, r26
    270e:	08 95       	ret

00002710 <memcpy>:
    2710:	fb 01       	movw	r30, r22
    2712:	dc 01       	movw	r26, r24
    2714:	02 c0       	rjmp	.+4      	; 0x271a <memcpy+0xa>
    2716:	01 90       	ld	r0, Z+
    2718:	0d 92       	st	X+, r0
    271a:	41 50       	subi	r20, 0x01	; 1
    271c:	50 40       	sbci	r21, 0x00	; 0
    271e:	d8 f7       	brcc	.-10     	; 0x2716 <memcpy+0x6>
    2720:	08 95       	ret

00002722 <strcpy>:
    2722:	fb 01       	movw	r30, r22
    2724:	dc 01       	movw	r26, r24
    2726:	01 90       	ld	r0, Z+
    2728:	0d 92       	st	X+, r0
    272a:	00 20       	and	r0, r0
    272c:	e1 f7       	brne	.-8      	; 0x2726 <strcpy+0x4>
    272e:	08 95       	ret

00002730 <strncmp>:
    2730:	fb 01       	movw	r30, r22
    2732:	dc 01       	movw	r26, r24
    2734:	41 50       	subi	r20, 0x01	; 1
    2736:	50 40       	sbci	r21, 0x00	; 0
    2738:	30 f0       	brcs	.+12     	; 0x2746 <strncmp+0x16>
    273a:	8d 91       	ld	r24, X+
    273c:	01 90       	ld	r0, Z+
    273e:	80 19       	sub	r24, r0
    2740:	19 f4       	brne	.+6      	; 0x2748 <strncmp+0x18>
    2742:	00 20       	and	r0, r0
    2744:	b9 f7       	brne	.-18     	; 0x2734 <strncmp+0x4>
    2746:	88 1b       	sub	r24, r24
    2748:	99 0b       	sbc	r25, r25
    274a:	08 95       	ret

0000274c <sprintf>:
    274c:	ae e0       	ldi	r26, 0x0E	; 14
    274e:	b0 e0       	ldi	r27, 0x00	; 0
    2750:	ec ea       	ldi	r30, 0xAC	; 172
    2752:	f3 e1       	ldi	r31, 0x13	; 19
    2754:	0c 94 5f 13 	jmp	0x26be	; 0x26be <__prologue_saves__+0x1c>
    2758:	0d 89       	ldd	r16, Y+21	; 0x15
    275a:	1e 89       	ldd	r17, Y+22	; 0x16
    275c:	86 e0       	ldi	r24, 0x06	; 6
    275e:	8c 83       	std	Y+4, r24	; 0x04
    2760:	1a 83       	std	Y+2, r17	; 0x02
    2762:	09 83       	std	Y+1, r16	; 0x01
    2764:	8f ef       	ldi	r24, 0xFF	; 255
    2766:	9f e7       	ldi	r25, 0x7F	; 127
    2768:	9e 83       	std	Y+6, r25	; 0x06
    276a:	8d 83       	std	Y+5, r24	; 0x05
    276c:	9e 01       	movw	r18, r28
    276e:	27 5e       	subi	r18, 0xE7	; 231
    2770:	3f 4f       	sbci	r19, 0xFF	; 255
    2772:	ce 01       	movw	r24, r28
    2774:	01 96       	adiw	r24, 0x01	; 1
    2776:	6f 89       	ldd	r22, Y+23	; 0x17
    2778:	78 8d       	ldd	r23, Y+24	; 0x18
    277a:	a9 01       	movw	r20, r18
    277c:	0e 94 ca 13 	call	0x2794	; 0x2794 <vfprintf>
    2780:	2f 81       	ldd	r18, Y+7	; 0x07
    2782:	38 85       	ldd	r19, Y+8	; 0x08
    2784:	02 0f       	add	r16, r18
    2786:	13 1f       	adc	r17, r19
    2788:	f8 01       	movw	r30, r16
    278a:	10 82       	st	Z, r1
    278c:	2e 96       	adiw	r28, 0x0e	; 14
    278e:	e4 e0       	ldi	r30, 0x04	; 4
    2790:	0c 94 7b 13 	jmp	0x26f6	; 0x26f6 <__epilogue_restores__+0x1c>

00002794 <vfprintf>:
    2794:	ab e0       	ldi	r26, 0x0B	; 11
    2796:	b0 e0       	ldi	r27, 0x00	; 0
    2798:	e0 ed       	ldi	r30, 0xD0	; 208
    279a:	f3 e1       	ldi	r31, 0x13	; 19
    279c:	0c 94 51 13 	jmp	0x26a2	; 0x26a2 <__prologue_saves__>
    27a0:	3c 01       	movw	r6, r24
    27a2:	2b 01       	movw	r4, r22
    27a4:	5a 01       	movw	r10, r20
    27a6:	fc 01       	movw	r30, r24
    27a8:	17 82       	std	Z+7, r1	; 0x07
    27aa:	16 82       	std	Z+6, r1	; 0x06
    27ac:	83 81       	ldd	r24, Z+3	; 0x03
    27ae:	81 fd       	sbrc	r24, 1
    27b0:	03 c0       	rjmp	.+6      	; 0x27b8 <vfprintf+0x24>
    27b2:	6f ef       	ldi	r22, 0xFF	; 255
    27b4:	7f ef       	ldi	r23, 0xFF	; 255
    27b6:	c6 c1       	rjmp	.+908    	; 0x2b44 <vfprintf+0x3b0>
    27b8:	9a e0       	ldi	r25, 0x0A	; 10
    27ba:	89 2e       	mov	r8, r25
    27bc:	1e 01       	movw	r2, r28
    27be:	08 94       	sec
    27c0:	21 1c       	adc	r2, r1
    27c2:	31 1c       	adc	r3, r1
    27c4:	f3 01       	movw	r30, r6
    27c6:	23 81       	ldd	r18, Z+3	; 0x03
    27c8:	f2 01       	movw	r30, r4
    27ca:	23 fd       	sbrc	r18, 3
    27cc:	85 91       	lpm	r24, Z+
    27ce:	23 ff       	sbrs	r18, 3
    27d0:	81 91       	ld	r24, Z+
    27d2:	2f 01       	movw	r4, r30
    27d4:	88 23       	and	r24, r24
    27d6:	09 f4       	brne	.+2      	; 0x27da <vfprintf+0x46>
    27d8:	b2 c1       	rjmp	.+868    	; 0x2b3e <vfprintf+0x3aa>
    27da:	85 32       	cpi	r24, 0x25	; 37
    27dc:	39 f4       	brne	.+14     	; 0x27ec <vfprintf+0x58>
    27de:	23 fd       	sbrc	r18, 3
    27e0:	85 91       	lpm	r24, Z+
    27e2:	23 ff       	sbrs	r18, 3
    27e4:	81 91       	ld	r24, Z+
    27e6:	2f 01       	movw	r4, r30
    27e8:	85 32       	cpi	r24, 0x25	; 37
    27ea:	29 f4       	brne	.+10     	; 0x27f6 <vfprintf+0x62>
    27ec:	90 e0       	ldi	r25, 0x00	; 0
    27ee:	b3 01       	movw	r22, r6
    27f0:	0e 94 e5 15 	call	0x2bca	; 0x2bca <fputc>
    27f4:	e7 cf       	rjmp	.-50     	; 0x27c4 <vfprintf+0x30>
    27f6:	98 2f       	mov	r25, r24
    27f8:	ff 24       	eor	r15, r15
    27fa:	ee 24       	eor	r14, r14
    27fc:	99 24       	eor	r9, r9
    27fe:	ff e1       	ldi	r31, 0x1F	; 31
    2800:	ff 15       	cp	r31, r15
    2802:	d0 f0       	brcs	.+52     	; 0x2838 <vfprintf+0xa4>
    2804:	9b 32       	cpi	r25, 0x2B	; 43
    2806:	69 f0       	breq	.+26     	; 0x2822 <vfprintf+0x8e>
    2808:	9c 32       	cpi	r25, 0x2C	; 44
    280a:	28 f4       	brcc	.+10     	; 0x2816 <vfprintf+0x82>
    280c:	90 32       	cpi	r25, 0x20	; 32
    280e:	59 f0       	breq	.+22     	; 0x2826 <vfprintf+0x92>
    2810:	93 32       	cpi	r25, 0x23	; 35
    2812:	91 f4       	brne	.+36     	; 0x2838 <vfprintf+0xa4>
    2814:	0e c0       	rjmp	.+28     	; 0x2832 <vfprintf+0x9e>
    2816:	9d 32       	cpi	r25, 0x2D	; 45
    2818:	49 f0       	breq	.+18     	; 0x282c <vfprintf+0x98>
    281a:	90 33       	cpi	r25, 0x30	; 48
    281c:	69 f4       	brne	.+26     	; 0x2838 <vfprintf+0xa4>
    281e:	41 e0       	ldi	r20, 0x01	; 1
    2820:	24 c0       	rjmp	.+72     	; 0x286a <vfprintf+0xd6>
    2822:	52 e0       	ldi	r21, 0x02	; 2
    2824:	f5 2a       	or	r15, r21
    2826:	84 e0       	ldi	r24, 0x04	; 4
    2828:	f8 2a       	or	r15, r24
    282a:	28 c0       	rjmp	.+80     	; 0x287c <vfprintf+0xe8>
    282c:	98 e0       	ldi	r25, 0x08	; 8
    282e:	f9 2a       	or	r15, r25
    2830:	25 c0       	rjmp	.+74     	; 0x287c <vfprintf+0xe8>
    2832:	e0 e1       	ldi	r30, 0x10	; 16
    2834:	fe 2a       	or	r15, r30
    2836:	22 c0       	rjmp	.+68     	; 0x287c <vfprintf+0xe8>
    2838:	f7 fc       	sbrc	r15, 7
    283a:	29 c0       	rjmp	.+82     	; 0x288e <vfprintf+0xfa>
    283c:	89 2f       	mov	r24, r25
    283e:	80 53       	subi	r24, 0x30	; 48
    2840:	8a 30       	cpi	r24, 0x0A	; 10
    2842:	70 f4       	brcc	.+28     	; 0x2860 <vfprintf+0xcc>
    2844:	f6 fe       	sbrs	r15, 6
    2846:	05 c0       	rjmp	.+10     	; 0x2852 <vfprintf+0xbe>
    2848:	98 9c       	mul	r9, r8
    284a:	90 2c       	mov	r9, r0
    284c:	11 24       	eor	r1, r1
    284e:	98 0e       	add	r9, r24
    2850:	15 c0       	rjmp	.+42     	; 0x287c <vfprintf+0xe8>
    2852:	e8 9c       	mul	r14, r8
    2854:	e0 2c       	mov	r14, r0
    2856:	11 24       	eor	r1, r1
    2858:	e8 0e       	add	r14, r24
    285a:	f0 e2       	ldi	r31, 0x20	; 32
    285c:	ff 2a       	or	r15, r31
    285e:	0e c0       	rjmp	.+28     	; 0x287c <vfprintf+0xe8>
    2860:	9e 32       	cpi	r25, 0x2E	; 46
    2862:	29 f4       	brne	.+10     	; 0x286e <vfprintf+0xda>
    2864:	f6 fc       	sbrc	r15, 6
    2866:	6b c1       	rjmp	.+726    	; 0x2b3e <vfprintf+0x3aa>
    2868:	40 e4       	ldi	r20, 0x40	; 64
    286a:	f4 2a       	or	r15, r20
    286c:	07 c0       	rjmp	.+14     	; 0x287c <vfprintf+0xe8>
    286e:	9c 36       	cpi	r25, 0x6C	; 108
    2870:	19 f4       	brne	.+6      	; 0x2878 <vfprintf+0xe4>
    2872:	50 e8       	ldi	r21, 0x80	; 128
    2874:	f5 2a       	or	r15, r21
    2876:	02 c0       	rjmp	.+4      	; 0x287c <vfprintf+0xe8>
    2878:	98 36       	cpi	r25, 0x68	; 104
    287a:	49 f4       	brne	.+18     	; 0x288e <vfprintf+0xfa>
    287c:	f2 01       	movw	r30, r4
    287e:	23 fd       	sbrc	r18, 3
    2880:	95 91       	lpm	r25, Z+
    2882:	23 ff       	sbrs	r18, 3
    2884:	91 91       	ld	r25, Z+
    2886:	2f 01       	movw	r4, r30
    2888:	99 23       	and	r25, r25
    288a:	09 f0       	breq	.+2      	; 0x288e <vfprintf+0xfa>
    288c:	b8 cf       	rjmp	.-144    	; 0x27fe <vfprintf+0x6a>
    288e:	89 2f       	mov	r24, r25
    2890:	85 54       	subi	r24, 0x45	; 69
    2892:	83 30       	cpi	r24, 0x03	; 3
    2894:	18 f0       	brcs	.+6      	; 0x289c <vfprintf+0x108>
    2896:	80 52       	subi	r24, 0x20	; 32
    2898:	83 30       	cpi	r24, 0x03	; 3
    289a:	38 f4       	brcc	.+14     	; 0x28aa <vfprintf+0x116>
    289c:	44 e0       	ldi	r20, 0x04	; 4
    289e:	50 e0       	ldi	r21, 0x00	; 0
    28a0:	a4 0e       	add	r10, r20
    28a2:	b5 1e       	adc	r11, r21
    28a4:	5f e3       	ldi	r21, 0x3F	; 63
    28a6:	59 83       	std	Y+1, r21	; 0x01
    28a8:	0f c0       	rjmp	.+30     	; 0x28c8 <vfprintf+0x134>
    28aa:	93 36       	cpi	r25, 0x63	; 99
    28ac:	31 f0       	breq	.+12     	; 0x28ba <vfprintf+0x126>
    28ae:	93 37       	cpi	r25, 0x73	; 115
    28b0:	79 f0       	breq	.+30     	; 0x28d0 <vfprintf+0x13c>
    28b2:	93 35       	cpi	r25, 0x53	; 83
    28b4:	09 f0       	breq	.+2      	; 0x28b8 <vfprintf+0x124>
    28b6:	56 c0       	rjmp	.+172    	; 0x2964 <vfprintf+0x1d0>
    28b8:	20 c0       	rjmp	.+64     	; 0x28fa <vfprintf+0x166>
    28ba:	f5 01       	movw	r30, r10
    28bc:	80 81       	ld	r24, Z
    28be:	89 83       	std	Y+1, r24	; 0x01
    28c0:	42 e0       	ldi	r20, 0x02	; 2
    28c2:	50 e0       	ldi	r21, 0x00	; 0
    28c4:	a4 0e       	add	r10, r20
    28c6:	b5 1e       	adc	r11, r21
    28c8:	61 01       	movw	r12, r2
    28ca:	01 e0       	ldi	r16, 0x01	; 1
    28cc:	10 e0       	ldi	r17, 0x00	; 0
    28ce:	12 c0       	rjmp	.+36     	; 0x28f4 <vfprintf+0x160>
    28d0:	f5 01       	movw	r30, r10
    28d2:	c0 80       	ld	r12, Z
    28d4:	d1 80       	ldd	r13, Z+1	; 0x01
    28d6:	f6 fc       	sbrc	r15, 6
    28d8:	03 c0       	rjmp	.+6      	; 0x28e0 <vfprintf+0x14c>
    28da:	6f ef       	ldi	r22, 0xFF	; 255
    28dc:	7f ef       	ldi	r23, 0xFF	; 255
    28de:	02 c0       	rjmp	.+4      	; 0x28e4 <vfprintf+0x150>
    28e0:	69 2d       	mov	r22, r9
    28e2:	70 e0       	ldi	r23, 0x00	; 0
    28e4:	42 e0       	ldi	r20, 0x02	; 2
    28e6:	50 e0       	ldi	r21, 0x00	; 0
    28e8:	a4 0e       	add	r10, r20
    28ea:	b5 1e       	adc	r11, r21
    28ec:	c6 01       	movw	r24, r12
    28ee:	0e 94 da 15 	call	0x2bb4	; 0x2bb4 <strnlen>
    28f2:	8c 01       	movw	r16, r24
    28f4:	5f e7       	ldi	r21, 0x7F	; 127
    28f6:	f5 22       	and	r15, r21
    28f8:	14 c0       	rjmp	.+40     	; 0x2922 <vfprintf+0x18e>
    28fa:	f5 01       	movw	r30, r10
    28fc:	c0 80       	ld	r12, Z
    28fe:	d1 80       	ldd	r13, Z+1	; 0x01
    2900:	f6 fc       	sbrc	r15, 6
    2902:	03 c0       	rjmp	.+6      	; 0x290a <vfprintf+0x176>
    2904:	6f ef       	ldi	r22, 0xFF	; 255
    2906:	7f ef       	ldi	r23, 0xFF	; 255
    2908:	02 c0       	rjmp	.+4      	; 0x290e <vfprintf+0x17a>
    290a:	69 2d       	mov	r22, r9
    290c:	70 e0       	ldi	r23, 0x00	; 0
    290e:	42 e0       	ldi	r20, 0x02	; 2
    2910:	50 e0       	ldi	r21, 0x00	; 0
    2912:	a4 0e       	add	r10, r20
    2914:	b5 1e       	adc	r11, r21
    2916:	c6 01       	movw	r24, r12
    2918:	0e 94 cf 15 	call	0x2b9e	; 0x2b9e <strnlen_P>
    291c:	8c 01       	movw	r16, r24
    291e:	50 e8       	ldi	r21, 0x80	; 128
    2920:	f5 2a       	or	r15, r21
    2922:	f3 fe       	sbrs	r15, 3
    2924:	07 c0       	rjmp	.+14     	; 0x2934 <vfprintf+0x1a0>
    2926:	1a c0       	rjmp	.+52     	; 0x295c <vfprintf+0x1c8>
    2928:	80 e2       	ldi	r24, 0x20	; 32
    292a:	90 e0       	ldi	r25, 0x00	; 0
    292c:	b3 01       	movw	r22, r6
    292e:	0e 94 e5 15 	call	0x2bca	; 0x2bca <fputc>
    2932:	ea 94       	dec	r14
    2934:	8e 2d       	mov	r24, r14
    2936:	90 e0       	ldi	r25, 0x00	; 0
    2938:	08 17       	cp	r16, r24
    293a:	19 07       	cpc	r17, r25
    293c:	a8 f3       	brcs	.-22     	; 0x2928 <vfprintf+0x194>
    293e:	0e c0       	rjmp	.+28     	; 0x295c <vfprintf+0x1c8>
    2940:	f6 01       	movw	r30, r12
    2942:	f7 fc       	sbrc	r15, 7
    2944:	85 91       	lpm	r24, Z+
    2946:	f7 fe       	sbrs	r15, 7
    2948:	81 91       	ld	r24, Z+
    294a:	6f 01       	movw	r12, r30
    294c:	90 e0       	ldi	r25, 0x00	; 0
    294e:	b3 01       	movw	r22, r6
    2950:	0e 94 e5 15 	call	0x2bca	; 0x2bca <fputc>
    2954:	e1 10       	cpse	r14, r1
    2956:	ea 94       	dec	r14
    2958:	01 50       	subi	r16, 0x01	; 1
    295a:	10 40       	sbci	r17, 0x00	; 0
    295c:	01 15       	cp	r16, r1
    295e:	11 05       	cpc	r17, r1
    2960:	79 f7       	brne	.-34     	; 0x2940 <vfprintf+0x1ac>
    2962:	ea c0       	rjmp	.+468    	; 0x2b38 <vfprintf+0x3a4>
    2964:	94 36       	cpi	r25, 0x64	; 100
    2966:	11 f0       	breq	.+4      	; 0x296c <vfprintf+0x1d8>
    2968:	99 36       	cpi	r25, 0x69	; 105
    296a:	69 f5       	brne	.+90     	; 0x29c6 <vfprintf+0x232>
    296c:	f7 fe       	sbrs	r15, 7
    296e:	08 c0       	rjmp	.+16     	; 0x2980 <vfprintf+0x1ec>
    2970:	f5 01       	movw	r30, r10
    2972:	20 81       	ld	r18, Z
    2974:	31 81       	ldd	r19, Z+1	; 0x01
    2976:	42 81       	ldd	r20, Z+2	; 0x02
    2978:	53 81       	ldd	r21, Z+3	; 0x03
    297a:	84 e0       	ldi	r24, 0x04	; 4
    297c:	90 e0       	ldi	r25, 0x00	; 0
    297e:	0a c0       	rjmp	.+20     	; 0x2994 <vfprintf+0x200>
    2980:	f5 01       	movw	r30, r10
    2982:	80 81       	ld	r24, Z
    2984:	91 81       	ldd	r25, Z+1	; 0x01
    2986:	9c 01       	movw	r18, r24
    2988:	44 27       	eor	r20, r20
    298a:	37 fd       	sbrc	r19, 7
    298c:	40 95       	com	r20
    298e:	54 2f       	mov	r21, r20
    2990:	82 e0       	ldi	r24, 0x02	; 2
    2992:	90 e0       	ldi	r25, 0x00	; 0
    2994:	a8 0e       	add	r10, r24
    2996:	b9 1e       	adc	r11, r25
    2998:	9f e6       	ldi	r25, 0x6F	; 111
    299a:	f9 22       	and	r15, r25
    299c:	57 ff       	sbrs	r21, 7
    299e:	09 c0       	rjmp	.+18     	; 0x29b2 <vfprintf+0x21e>
    29a0:	50 95       	com	r21
    29a2:	40 95       	com	r20
    29a4:	30 95       	com	r19
    29a6:	21 95       	neg	r18
    29a8:	3f 4f       	sbci	r19, 0xFF	; 255
    29aa:	4f 4f       	sbci	r20, 0xFF	; 255
    29ac:	5f 4f       	sbci	r21, 0xFF	; 255
    29ae:	e0 e8       	ldi	r30, 0x80	; 128
    29b0:	fe 2a       	or	r15, r30
    29b2:	ca 01       	movw	r24, r20
    29b4:	b9 01       	movw	r22, r18
    29b6:	a1 01       	movw	r20, r2
    29b8:	2a e0       	ldi	r18, 0x0A	; 10
    29ba:	30 e0       	ldi	r19, 0x00	; 0
    29bc:	0e 94 11 16 	call	0x2c22	; 0x2c22 <__ultoa_invert>
    29c0:	d8 2e       	mov	r13, r24
    29c2:	d2 18       	sub	r13, r2
    29c4:	40 c0       	rjmp	.+128    	; 0x2a46 <vfprintf+0x2b2>
    29c6:	95 37       	cpi	r25, 0x75	; 117
    29c8:	29 f4       	brne	.+10     	; 0x29d4 <vfprintf+0x240>
    29ca:	1f 2d       	mov	r17, r15
    29cc:	1f 7e       	andi	r17, 0xEF	; 239
    29ce:	2a e0       	ldi	r18, 0x0A	; 10
    29d0:	30 e0       	ldi	r19, 0x00	; 0
    29d2:	1d c0       	rjmp	.+58     	; 0x2a0e <vfprintf+0x27a>
    29d4:	1f 2d       	mov	r17, r15
    29d6:	19 7f       	andi	r17, 0xF9	; 249
    29d8:	9f 36       	cpi	r25, 0x6F	; 111
    29da:	61 f0       	breq	.+24     	; 0x29f4 <vfprintf+0x260>
    29dc:	90 37       	cpi	r25, 0x70	; 112
    29de:	20 f4       	brcc	.+8      	; 0x29e8 <vfprintf+0x254>
    29e0:	98 35       	cpi	r25, 0x58	; 88
    29e2:	09 f0       	breq	.+2      	; 0x29e6 <vfprintf+0x252>
    29e4:	ac c0       	rjmp	.+344    	; 0x2b3e <vfprintf+0x3aa>
    29e6:	0f c0       	rjmp	.+30     	; 0x2a06 <vfprintf+0x272>
    29e8:	90 37       	cpi	r25, 0x70	; 112
    29ea:	39 f0       	breq	.+14     	; 0x29fa <vfprintf+0x266>
    29ec:	98 37       	cpi	r25, 0x78	; 120
    29ee:	09 f0       	breq	.+2      	; 0x29f2 <vfprintf+0x25e>
    29f0:	a6 c0       	rjmp	.+332    	; 0x2b3e <vfprintf+0x3aa>
    29f2:	04 c0       	rjmp	.+8      	; 0x29fc <vfprintf+0x268>
    29f4:	28 e0       	ldi	r18, 0x08	; 8
    29f6:	30 e0       	ldi	r19, 0x00	; 0
    29f8:	0a c0       	rjmp	.+20     	; 0x2a0e <vfprintf+0x27a>
    29fa:	10 61       	ori	r17, 0x10	; 16
    29fc:	14 fd       	sbrc	r17, 4
    29fe:	14 60       	ori	r17, 0x04	; 4
    2a00:	20 e1       	ldi	r18, 0x10	; 16
    2a02:	30 e0       	ldi	r19, 0x00	; 0
    2a04:	04 c0       	rjmp	.+8      	; 0x2a0e <vfprintf+0x27a>
    2a06:	14 fd       	sbrc	r17, 4
    2a08:	16 60       	ori	r17, 0x06	; 6
    2a0a:	20 e1       	ldi	r18, 0x10	; 16
    2a0c:	32 e0       	ldi	r19, 0x02	; 2
    2a0e:	17 ff       	sbrs	r17, 7
    2a10:	08 c0       	rjmp	.+16     	; 0x2a22 <vfprintf+0x28e>
    2a12:	f5 01       	movw	r30, r10
    2a14:	60 81       	ld	r22, Z
    2a16:	71 81       	ldd	r23, Z+1	; 0x01
    2a18:	82 81       	ldd	r24, Z+2	; 0x02
    2a1a:	93 81       	ldd	r25, Z+3	; 0x03
    2a1c:	44 e0       	ldi	r20, 0x04	; 4
    2a1e:	50 e0       	ldi	r21, 0x00	; 0
    2a20:	08 c0       	rjmp	.+16     	; 0x2a32 <vfprintf+0x29e>
    2a22:	f5 01       	movw	r30, r10
    2a24:	80 81       	ld	r24, Z
    2a26:	91 81       	ldd	r25, Z+1	; 0x01
    2a28:	bc 01       	movw	r22, r24
    2a2a:	80 e0       	ldi	r24, 0x00	; 0
    2a2c:	90 e0       	ldi	r25, 0x00	; 0
    2a2e:	42 e0       	ldi	r20, 0x02	; 2
    2a30:	50 e0       	ldi	r21, 0x00	; 0
    2a32:	a4 0e       	add	r10, r20
    2a34:	b5 1e       	adc	r11, r21
    2a36:	a1 01       	movw	r20, r2
    2a38:	0e 94 11 16 	call	0x2c22	; 0x2c22 <__ultoa_invert>
    2a3c:	d8 2e       	mov	r13, r24
    2a3e:	d2 18       	sub	r13, r2
    2a40:	8f e7       	ldi	r24, 0x7F	; 127
    2a42:	f8 2e       	mov	r15, r24
    2a44:	f1 22       	and	r15, r17
    2a46:	f6 fe       	sbrs	r15, 6
    2a48:	0b c0       	rjmp	.+22     	; 0x2a60 <vfprintf+0x2cc>
    2a4a:	5e ef       	ldi	r21, 0xFE	; 254
    2a4c:	f5 22       	and	r15, r21
    2a4e:	d9 14       	cp	r13, r9
    2a50:	38 f4       	brcc	.+14     	; 0x2a60 <vfprintf+0x2cc>
    2a52:	f4 fe       	sbrs	r15, 4
    2a54:	07 c0       	rjmp	.+14     	; 0x2a64 <vfprintf+0x2d0>
    2a56:	f2 fc       	sbrc	r15, 2
    2a58:	05 c0       	rjmp	.+10     	; 0x2a64 <vfprintf+0x2d0>
    2a5a:	8f ee       	ldi	r24, 0xEF	; 239
    2a5c:	f8 22       	and	r15, r24
    2a5e:	02 c0       	rjmp	.+4      	; 0x2a64 <vfprintf+0x2d0>
    2a60:	1d 2d       	mov	r17, r13
    2a62:	01 c0       	rjmp	.+2      	; 0x2a66 <vfprintf+0x2d2>
    2a64:	19 2d       	mov	r17, r9
    2a66:	f4 fe       	sbrs	r15, 4
    2a68:	0d c0       	rjmp	.+26     	; 0x2a84 <vfprintf+0x2f0>
    2a6a:	fe 01       	movw	r30, r28
    2a6c:	ed 0d       	add	r30, r13
    2a6e:	f1 1d       	adc	r31, r1
    2a70:	80 81       	ld	r24, Z
    2a72:	80 33       	cpi	r24, 0x30	; 48
    2a74:	19 f4       	brne	.+6      	; 0x2a7c <vfprintf+0x2e8>
    2a76:	99 ee       	ldi	r25, 0xE9	; 233
    2a78:	f9 22       	and	r15, r25
    2a7a:	08 c0       	rjmp	.+16     	; 0x2a8c <vfprintf+0x2f8>
    2a7c:	1f 5f       	subi	r17, 0xFF	; 255
    2a7e:	f2 fe       	sbrs	r15, 2
    2a80:	05 c0       	rjmp	.+10     	; 0x2a8c <vfprintf+0x2f8>
    2a82:	03 c0       	rjmp	.+6      	; 0x2a8a <vfprintf+0x2f6>
    2a84:	8f 2d       	mov	r24, r15
    2a86:	86 78       	andi	r24, 0x86	; 134
    2a88:	09 f0       	breq	.+2      	; 0x2a8c <vfprintf+0x2f8>
    2a8a:	1f 5f       	subi	r17, 0xFF	; 255
    2a8c:	0f 2d       	mov	r16, r15
    2a8e:	f3 fc       	sbrc	r15, 3
    2a90:	14 c0       	rjmp	.+40     	; 0x2aba <vfprintf+0x326>
    2a92:	f0 fe       	sbrs	r15, 0
    2a94:	0f c0       	rjmp	.+30     	; 0x2ab4 <vfprintf+0x320>
    2a96:	1e 15       	cp	r17, r14
    2a98:	10 f0       	brcs	.+4      	; 0x2a9e <vfprintf+0x30a>
    2a9a:	9d 2c       	mov	r9, r13
    2a9c:	0b c0       	rjmp	.+22     	; 0x2ab4 <vfprintf+0x320>
    2a9e:	9d 2c       	mov	r9, r13
    2aa0:	9e 0c       	add	r9, r14
    2aa2:	91 1a       	sub	r9, r17
    2aa4:	1e 2d       	mov	r17, r14
    2aa6:	06 c0       	rjmp	.+12     	; 0x2ab4 <vfprintf+0x320>
    2aa8:	80 e2       	ldi	r24, 0x20	; 32
    2aaa:	90 e0       	ldi	r25, 0x00	; 0
    2aac:	b3 01       	movw	r22, r6
    2aae:	0e 94 e5 15 	call	0x2bca	; 0x2bca <fputc>
    2ab2:	1f 5f       	subi	r17, 0xFF	; 255
    2ab4:	1e 15       	cp	r17, r14
    2ab6:	c0 f3       	brcs	.-16     	; 0x2aa8 <vfprintf+0x314>
    2ab8:	04 c0       	rjmp	.+8      	; 0x2ac2 <vfprintf+0x32e>
    2aba:	1e 15       	cp	r17, r14
    2abc:	10 f4       	brcc	.+4      	; 0x2ac2 <vfprintf+0x32e>
    2abe:	e1 1a       	sub	r14, r17
    2ac0:	01 c0       	rjmp	.+2      	; 0x2ac4 <vfprintf+0x330>
    2ac2:	ee 24       	eor	r14, r14
    2ac4:	04 ff       	sbrs	r16, 4
    2ac6:	0f c0       	rjmp	.+30     	; 0x2ae6 <vfprintf+0x352>
    2ac8:	80 e3       	ldi	r24, 0x30	; 48
    2aca:	90 e0       	ldi	r25, 0x00	; 0
    2acc:	b3 01       	movw	r22, r6
    2ace:	0e 94 e5 15 	call	0x2bca	; 0x2bca <fputc>
    2ad2:	02 ff       	sbrs	r16, 2
    2ad4:	1d c0       	rjmp	.+58     	; 0x2b10 <vfprintf+0x37c>
    2ad6:	01 fd       	sbrc	r16, 1
    2ad8:	03 c0       	rjmp	.+6      	; 0x2ae0 <vfprintf+0x34c>
    2ada:	88 e7       	ldi	r24, 0x78	; 120
    2adc:	90 e0       	ldi	r25, 0x00	; 0
    2ade:	0e c0       	rjmp	.+28     	; 0x2afc <vfprintf+0x368>
    2ae0:	88 e5       	ldi	r24, 0x58	; 88
    2ae2:	90 e0       	ldi	r25, 0x00	; 0
    2ae4:	0b c0       	rjmp	.+22     	; 0x2afc <vfprintf+0x368>
    2ae6:	80 2f       	mov	r24, r16
    2ae8:	86 78       	andi	r24, 0x86	; 134
    2aea:	91 f0       	breq	.+36     	; 0x2b10 <vfprintf+0x37c>
    2aec:	01 ff       	sbrs	r16, 1
    2aee:	02 c0       	rjmp	.+4      	; 0x2af4 <vfprintf+0x360>
    2af0:	8b e2       	ldi	r24, 0x2B	; 43
    2af2:	01 c0       	rjmp	.+2      	; 0x2af6 <vfprintf+0x362>
    2af4:	80 e2       	ldi	r24, 0x20	; 32
    2af6:	f7 fc       	sbrc	r15, 7
    2af8:	8d e2       	ldi	r24, 0x2D	; 45
    2afa:	90 e0       	ldi	r25, 0x00	; 0
    2afc:	b3 01       	movw	r22, r6
    2afe:	0e 94 e5 15 	call	0x2bca	; 0x2bca <fputc>
    2b02:	06 c0       	rjmp	.+12     	; 0x2b10 <vfprintf+0x37c>
    2b04:	80 e3       	ldi	r24, 0x30	; 48
    2b06:	90 e0       	ldi	r25, 0x00	; 0
    2b08:	b3 01       	movw	r22, r6
    2b0a:	0e 94 e5 15 	call	0x2bca	; 0x2bca <fputc>
    2b0e:	9a 94       	dec	r9
    2b10:	d9 14       	cp	r13, r9
    2b12:	c0 f3       	brcs	.-16     	; 0x2b04 <vfprintf+0x370>
    2b14:	da 94       	dec	r13
    2b16:	f1 01       	movw	r30, r2
    2b18:	ed 0d       	add	r30, r13
    2b1a:	f1 1d       	adc	r31, r1
    2b1c:	80 81       	ld	r24, Z
    2b1e:	90 e0       	ldi	r25, 0x00	; 0
    2b20:	b3 01       	movw	r22, r6
    2b22:	0e 94 e5 15 	call	0x2bca	; 0x2bca <fputc>
    2b26:	dd 20       	and	r13, r13
    2b28:	a9 f7       	brne	.-22     	; 0x2b14 <vfprintf+0x380>
    2b2a:	06 c0       	rjmp	.+12     	; 0x2b38 <vfprintf+0x3a4>
    2b2c:	80 e2       	ldi	r24, 0x20	; 32
    2b2e:	90 e0       	ldi	r25, 0x00	; 0
    2b30:	b3 01       	movw	r22, r6
    2b32:	0e 94 e5 15 	call	0x2bca	; 0x2bca <fputc>
    2b36:	ea 94       	dec	r14
    2b38:	ee 20       	and	r14, r14
    2b3a:	c1 f7       	brne	.-16     	; 0x2b2c <vfprintf+0x398>
    2b3c:	43 ce       	rjmp	.-890    	; 0x27c4 <vfprintf+0x30>
    2b3e:	f3 01       	movw	r30, r6
    2b40:	66 81       	ldd	r22, Z+6	; 0x06
    2b42:	77 81       	ldd	r23, Z+7	; 0x07
    2b44:	cb 01       	movw	r24, r22
    2b46:	2b 96       	adiw	r28, 0x0b	; 11
    2b48:	e2 e1       	ldi	r30, 0x12	; 18
    2b4a:	0c 94 6d 13 	jmp	0x26da	; 0x26da <__epilogue_restores__>

00002b4e <__eerd_block_m328p>:
    2b4e:	dc 01       	movw	r26, r24
    2b50:	cb 01       	movw	r24, r22

00002b52 <__eerd_blraw_m328p>:
    2b52:	fc 01       	movw	r30, r24
    2b54:	f9 99       	sbic	0x1f, 1	; 31
    2b56:	fe cf       	rjmp	.-4      	; 0x2b54 <__eerd_blraw_m328p+0x2>
    2b58:	06 c0       	rjmp	.+12     	; 0x2b66 <__eerd_blraw_m328p+0x14>
    2b5a:	f2 bd       	out	0x22, r31	; 34
    2b5c:	e1 bd       	out	0x21, r30	; 33
    2b5e:	f8 9a       	sbi	0x1f, 0	; 31
    2b60:	31 96       	adiw	r30, 0x01	; 1
    2b62:	00 b4       	in	r0, 0x20	; 32
    2b64:	0d 92       	st	X+, r0
    2b66:	41 50       	subi	r20, 0x01	; 1
    2b68:	50 40       	sbci	r21, 0x00	; 0
    2b6a:	b8 f7       	brcc	.-18     	; 0x2b5a <__eerd_blraw_m328p+0x8>
    2b6c:	08 95       	ret

00002b6e <__eewr_block_m328p>:
    2b6e:	dc 01       	movw	r26, r24
    2b70:	cb 01       	movw	r24, r22
    2b72:	03 c0       	rjmp	.+6      	; 0x2b7a <__eewr_block_m328p+0xc>
    2b74:	2d 91       	ld	r18, X+
    2b76:	0e 94 c2 15 	call	0x2b84	; 0x2b84 <__eewr_r18_m328p>
    2b7a:	41 50       	subi	r20, 0x01	; 1
    2b7c:	50 40       	sbci	r21, 0x00	; 0
    2b7e:	d0 f7       	brcc	.-12     	; 0x2b74 <__eewr_block_m328p+0x6>
    2b80:	08 95       	ret

00002b82 <__eewr_byte_m328p>:
    2b82:	26 2f       	mov	r18, r22

00002b84 <__eewr_r18_m328p>:
    2b84:	f9 99       	sbic	0x1f, 1	; 31
    2b86:	fe cf       	rjmp	.-4      	; 0x2b84 <__eewr_r18_m328p>
    2b88:	1f ba       	out	0x1f, r1	; 31
    2b8a:	92 bd       	out	0x22, r25	; 34
    2b8c:	81 bd       	out	0x21, r24	; 33
    2b8e:	20 bd       	out	0x20, r18	; 32
    2b90:	0f b6       	in	r0, 0x3f	; 63
    2b92:	f8 94       	cli
    2b94:	fa 9a       	sbi	0x1f, 2	; 31
    2b96:	f9 9a       	sbi	0x1f, 1	; 31
    2b98:	0f be       	out	0x3f, r0	; 63
    2b9a:	01 96       	adiw	r24, 0x01	; 1
    2b9c:	08 95       	ret

00002b9e <strnlen_P>:
    2b9e:	fc 01       	movw	r30, r24
    2ba0:	05 90       	lpm	r0, Z+
    2ba2:	61 50       	subi	r22, 0x01	; 1
    2ba4:	70 40       	sbci	r23, 0x00	; 0
    2ba6:	01 10       	cpse	r0, r1
    2ba8:	d8 f7       	brcc	.-10     	; 0x2ba0 <strnlen_P+0x2>
    2baa:	80 95       	com	r24
    2bac:	90 95       	com	r25
    2bae:	8e 0f       	add	r24, r30
    2bb0:	9f 1f       	adc	r25, r31
    2bb2:	08 95       	ret

00002bb4 <strnlen>:
    2bb4:	fc 01       	movw	r30, r24
    2bb6:	61 50       	subi	r22, 0x01	; 1
    2bb8:	70 40       	sbci	r23, 0x00	; 0
    2bba:	01 90       	ld	r0, Z+
    2bbc:	01 10       	cpse	r0, r1
    2bbe:	d8 f7       	brcc	.-10     	; 0x2bb6 <strnlen+0x2>
    2bc0:	80 95       	com	r24
    2bc2:	90 95       	com	r25
    2bc4:	8e 0f       	add	r24, r30
    2bc6:	9f 1f       	adc	r25, r31
    2bc8:	08 95       	ret

00002bca <fputc>:
    2bca:	0f 93       	push	r16
    2bcc:	1f 93       	push	r17
    2bce:	cf 93       	push	r28
    2bd0:	df 93       	push	r29
    2bd2:	8c 01       	movw	r16, r24
    2bd4:	eb 01       	movw	r28, r22
    2bd6:	8b 81       	ldd	r24, Y+3	; 0x03
    2bd8:	81 ff       	sbrs	r24, 1
    2bda:	1b c0       	rjmp	.+54     	; 0x2c12 <fputc+0x48>
    2bdc:	82 ff       	sbrs	r24, 2
    2bde:	0d c0       	rjmp	.+26     	; 0x2bfa <fputc+0x30>
    2be0:	2e 81       	ldd	r18, Y+6	; 0x06
    2be2:	3f 81       	ldd	r19, Y+7	; 0x07
    2be4:	8c 81       	ldd	r24, Y+4	; 0x04
    2be6:	9d 81       	ldd	r25, Y+5	; 0x05
    2be8:	28 17       	cp	r18, r24
    2bea:	39 07       	cpc	r19, r25
    2bec:	64 f4       	brge	.+24     	; 0x2c06 <fputc+0x3c>
    2bee:	e8 81       	ld	r30, Y
    2bf0:	f9 81       	ldd	r31, Y+1	; 0x01
    2bf2:	01 93       	st	Z+, r16
    2bf4:	f9 83       	std	Y+1, r31	; 0x01
    2bf6:	e8 83       	st	Y, r30
    2bf8:	06 c0       	rjmp	.+12     	; 0x2c06 <fputc+0x3c>
    2bfa:	e8 85       	ldd	r30, Y+8	; 0x08
    2bfc:	f9 85       	ldd	r31, Y+9	; 0x09
    2bfe:	80 2f       	mov	r24, r16
    2c00:	09 95       	icall
    2c02:	89 2b       	or	r24, r25
    2c04:	31 f4       	brne	.+12     	; 0x2c12 <fputc+0x48>
    2c06:	8e 81       	ldd	r24, Y+6	; 0x06
    2c08:	9f 81       	ldd	r25, Y+7	; 0x07
    2c0a:	01 96       	adiw	r24, 0x01	; 1
    2c0c:	9f 83       	std	Y+7, r25	; 0x07
    2c0e:	8e 83       	std	Y+6, r24	; 0x06
    2c10:	02 c0       	rjmp	.+4      	; 0x2c16 <fputc+0x4c>
    2c12:	0f ef       	ldi	r16, 0xFF	; 255
    2c14:	1f ef       	ldi	r17, 0xFF	; 255
    2c16:	c8 01       	movw	r24, r16
    2c18:	df 91       	pop	r29
    2c1a:	cf 91       	pop	r28
    2c1c:	1f 91       	pop	r17
    2c1e:	0f 91       	pop	r16
    2c20:	08 95       	ret

00002c22 <__ultoa_invert>:
    2c22:	fa 01       	movw	r30, r20
    2c24:	aa 27       	eor	r26, r26
    2c26:	28 30       	cpi	r18, 0x08	; 8
    2c28:	51 f1       	breq	.+84     	; 0x2c7e <__ultoa_invert+0x5c>
    2c2a:	20 31       	cpi	r18, 0x10	; 16
    2c2c:	81 f1       	breq	.+96     	; 0x2c8e <__ultoa_invert+0x6c>
    2c2e:	e8 94       	clt
    2c30:	6f 93       	push	r22
    2c32:	6e 7f       	andi	r22, 0xFE	; 254
    2c34:	6e 5f       	subi	r22, 0xFE	; 254
    2c36:	7f 4f       	sbci	r23, 0xFF	; 255
    2c38:	8f 4f       	sbci	r24, 0xFF	; 255
    2c3a:	9f 4f       	sbci	r25, 0xFF	; 255
    2c3c:	af 4f       	sbci	r26, 0xFF	; 255
    2c3e:	b1 e0       	ldi	r27, 0x01	; 1
    2c40:	3e d0       	rcall	.+124    	; 0x2cbe <__ultoa_invert+0x9c>
    2c42:	b4 e0       	ldi	r27, 0x04	; 4
    2c44:	3c d0       	rcall	.+120    	; 0x2cbe <__ultoa_invert+0x9c>
    2c46:	67 0f       	add	r22, r23
    2c48:	78 1f       	adc	r23, r24
    2c4a:	89 1f       	adc	r24, r25
    2c4c:	9a 1f       	adc	r25, r26
    2c4e:	a1 1d       	adc	r26, r1
    2c50:	68 0f       	add	r22, r24
    2c52:	79 1f       	adc	r23, r25
    2c54:	8a 1f       	adc	r24, r26
    2c56:	91 1d       	adc	r25, r1
    2c58:	a1 1d       	adc	r26, r1
    2c5a:	6a 0f       	add	r22, r26
    2c5c:	71 1d       	adc	r23, r1
    2c5e:	81 1d       	adc	r24, r1
    2c60:	91 1d       	adc	r25, r1
    2c62:	a1 1d       	adc	r26, r1
    2c64:	20 d0       	rcall	.+64     	; 0x2ca6 <__ultoa_invert+0x84>
    2c66:	09 f4       	brne	.+2      	; 0x2c6a <__ultoa_invert+0x48>
    2c68:	68 94       	set
    2c6a:	3f 91       	pop	r19
    2c6c:	2a e0       	ldi	r18, 0x0A	; 10
    2c6e:	26 9f       	mul	r18, r22
    2c70:	11 24       	eor	r1, r1
    2c72:	30 19       	sub	r19, r0
    2c74:	30 5d       	subi	r19, 0xD0	; 208
    2c76:	31 93       	st	Z+, r19
    2c78:	de f6       	brtc	.-74     	; 0x2c30 <__ultoa_invert+0xe>
    2c7a:	cf 01       	movw	r24, r30
    2c7c:	08 95       	ret
    2c7e:	46 2f       	mov	r20, r22
    2c80:	47 70       	andi	r20, 0x07	; 7
    2c82:	40 5d       	subi	r20, 0xD0	; 208
    2c84:	41 93       	st	Z+, r20
    2c86:	b3 e0       	ldi	r27, 0x03	; 3
    2c88:	0f d0       	rcall	.+30     	; 0x2ca8 <__ultoa_invert+0x86>
    2c8a:	c9 f7       	brne	.-14     	; 0x2c7e <__ultoa_invert+0x5c>
    2c8c:	f6 cf       	rjmp	.-20     	; 0x2c7a <__ultoa_invert+0x58>
    2c8e:	46 2f       	mov	r20, r22
    2c90:	4f 70       	andi	r20, 0x0F	; 15
    2c92:	40 5d       	subi	r20, 0xD0	; 208
    2c94:	4a 33       	cpi	r20, 0x3A	; 58
    2c96:	18 f0       	brcs	.+6      	; 0x2c9e <__ultoa_invert+0x7c>
    2c98:	49 5d       	subi	r20, 0xD9	; 217
    2c9a:	31 fd       	sbrc	r19, 1
    2c9c:	40 52       	subi	r20, 0x20	; 32
    2c9e:	41 93       	st	Z+, r20
    2ca0:	02 d0       	rcall	.+4      	; 0x2ca6 <__ultoa_invert+0x84>
    2ca2:	a9 f7       	brne	.-22     	; 0x2c8e <__ultoa_invert+0x6c>
    2ca4:	ea cf       	rjmp	.-44     	; 0x2c7a <__ultoa_invert+0x58>
    2ca6:	b4 e0       	ldi	r27, 0x04	; 4
    2ca8:	a6 95       	lsr	r26
    2caa:	97 95       	ror	r25
    2cac:	87 95       	ror	r24
    2cae:	77 95       	ror	r23
    2cb0:	67 95       	ror	r22
    2cb2:	ba 95       	dec	r27
    2cb4:	c9 f7       	brne	.-14     	; 0x2ca8 <__ultoa_invert+0x86>
    2cb6:	00 97       	sbiw	r24, 0x00	; 0
    2cb8:	61 05       	cpc	r22, r1
    2cba:	71 05       	cpc	r23, r1
    2cbc:	08 95       	ret
    2cbe:	9b 01       	movw	r18, r22
    2cc0:	ac 01       	movw	r20, r24
    2cc2:	0a 2e       	mov	r0, r26
    2cc4:	06 94       	lsr	r0
    2cc6:	57 95       	ror	r21
    2cc8:	47 95       	ror	r20
    2cca:	37 95       	ror	r19
    2ccc:	27 95       	ror	r18
    2cce:	ba 95       	dec	r27
    2cd0:	c9 f7       	brne	.-14     	; 0x2cc4 <__ultoa_invert+0xa2>
    2cd2:	62 0f       	add	r22, r18
    2cd4:	73 1f       	adc	r23, r19
    2cd6:	84 1f       	adc	r24, r20
    2cd8:	95 1f       	adc	r25, r21
    2cda:	a0 1d       	adc	r26, r0
    2cdc:	08 95       	ret

00002cde <_exit>:
    2cde:	f8 94       	cli

00002ce0 <__stop_program>:
    2ce0:	ff cf       	rjmp	.-2      	; 0x2ce0 <__stop_program>
