
MDT_StandAlone_100.elf:     file format elf32-avr

Sections:
Idx Name          Size      VMA       LMA       File off  Algn
  0 .data         00000004  00800100  0000226a  000022fe  2**0
                  CONTENTS, ALLOC, LOAD, DATA
  1 .text         0000226a  00000000  00000000  00000094  2**1
                  CONTENTS, ALLOC, LOAD, READONLY, CODE
  2 .bss          0000071b  00800104  00800104  00002302  2**0
                  ALLOC
  3 .stab         00004c80  00000000  00000000  00002304  2**2
                  CONTENTS, READONLY, DEBUGGING
  4 .stabstr      000025db  00000000  00000000  00006f84  2**0
                  CONTENTS, READONLY, DEBUGGING

Disassembly of section .text:

00000000 <__vectors>:
       0:	0c 94 4e 00 	jmp	0x9c	; 0x9c <__ctors_end>
       4:	0c 94 6d 00 	jmp	0xda	; 0xda <__bad_interrupt>
       8:	0c 94 6d 00 	jmp	0xda	; 0xda <__bad_interrupt>
       c:	0c 94 6d 00 	jmp	0xda	; 0xda <__bad_interrupt>
      10:	0c 94 6d 00 	jmp	0xda	; 0xda <__bad_interrupt>
      14:	0c 94 6d 00 	jmp	0xda	; 0xda <__bad_interrupt>
      18:	0c 94 6d 00 	jmp	0xda	; 0xda <__bad_interrupt>
      1c:	0c 94 6d 00 	jmp	0xda	; 0xda <__bad_interrupt>
      20:	0c 94 6d 00 	jmp	0xda	; 0xda <__bad_interrupt>
      24:	0c 94 6d 00 	jmp	0xda	; 0xda <__bad_interrupt>
      28:	0c 94 6d 00 	jmp	0xda	; 0xda <__bad_interrupt>
      2c:	0c 94 6d 00 	jmp	0xda	; 0xda <__bad_interrupt>
      30:	0c 94 6d 00 	jmp	0xda	; 0xda <__bad_interrupt>
      34:	0c 94 6d 00 	jmp	0xda	; 0xda <__bad_interrupt>
      38:	0c 94 6d 00 	jmp	0xda	; 0xda <__bad_interrupt>
      3c:	0c 94 6d 00 	jmp	0xda	; 0xda <__bad_interrupt>
      40:	0c 94 6d 00 	jmp	0xda	; 0xda <__bad_interrupt>
      44:	0c 94 6d 00 	jmp	0xda	; 0xda <__bad_interrupt>
      48:	0c 94 8a 09 	jmp	0x1314	; 0x1314 <__vector_18>
      4c:	0c 94 b4 09 	jmp	0x1368	; 0x1368 <__vector_19>
      50:	0c 94 e1 09 	jmp	0x13c2	; 0x13c2 <__vector_20>
      54:	0c 94 6d 00 	jmp	0xda	; 0xda <__bad_interrupt>
      58:	0c 94 6d 00 	jmp	0xda	; 0xda <__bad_interrupt>
      5c:	0c 94 6d 00 	jmp	0xda	; 0xda <__bad_interrupt>
      60:	0c 94 6d 00 	jmp	0xda	; 0xda <__bad_interrupt>
      64:	0c 94 6d 00 	jmp	0xda	; 0xda <__bad_interrupt>
      68:	0c 94 35 09 	jmp	0x126a	; 0x126a <__vector_26>
      6c:	0c 94 6d 00 	jmp	0xda	; 0xda <__bad_interrupt>
      70:	0c 94 6d 00 	jmp	0xda	; 0xda <__bad_interrupt>
      74:	0c 94 6d 00 	jmp	0xda	; 0xda <__bad_interrupt>
      78:	0c 94 6d 00 	jmp	0xda	; 0xda <__bad_interrupt>
      7c:	0c 94 6d 00 	jmp	0xda	; 0xda <__bad_interrupt>
      80:	0c 94 4c 02 	jmp	0x498	; 0x498 <__vector_32>
      84:	0c 94 6d 00 	jmp	0xda	; 0xda <__bad_interrupt>
      88:	0c 94 6d 00 	jmp	0xda	; 0xda <__bad_interrupt>

0000008c <__c.1971>:
      8c:	0a 25 64 3a 20 25 30 32 58 2d 25 30 32 58 00 00     .%d: %02X-%02X..

0000009c <__ctors_end>:
      9c:	11 24       	eor	r1, r1
      9e:	1f be       	out	0x3f, r1	; 63
      a0:	cf ef       	ldi	r28, 0xFF	; 255
      a2:	d0 e1       	ldi	r29, 0x10	; 16
      a4:	de bf       	out	0x3e, r29	; 62
      a6:	cd bf       	out	0x3d, r28	; 61

000000a8 <__do_copy_data>:
      a8:	11 e0       	ldi	r17, 0x01	; 1
      aa:	a0 e0       	ldi	r26, 0x00	; 0
      ac:	b1 e0       	ldi	r27, 0x01	; 1
      ae:	ea e6       	ldi	r30, 0x6A	; 106
      b0:	f2 e2       	ldi	r31, 0x22	; 34
      b2:	00 e0       	ldi	r16, 0x00	; 0
      b4:	0b bf       	out	0x3b, r16	; 59
      b6:	02 c0       	rjmp	.+4      	; 0xbc <__do_copy_data+0x14>
      b8:	07 90       	elpm	r0, Z+
      ba:	0d 92       	st	X+, r0
      bc:	a4 30       	cpi	r26, 0x04	; 4
      be:	b1 07       	cpc	r27, r17
      c0:	d9 f7       	brne	.-10     	; 0xb8 <__do_copy_data+0x10>

000000c2 <__do_clear_bss>:
      c2:	18 e0       	ldi	r17, 0x08	; 8
      c4:	a4 e0       	ldi	r26, 0x04	; 4
      c6:	b1 e0       	ldi	r27, 0x01	; 1
      c8:	01 c0       	rjmp	.+2      	; 0xcc <.do_clear_bss_start>

000000ca <.do_clear_bss_loop>:
      ca:	1d 92       	st	X+, r1

000000cc <.do_clear_bss_start>:
      cc:	af 31       	cpi	r26, 0x1F	; 31
      ce:	b1 07       	cpc	r27, r17
      d0:	e1 f7       	brne	.-8      	; 0xca <.do_clear_bss_loop>
      d2:	0e 94 70 04 	call	0x8e0	; 0x8e0 <main>
      d6:	0c 94 33 11 	jmp	0x2266	; 0x2266 <_exit>

000000da <__bad_interrupt>:
      da:	0c 94 00 00 	jmp	0	; 0x0 <__vectors>

000000de <initDeviceTable>:
// ---------------------------------------------------------------------------------------------- //
// ------------------ Initialize Mapping Table  ------------------------------------------------------- //
// ---------------------------------------------------------------------------------------------- //
void initDeviceTable() {
	uint8 i = 0;
	deviceInfoTable.size = 0;
      de:	10 92 6d 02 	sts	0x026D, r1
}
      e2:	08 95       	ret

000000e4 <findNodeById>:

// ---------------------------------------------------------------------------------------------- //
// ------------------ Find Node Mapping Table  ------------------------------------------------------ //
// ---------------------------------------------------------------------------------------------- //
device_Info *findNodeById(uint16 node_Id) {
      e4:	ac 01       	movw	r20, r24
	uint8 i = 0;
	for (i = 0; i < deviceInfoTable.size; i++) {
      e6:	30 91 6d 02 	lds	r19, 0x026D
      ea:	e1 e3       	ldi	r30, 0x31	; 49
      ec:	f1 e0       	ldi	r31, 0x01	; 1
      ee:	20 e0       	ldi	r18, 0x00	; 0
      f0:	10 c0       	rjmp	.+32     	; 0x112 <findNodeById+0x2e>
		if (deviceInfoTable.deviceInfo[i].ieeeId == node_Id)
      f2:	80 81       	ld	r24, Z
      f4:	91 81       	ldd	r25, Z+1	; 0x01
      f6:	38 96       	adiw	r30, 0x08	; 8
      f8:	84 17       	cp	r24, r20
      fa:	95 07       	cpc	r25, r21
      fc:	49 f4       	brne	.+18     	; 0x110 <findNodeById+0x2c>
			return &(deviceInfoTable.deviceInfo[i]);
      fe:	30 e0       	ldi	r19, 0x00	; 0
     100:	83 e0       	ldi	r24, 0x03	; 3
     102:	22 0f       	add	r18, r18
     104:	33 1f       	adc	r19, r19
     106:	8a 95       	dec	r24
     108:	e1 f7       	brne	.-8      	; 0x102 <findNodeById+0x1e>
     10a:	23 5d       	subi	r18, 0xD3	; 211
     10c:	3e 4f       	sbci	r19, 0xFE	; 254
     10e:	05 c0       	rjmp	.+10     	; 0x11a <findNodeById+0x36>
// ---------------------------------------------------------------------------------------------- //
// ------------------ Find Node Mapping Table  ------------------------------------------------------ //
// ---------------------------------------------------------------------------------------------- //
device_Info *findNodeById(uint16 node_Id) {
	uint8 i = 0;
	for (i = 0; i < deviceInfoTable.size; i++) {
     110:	2f 5f       	subi	r18, 0xFF	; 255
     112:	23 17       	cp	r18, r19
     114:	70 f3       	brcs	.-36     	; 0xf2 <findNodeById+0xe>
     116:	20 e0       	ldi	r18, 0x00	; 0
     118:	30 e0       	ldi	r19, 0x00	; 0
		if (deviceInfoTable.deviceInfo[i].ieeeId == node_Id)
			return &(deviceInfoTable.deviceInfo[i]);
	}
	return NULL;
}
     11a:	c9 01       	movw	r24, r18
     11c:	08 95       	ret

0000011e <isContainNodeOfId>:

int isContainNodeOfId(uint16 Ieee_Addr) {
     11e:	ac 01       	movw	r20, r24
	uint8 i = 0;
	for (i = 0; i < deviceInfoTable.size; i++)
     120:	30 91 6d 02 	lds	r19, 0x026D
     124:	e1 e3       	ldi	r30, 0x31	; 49
     126:	f1 e0       	ldi	r31, 0x01	; 1
     128:	20 e0       	ldi	r18, 0x00	; 0
     12a:	0a c0       	rjmp	.+20     	; 0x140 <isContainNodeOfId+0x22>
		if (deviceInfoTable.deviceInfo[i].ieeeId == Ieee_Addr)
     12c:	80 81       	ld	r24, Z
     12e:	91 81       	ldd	r25, Z+1	; 0x01
     130:	38 96       	adiw	r30, 0x08	; 8
     132:	84 17       	cp	r24, r20
     134:	95 07       	cpc	r25, r21
     136:	19 f4       	brne	.+6      	; 0x13e <isContainNodeOfId+0x20>
     138:	21 e0       	ldi	r18, 0x01	; 1
     13a:	30 e0       	ldi	r19, 0x00	; 0
     13c:	05 c0       	rjmp	.+10     	; 0x148 <isContainNodeOfId+0x2a>
	return NULL;
}

int isContainNodeOfId(uint16 Ieee_Addr) {
	uint8 i = 0;
	for (i = 0; i < deviceInfoTable.size; i++)
     13e:	2f 5f       	subi	r18, 0xFF	; 255
     140:	23 17       	cp	r18, r19
     142:	a0 f3       	brcs	.-24     	; 0x12c <isContainNodeOfId+0xe>
     144:	20 e0       	ldi	r18, 0x00	; 0
     146:	30 e0       	ldi	r19, 0x00	; 0
		if (deviceInfoTable.deviceInfo[i].ieeeId == Ieee_Addr)
			return 1;
	return 0;
}
     148:	c9 01       	movw	r24, r18
     14a:	08 95       	ret

0000014c <isContainNode>:

int isContainNode(uint16 node_Id, uint16 nwkAddr) {
     14c:	ac 01       	movw	r20, r24
	uint8 i = 0;
	for (i = 0; i < deviceInfoTable.size; i++)
     14e:	30 91 6d 02 	lds	r19, 0x026D
     152:	ed e2       	ldi	r30, 0x2D	; 45
     154:	f1 e0       	ldi	r31, 0x01	; 1
     156:	20 e0       	ldi	r18, 0x00	; 0
     158:	0f c0       	rjmp	.+30     	; 0x178 <isContainNode+0x2c>
		if (deviceInfoTable.deviceInfo[i].nwkAddr == nwkAddr
     15a:	80 81       	ld	r24, Z
     15c:	91 81       	ldd	r25, Z+1	; 0x01
     15e:	86 17       	cp	r24, r22
     160:	97 07       	cpc	r25, r23
     162:	41 f4       	brne	.+16     	; 0x174 <isContainNode+0x28>
     164:	84 81       	ldd	r24, Z+4	; 0x04
     166:	95 81       	ldd	r25, Z+5	; 0x05
     168:	84 17       	cp	r24, r20
     16a:	95 07       	cpc	r25, r21
     16c:	19 f4       	brne	.+6      	; 0x174 <isContainNode+0x28>
     16e:	21 e0       	ldi	r18, 0x01	; 1
     170:	30 e0       	ldi	r19, 0x00	; 0
     172:	06 c0       	rjmp	.+12     	; 0x180 <isContainNode+0x34>
	return 0;
}

int isContainNode(uint16 node_Id, uint16 nwkAddr) {
	uint8 i = 0;
	for (i = 0; i < deviceInfoTable.size; i++)
     174:	2f 5f       	subi	r18, 0xFF	; 255
     176:	38 96       	adiw	r30, 0x08	; 8
     178:	23 17       	cp	r18, r19
     17a:	78 f3       	brcs	.-34     	; 0x15a <isContainNode+0xe>
     17c:	20 e0       	ldi	r18, 0x00	; 0
     17e:	30 e0       	ldi	r19, 0x00	; 0
		if (deviceInfoTable.deviceInfo[i].nwkAddr == nwkAddr
				&& deviceInfoTable.deviceInfo[i].ieeeId == node_Id)
			return 1;

	return 0;
}
     180:	c9 01       	movw	r24, r18
     182:	08 95       	ret

00000184 <isContainNodeOfNwkAddr>:

int isContainNodeOfNwkAddr(uint16 nwk_Addr) {
     184:	ac 01       	movw	r20, r24
	uint8 i = 0;
	for (i = 0; i < deviceInfoTable.size; i++)
     186:	30 91 6d 02 	lds	r19, 0x026D
     18a:	ed e2       	ldi	r30, 0x2D	; 45
     18c:	f1 e0       	ldi	r31, 0x01	; 1
     18e:	20 e0       	ldi	r18, 0x00	; 0
     190:	0a c0       	rjmp	.+20     	; 0x1a6 <isContainNodeOfNwkAddr+0x22>
		if (deviceInfoTable.deviceInfo[i].nwkAddr == nwk_Addr)
     192:	80 81       	ld	r24, Z
     194:	91 81       	ldd	r25, Z+1	; 0x01
     196:	38 96       	adiw	r30, 0x08	; 8
     198:	84 17       	cp	r24, r20
     19a:	95 07       	cpc	r25, r21
     19c:	19 f4       	brne	.+6      	; 0x1a4 <isContainNodeOfNwkAddr+0x20>
     19e:	21 e0       	ldi	r18, 0x01	; 1
     1a0:	30 e0       	ldi	r19, 0x00	; 0
     1a2:	05 c0       	rjmp	.+10     	; 0x1ae <isContainNodeOfNwkAddr+0x2a>
	return 0;
}

int isContainNodeOfNwkAddr(uint16 nwk_Addr) {
	uint8 i = 0;
	for (i = 0; i < deviceInfoTable.size; i++)
     1a4:	2f 5f       	subi	r18, 0xFF	; 255
     1a6:	23 17       	cp	r18, r19
     1a8:	a0 f3       	brcs	.-24     	; 0x192 <isContainNodeOfNwkAddr+0xe>
     1aa:	20 e0       	ldi	r18, 0x00	; 0
     1ac:	30 e0       	ldi	r19, 0x00	; 0
		if (deviceInfoTable.deviceInfo[i].nwkAddr == nwk_Addr)
			return 1;

	return 0; // 찾는 값이 없으면 '0'을 리턴
}
     1ae:	c9 01       	movw	r24, r18
     1b0:	08 95       	ret

000001b2 <addDeviceTable>:

// ---------------------------------------------------------------------------------------------- //
// ------------------ Add & Update Mapping Table  --------------------------------------------------- //
// ---------------------------------------------------------------------------------------------- //
device_Info *addDeviceTable(uint16 node_Id, uint16 nwkAddr, uint16 node_Type,
		uint8 device_version, uint8 fw_version) {
     1b2:	ef 92       	push	r14
     1b4:	ff 92       	push	r15
     1b6:	0f 93       	push	r16
	uint8 i = 0;
	deviceInfoTable.deviceInfo[deviceInfoTable.size].ieeeId = node_Id;
     1b8:	30 91 6d 02 	lds	r19, 0x026D
     1bc:	e3 2f       	mov	r30, r19
     1be:	f0 e0       	ldi	r31, 0x00	; 0
     1c0:	df 01       	movw	r26, r30
     1c2:	aa 0f       	add	r26, r26
     1c4:	bb 1f       	adc	r27, r27
     1c6:	aa 0f       	add	r26, r26
     1c8:	bb 1f       	adc	r27, r27
     1ca:	aa 0f       	add	r26, r26
     1cc:	bb 1f       	adc	r27, r27
     1ce:	0f 2e       	mov	r0, r31
     1d0:	fd e2       	ldi	r31, 0x2D	; 45
     1d2:	ef 2e       	mov	r14, r31
     1d4:	f1 e0       	ldi	r31, 0x01	; 1
     1d6:	ff 2e       	mov	r15, r31
     1d8:	f0 2d       	mov	r31, r0
     1da:	ae 0d       	add	r26, r14
     1dc:	bf 1d       	adc	r27, r15
     1de:	15 96       	adiw	r26, 0x05	; 5
     1e0:	9c 93       	st	X, r25
     1e2:	8e 93       	st	-X, r24
     1e4:	14 97       	sbiw	r26, 0x04	; 4
	deviceInfoTable.deviceInfo[deviceInfoTable.size].nwkAddr = nwkAddr;
     1e6:	a3 e0       	ldi	r26, 0x03	; 3
     1e8:	ee 0f       	add	r30, r30
     1ea:	ff 1f       	adc	r31, r31
     1ec:	aa 95       	dec	r26
     1ee:	e1 f7       	brne	.-8      	; 0x1e8 <addDeviceTable+0x36>
     1f0:	d7 01       	movw	r26, r14
     1f2:	ae 0f       	add	r26, r30
     1f4:	bf 1f       	adc	r27, r31
     1f6:	11 96       	adiw	r26, 0x01	; 1
     1f8:	7c 93       	st	X, r23
     1fa:	6e 93       	st	-X, r22
	deviceInfoTable.deviceInfo[deviceInfoTable.size].deviceType = node_Type;
     1fc:	ee 0e       	add	r14, r30
     1fe:	ff 1e       	adc	r15, r31
     200:	f7 01       	movw	r30, r14
     202:	53 83       	std	Z+3, r21	; 0x03
     204:	42 83       	std	Z+2, r20	; 0x02
	deviceInfoTable.deviceInfo[deviceInfoTable.size].deviceVersion =
     206:	16 96       	adiw	r26, 0x06	; 6
     208:	2c 93       	st	X, r18
     20a:	16 97       	sbiw	r26, 0x06	; 6
			device_version;
	deviceInfoTable.deviceInfo[deviceInfoTable.size].fwVersion = fw_version;
     20c:	17 96       	adiw	r26, 0x07	; 7
     20e:	0c 93       	st	X, r16

	deviceInfoTable.size++;
     210:	3f 5f       	subi	r19, 0xFF	; 255
     212:	30 93 6d 02 	sts	0x026D, r19

	return NULL;
}
     216:	80 e0       	ldi	r24, 0x00	; 0
     218:	90 e0       	ldi	r25, 0x00	; 0
     21a:	0f 91       	pop	r16
     21c:	ff 90       	pop	r15
     21e:	ef 90       	pop	r14
     220:	08 95       	ret

00000222 <updateDeviceTable>:

int updateDeviceTable(uint16 node_Id, uint16 nwkAddr, uint16 node_Type,
		uint8 device_version, uint8 fw_version) {
     222:	cf 92       	push	r12
     224:	df 92       	push	r13
     226:	ef 92       	push	r14
     228:	ff 92       	push	r15
     22a:	0f 93       	push	r16
     22c:	1f 93       	push	r17
     22e:	cf 93       	push	r28
     230:	df 93       	push	r29
     232:	ec 01       	movw	r28, r24
     234:	7b 01       	movw	r14, r22
     236:	6a 01       	movw	r12, r20
     238:	12 2f       	mov	r17, r18
	device_Info *pUpdate;

	if (((pUpdate = findNodeById(node_Id)) != NULL)
     23a:	0e 94 72 00 	call	0xe4	; 0xe4 <findNodeById>
     23e:	fc 01       	movw	r30, r24
     240:	00 97       	sbiw	r24, 0x00	; 0
     242:	29 f0       	breq	.+10     	; 0x24e <updateDeviceTable+0x2c>
     244:	80 81       	ld	r24, Z
     246:	91 81       	ldd	r25, Z+1	; 0x01
     248:	8e 15       	cp	r24, r14
     24a:	9f 05       	cpc	r25, r15
     24c:	31 f4       	brne	.+12     	; 0x25a <updateDeviceTable+0x38>
	return NULL;
}

int isContainNodeOfId(uint16 Ieee_Addr) {
	uint8 i = 0;
	for (i = 0; i < deviceInfoTable.size; i++)
     24e:	30 91 6d 02 	lds	r19, 0x026D
     252:	e1 e3       	ldi	r30, 0x31	; 49
     254:	f1 e0       	ldi	r31, 0x01	; 1
     256:	20 e0       	ldi	r18, 0x00	; 0
     258:	0e c0       	rjmp	.+28     	; 0x276 <updateDeviceTable+0x54>
		uint8 device_version, uint8 fw_version) {
	device_Info *pUpdate;

	if (((pUpdate = findNodeById(node_Id)) != NULL)
			&& (pUpdate->nwkAddr) != nwkAddr) {
		pUpdate->nwkAddr = nwkAddr;
     25a:	f1 82       	std	Z+1, r15	; 0x01
     25c:	e0 82       	st	Z, r14
		pUpdate->deviceType = node_Type;
     25e:	d3 82       	std	Z+3, r13	; 0x03
     260:	c2 82       	std	Z+2, r12	; 0x02
		pUpdate->deviceVersion = device_version;
     262:	16 83       	std	Z+6, r17	; 0x06
		pUpdate->fwVersion = fw_version;
     264:	07 83       	std	Z+7, r16	; 0x07
     266:	0a c0       	rjmp	.+20     	; 0x27c <updateDeviceTable+0x5a>
}

int isContainNodeOfId(uint16 Ieee_Addr) {
	uint8 i = 0;
	for (i = 0; i < deviceInfoTable.size; i++)
		if (deviceInfoTable.deviceInfo[i].ieeeId == Ieee_Addr)
     268:	80 81       	ld	r24, Z
     26a:	91 81       	ldd	r25, Z+1	; 0x01
     26c:	38 96       	adiw	r30, 0x08	; 8
     26e:	8c 17       	cp	r24, r28
     270:	9d 07       	cpc	r25, r29
     272:	21 f0       	breq	.+8      	; 0x27c <updateDeviceTable+0x5a>
	return NULL;
}

int isContainNodeOfId(uint16 Ieee_Addr) {
	uint8 i = 0;
	for (i = 0; i < deviceInfoTable.size; i++)
     274:	2f 5f       	subi	r18, 0xFF	; 255
     276:	23 17       	cp	r18, r19
     278:	b8 f3       	brcs	.-18     	; 0x268 <updateDeviceTable+0x46>
     27a:	0b c0       	rjmp	.+22     	; 0x292 <updateDeviceTable+0x70>
		if (isContainNodeOfId(node_Id) == 0)
			addDeviceTable(node_Id, nwkAddr, node_Type, device_version,
					fw_version);
	}
	return 0;
}
     27c:	80 e0       	ldi	r24, 0x00	; 0
     27e:	90 e0       	ldi	r25, 0x00	; 0
     280:	df 91       	pop	r29
     282:	cf 91       	pop	r28
     284:	1f 91       	pop	r17
     286:	0f 91       	pop	r16
     288:	ff 90       	pop	r15
     28a:	ef 90       	pop	r14
     28c:	df 90       	pop	r13
     28e:	cf 90       	pop	r12
     290:	08 95       	ret
// ------------------ Add & Update Mapping Table  --------------------------------------------------- //
// ---------------------------------------------------------------------------------------------- //
device_Info *addDeviceTable(uint16 node_Id, uint16 nwkAddr, uint16 node_Type,
		uint8 device_version, uint8 fw_version) {
	uint8 i = 0;
	deviceInfoTable.deviceInfo[deviceInfoTable.size].ieeeId = node_Id;
     292:	e3 2f       	mov	r30, r19
     294:	f0 e0       	ldi	r31, 0x00	; 0
     296:	df 01       	movw	r26, r30
     298:	23 e0       	ldi	r18, 0x03	; 3
     29a:	aa 0f       	add	r26, r26
     29c:	bb 1f       	adc	r27, r27
     29e:	2a 95       	dec	r18
     2a0:	e1 f7       	brne	.-8      	; 0x29a <updateDeviceTable+0x78>
     2a2:	af 5c       	subi	r26, 0xCF	; 207
     2a4:	be 4f       	sbci	r27, 0xFE	; 254
     2a6:	cd 93       	st	X+, r28
     2a8:	dc 93       	st	X, r29
	deviceInfoTable.deviceInfo[deviceInfoTable.size].nwkAddr = nwkAddr;
     2aa:	93 e0       	ldi	r25, 0x03	; 3
     2ac:	ee 0f       	add	r30, r30
     2ae:	ff 1f       	adc	r31, r31
     2b0:	9a 95       	dec	r25
     2b2:	e1 f7       	brne	.-8      	; 0x2ac <updateDeviceTable+0x8a>
     2b4:	df 01       	movw	r26, r30
     2b6:	a3 5d       	subi	r26, 0xD3	; 211
     2b8:	be 4f       	sbci	r27, 0xFE	; 254
     2ba:	11 96       	adiw	r26, 0x01	; 1
     2bc:	fc 92       	st	X, r15
     2be:	ee 92       	st	-X, r14
	deviceInfoTable.deviceInfo[deviceInfoTable.size].deviceType = node_Type;
     2c0:	e1 5d       	subi	r30, 0xD1	; 209
     2c2:	fe 4f       	sbci	r31, 0xFE	; 254
     2c4:	d1 82       	std	Z+1, r13	; 0x01
     2c6:	c0 82       	st	Z, r12
	deviceInfoTable.deviceInfo[deviceInfoTable.size].deviceVersion =
     2c8:	16 96       	adiw	r26, 0x06	; 6
     2ca:	1c 93       	st	X, r17
     2cc:	16 97       	sbiw	r26, 0x06	; 6
			device_version;
	deviceInfoTable.deviceInfo[deviceInfoTable.size].fwVersion = fw_version;
     2ce:	17 96       	adiw	r26, 0x07	; 7
     2d0:	0c 93       	st	X, r16

	deviceInfoTable.size++;
     2d2:	3f 5f       	subi	r19, 0xFF	; 255
     2d4:	30 93 6d 02 	sts	0x026D, r19
     2d8:	d1 cf       	rjmp	.-94     	; 0x27c <updateDeviceTable+0x5a>

000002da <removeNode>:
}

// ---------------------------------------------------------------------------------------------- //
// ------------------ Remove Node & Mapping Table  ------------------------------------------------- //
// ---------------------------------------------------------------------------------------------- //
void removeNode(uint16 node_Id) {
     2da:	bc 01       	movw	r22, r24
	uint8 i = 0, j = 0;

	for (i = 0; i < deviceInfoTable.size; i++) {
     2dc:	50 91 6d 02 	lds	r21, 0x026D
     2e0:	e1 e3       	ldi	r30, 0x31	; 49
     2e2:	f1 e0       	ldi	r31, 0x01	; 1
     2e4:	20 e0       	ldi	r18, 0x00	; 0
     2e6:	27 c0       	rjmp	.+78     	; 0x336 <removeNode+0x5c>
		if (deviceInfoTable.deviceInfo[i].ieeeId == node_Id) {
     2e8:	80 81       	ld	r24, Z
     2ea:	91 81       	ldd	r25, Z+1	; 0x01
     2ec:	38 96       	adiw	r30, 0x08	; 8
     2ee:	86 17       	cp	r24, r22
     2f0:	97 07       	cpc	r25, r23
     2f2:	01 f5       	brne	.+64     	; 0x334 <removeNode+0x5a>
     2f4:	42 2f       	mov	r20, r18
			for (j = i; j < deviceInfoTable.size - 1; j++)
     2f6:	25 2f       	mov	r18, r21
     2f8:	30 e0       	ldi	r19, 0x00	; 0
     2fa:	21 50       	subi	r18, 0x01	; 1
     2fc:	30 40       	sbci	r19, 0x00	; 0
     2fe:	11 c0       	rjmp	.+34     	; 0x322 <removeNode+0x48>
				deviceInfoTable.deviceInfo[j] =
     300:	fc 01       	movw	r30, r24
     302:	63 e0       	ldi	r22, 0x03	; 3
     304:	ee 0f       	add	r30, r30
     306:	ff 1f       	adc	r31, r31
     308:	6a 95       	dec	r22
     30a:	e1 f7       	brne	.-8      	; 0x304 <removeNode+0x2a>
     30c:	df 01       	movw	r26, r30
     30e:	a3 5d       	subi	r26, 0xD3	; 211
     310:	be 4f       	sbci	r27, 0xFE	; 254
     312:	eb 5c       	subi	r30, 0xCB	; 203
     314:	fe 4f       	sbci	r31, 0xFE	; 254
     316:	88 e0       	ldi	r24, 0x08	; 8
     318:	01 90       	ld	r0, Z+
     31a:	0d 92       	st	X+, r0
     31c:	81 50       	subi	r24, 0x01	; 1
     31e:	e1 f7       	brne	.-8      	; 0x318 <removeNode+0x3e>
void removeNode(uint16 node_Id) {
	uint8 i = 0, j = 0;

	for (i = 0; i < deviceInfoTable.size; i++) {
		if (deviceInfoTable.deviceInfo[i].ieeeId == node_Id) {
			for (j = i; j < deviceInfoTable.size - 1; j++)
     320:	4f 5f       	subi	r20, 0xFF	; 255
     322:	84 2f       	mov	r24, r20
     324:	90 e0       	ldi	r25, 0x00	; 0
     326:	82 17       	cp	r24, r18
     328:	93 07       	cpc	r25, r19
     32a:	54 f3       	brlt	.-44     	; 0x300 <removeNode+0x26>
				deviceInfoTable.deviceInfo[j] =
						deviceInfoTable.deviceInfo[j + 1];
			deviceInfoTable.size--;
     32c:	51 50       	subi	r21, 0x01	; 1
     32e:	50 93 6d 02 	sts	0x026D, r21
     332:	08 95       	ret
// ------------------ Remove Node & Mapping Table  ------------------------------------------------- //
// ---------------------------------------------------------------------------------------------- //
void removeNode(uint16 node_Id) {
	uint8 i = 0, j = 0;

	for (i = 0; i < deviceInfoTable.size; i++) {
     334:	2f 5f       	subi	r18, 0xFF	; 255
     336:	25 17       	cp	r18, r21
     338:	b8 f2       	brcs	.-82     	; 0x2e8 <removeNode+0xe>
     33a:	08 95       	ret

0000033c <removeDeviceTable>:
		}
	}
}

void removeDeviceTable() {
	deviceInfoTable.size = 0;
     33c:	10 92 6d 02 	sts	0x026D, r1
}
     340:	08 95       	ret

00000342 <countDeviceTable>:

// ---------------------------------------------------------------------------------------------- //
// ------------------ Count Node & Device Table  ---------------------------------------------------- //
// ---------------------------------------------------------------------------------------------- //
uint8 countDeviceTable(uint16 node_Type) {
     342:	bc 01       	movw	r22, r24
	uint8 device_count = 0;
	uint8 i = 0;

	for (i = 0; i < deviceInfoTable.size; i++)
     344:	80 91 6d 02 	lds	r24, 0x026D
     348:	ef e2       	ldi	r30, 0x2F	; 47
     34a:	f1 e0       	ldi	r31, 0x01	; 1
     34c:	40 e0       	ldi	r20, 0x00	; 0
     34e:	28 2f       	mov	r18, r24
     350:	30 e0       	ldi	r19, 0x00	; 0
     352:	a3 e0       	ldi	r26, 0x03	; 3
     354:	22 0f       	add	r18, r18
     356:	33 1f       	adc	r19, r19
     358:	aa 95       	dec	r26
     35a:	e1 f7       	brne	.-8      	; 0x354 <countDeviceTable+0x12>
     35c:	2e 0f       	add	r18, r30
     35e:	3f 1f       	adc	r19, r31
     360:	07 c0       	rjmp	.+14     	; 0x370 <countDeviceTable+0x2e>
		if (deviceInfoTable.deviceInfo[i].deviceType == node_Type)
     362:	80 81       	ld	r24, Z
     364:	91 81       	ldd	r25, Z+1	; 0x01
     366:	86 17       	cp	r24, r22
     368:	97 07       	cpc	r25, r23
     36a:	09 f4       	brne	.+2      	; 0x36e <countDeviceTable+0x2c>
			device_count++;
     36c:	4f 5f       	subi	r20, 0xFF	; 255
     36e:	38 96       	adiw	r30, 0x08	; 8
// ---------------------------------------------------------------------------------------------- //
uint8 countDeviceTable(uint16 node_Type) {
	uint8 device_count = 0;
	uint8 i = 0;

	for (i = 0; i < deviceInfoTable.size; i++)
     370:	e2 17       	cp	r30, r18
     372:	f3 07       	cpc	r31, r19
     374:	b1 f7       	brne	.-20     	; 0x362 <countDeviceTable+0x20>
		if (deviceInfoTable.deviceInfo[i].deviceType == node_Type)
			device_count++;
	return device_count;

}
     376:	84 2f       	mov	r24, r20
     378:	08 95       	ret

0000037a <countDevice>:

uint8 countDevice() {
	return deviceInfoTable.size;
}
     37a:	80 91 6d 02 	lds	r24, 0x026D
     37e:	08 95       	ret

00000380 <getNetAddr>:

// ---------------------------------------------------------------------------------------------- //
// ------------------ Get Node ID Table  ----------------------------------------------------------- //
// ---------------------------------------------------------------------------------------------- //
uint16 getNetAddr(uint16 node_Id) {
     380:	ac 01       	movw	r20, r24
	uint8 i = 0;
	for (i = 0; i < deviceInfoTable.size; i++)
     382:	60 91 6d 02 	lds	r22, 0x026D
     386:	a1 e3       	ldi	r26, 0x31	; 49
     388:	b1 e0       	ldi	r27, 0x01	; 1
     38a:	20 e0       	ldi	r18, 0x00	; 0
     38c:	30 e0       	ldi	r19, 0x00	; 0
     38e:	14 c0       	rjmp	.+40     	; 0x3b8 <getNetAddr+0x38>
     390:	f9 01       	movw	r30, r18
		if (deviceInfoTable.deviceInfo[i].ieeeId == node_Id)
     392:	8d 91       	ld	r24, X+
     394:	9c 91       	ld	r25, X
     396:	11 97       	sbiw	r26, 0x01	; 1
     398:	2f 5f       	subi	r18, 0xFF	; 255
     39a:	3f 4f       	sbci	r19, 0xFF	; 255
     39c:	18 96       	adiw	r26, 0x08	; 8
     39e:	84 17       	cp	r24, r20
     3a0:	95 07       	cpc	r25, r21
     3a2:	51 f4       	brne	.+20     	; 0x3b8 <getNetAddr+0x38>
			return deviceInfoTable.deviceInfo[i].nwkAddr;
     3a4:	b3 e0       	ldi	r27, 0x03	; 3
     3a6:	ee 0f       	add	r30, r30
     3a8:	ff 1f       	adc	r31, r31
     3aa:	ba 95       	dec	r27
     3ac:	e1 f7       	brne	.-8      	; 0x3a6 <getNetAddr+0x26>
     3ae:	e3 5d       	subi	r30, 0xD3	; 211
     3b0:	fe 4f       	sbci	r31, 0xFE	; 254
     3b2:	20 81       	ld	r18, Z
     3b4:	31 81       	ldd	r19, Z+1	; 0x01
     3b6:	04 c0       	rjmp	.+8      	; 0x3c0 <getNetAddr+0x40>
// ---------------------------------------------------------------------------------------------- //
// ------------------ Get Node ID Table  ----------------------------------------------------------- //
// ---------------------------------------------------------------------------------------------- //
uint16 getNetAddr(uint16 node_Id) {
	uint8 i = 0;
	for (i = 0; i < deviceInfoTable.size; i++)
     3b8:	26 17       	cp	r18, r22
     3ba:	50 f3       	brcs	.-44     	; 0x390 <getNetAddr+0x10>
     3bc:	20 e0       	ldi	r18, 0x00	; 0
     3be:	30 e0       	ldi	r19, 0x00	; 0
		if (deviceInfoTable.deviceInfo[i].ieeeId == node_Id)
			return deviceInfoTable.deviceInfo[i].nwkAddr;
	return 0;
}
     3c0:	c9 01       	movw	r24, r18
     3c2:	08 95       	ret

000003c4 <getNodeId>:

uint16 getNodeId(uint16 nwk_Addr) {
     3c4:	ac 01       	movw	r20, r24
	uint8 i = 0;
	for (i = 0; i < deviceInfoTable.size; i++)
     3c6:	60 91 6d 02 	lds	r22, 0x026D
     3ca:	ad e2       	ldi	r26, 0x2D	; 45
     3cc:	b1 e0       	ldi	r27, 0x01	; 1
     3ce:	20 e0       	ldi	r18, 0x00	; 0
     3d0:	30 e0       	ldi	r19, 0x00	; 0
     3d2:	14 c0       	rjmp	.+40     	; 0x3fc <getNodeId+0x38>
     3d4:	f9 01       	movw	r30, r18
		if (deviceInfoTable.deviceInfo[i].nwkAddr == nwk_Addr)
     3d6:	8d 91       	ld	r24, X+
     3d8:	9c 91       	ld	r25, X
     3da:	11 97       	sbiw	r26, 0x01	; 1
     3dc:	2f 5f       	subi	r18, 0xFF	; 255
     3de:	3f 4f       	sbci	r19, 0xFF	; 255
     3e0:	18 96       	adiw	r26, 0x08	; 8
     3e2:	84 17       	cp	r24, r20
     3e4:	95 07       	cpc	r25, r21
     3e6:	51 f4       	brne	.+20     	; 0x3fc <getNodeId+0x38>
			return deviceInfoTable.deviceInfo[i].ieeeId;
     3e8:	83 e0       	ldi	r24, 0x03	; 3
     3ea:	ee 0f       	add	r30, r30
     3ec:	ff 1f       	adc	r31, r31
     3ee:	8a 95       	dec	r24
     3f0:	e1 f7       	brne	.-8      	; 0x3ea <getNodeId+0x26>
     3f2:	ef 5c       	subi	r30, 0xCF	; 207
     3f4:	fe 4f       	sbci	r31, 0xFE	; 254
     3f6:	20 81       	ld	r18, Z
     3f8:	31 81       	ldd	r19, Z+1	; 0x01
     3fa:	04 c0       	rjmp	.+8      	; 0x404 <getNodeId+0x40>
	return 0;
}

uint16 getNodeId(uint16 nwk_Addr) {
	uint8 i = 0;
	for (i = 0; i < deviceInfoTable.size; i++)
     3fc:	26 17       	cp	r18, r22
     3fe:	50 f3       	brcs	.-44     	; 0x3d4 <getNodeId+0x10>
     400:	20 e0       	ldi	r18, 0x00	; 0
     402:	30 e0       	ldi	r19, 0x00	; 0
		if (deviceInfoTable.deviceInfo[i].nwkAddr == nwk_Addr)
			return deviceInfoTable.deviceInfo[i].ieeeId;
	return 0;

}
     404:	c9 01       	movw	r24, r18
     406:	08 95       	ret

00000408 <printDeviceTable>:

// ---------------------------------------------------------------------------------------------- //
// ------------------ Print Node & Mapping Table  ---------------------------------------------------- //
// ---------------------------------------------------------------------------------------------- //
void printDeviceTable() {
     408:	ef 92       	push	r14
     40a:	ff 92       	push	r15
     40c:	0f 93       	push	r16
     40e:	1f 93       	push	r17
     410:	cf 93       	push	r28
     412:	df 93       	push	r29
     414:	05 e3       	ldi	r16, 0x35	; 53
     416:	11 e0       	ldi	r17, 0x01	; 1
     418:	c0 e0       	ldi	r28, 0x00	; 0
     41a:	d0 e0       	ldi	r29, 0x00	; 0
	uint16 i = 0;
	for (i = 0; i < deviceInfoTable.size; i++)
		printf_P(PSTR("\n%d: %02X-%02X"), ++i,
     41c:	9c e8       	ldi	r25, 0x8C	; 140
     41e:	e9 2e       	mov	r14, r25
     420:	90 e0       	ldi	r25, 0x00	; 0
     422:	f9 2e       	mov	r15, r25
     424:	2c c0       	rjmp	.+88     	; 0x47e <printDeviceTable+0x76>
     426:	8d b7       	in	r24, 0x3d	; 61
     428:	9e b7       	in	r25, 0x3e	; 62
     42a:	08 97       	sbiw	r24, 0x08	; 8
     42c:	0f b6       	in	r0, 0x3f	; 63
     42e:	f8 94       	cli
     430:	9e bf       	out	0x3e, r25	; 62
     432:	0f be       	out	0x3f, r0	; 63
     434:	8d bf       	out	0x3d, r24	; 61
     436:	ed b7       	in	r30, 0x3d	; 61
     438:	fe b7       	in	r31, 0x3e	; 62
     43a:	31 96       	adiw	r30, 0x01	; 1
     43c:	ad b7       	in	r26, 0x3d	; 61
     43e:	be b7       	in	r27, 0x3e	; 62
     440:	12 96       	adiw	r26, 0x02	; 2
     442:	fc 92       	st	X, r15
     444:	ee 92       	st	-X, r14
     446:	11 97       	sbiw	r26, 0x01	; 1
     448:	21 96       	adiw	r28, 0x01	; 1
     44a:	d3 83       	std	Z+3, r29	; 0x03
     44c:	c2 83       	std	Z+2, r28	; 0x02
     44e:	d8 01       	movw	r26, r16
     450:	14 96       	adiw	r26, 0x04	; 4
     452:	8d 91       	ld	r24, X+
     454:	9c 91       	ld	r25, X
     456:	15 97       	sbiw	r26, 0x05	; 5
     458:	95 83       	std	Z+5, r25	; 0x05
     45a:	84 83       	std	Z+4, r24	; 0x04
     45c:	8d 91       	ld	r24, X+
     45e:	9c 91       	ld	r25, X
     460:	97 83       	std	Z+7, r25	; 0x07
     462:	86 83       	std	Z+6, r24	; 0x06
     464:	0e 94 6a 0e 	call	0x1cd4	; 0x1cd4 <printf_P>
     468:	21 96       	adiw	r28, 0x01	; 1
     46a:	00 5f       	subi	r16, 0xF0	; 240
     46c:	1f 4f       	sbci	r17, 0xFF	; 255
     46e:	8d b7       	in	r24, 0x3d	; 61
     470:	9e b7       	in	r25, 0x3e	; 62
     472:	08 96       	adiw	r24, 0x08	; 8
     474:	0f b6       	in	r0, 0x3f	; 63
     476:	f8 94       	cli
     478:	9e bf       	out	0x3e, r25	; 62
     47a:	0f be       	out	0x3f, r0	; 63
     47c:	8d bf       	out	0x3d, r24	; 61
// ---------------------------------------------------------------------------------------------- //
// ------------------ Print Node & Mapping Table  ---------------------------------------------------- //
// ---------------------------------------------------------------------------------------------- //
void printDeviceTable() {
	uint16 i = 0;
	for (i = 0; i < deviceInfoTable.size; i++)
     47e:	80 91 6d 02 	lds	r24, 0x026D
     482:	90 e0       	ldi	r25, 0x00	; 0
     484:	c8 17       	cp	r28, r24
     486:	d9 07       	cpc	r29, r25
     488:	70 f2       	brcs	.-100    	; 0x426 <printDeviceTable+0x1e>
		printf_P(PSTR("\n%d: %02X-%02X"), ++i,
				deviceInfoTable.deviceInfo[i].ieeeId,
				deviceInfoTable.deviceInfo[i].nwkAddr);
}
     48a:	df 91       	pop	r29
     48c:	cf 91       	pop	r28
     48e:	1f 91       	pop	r17
     490:	0f 91       	pop	r16
     492:	ff 90       	pop	r15
     494:	ef 90       	pop	r14
     496:	08 95       	ret

00000498 <__vector_32>:
// MAX Trans ID Check ( if(DMX512.Cnt >= 512) DMX512.Start = 0 )
---------------------------------------------*/

//	modified, syseo : 100205    
ISR(USART1_TX_vect)
{				
     498:	1f 92       	push	r1
     49a:	0f 92       	push	r0
     49c:	0f b6       	in	r0, 0x3f	; 63
     49e:	0f 92       	push	r0
     4a0:	0b b6       	in	r0, 0x3b	; 59
     4a2:	0f 92       	push	r0
     4a4:	11 24       	eor	r1, r1
     4a6:	2f 93       	push	r18
     4a8:	3f 93       	push	r19
     4aa:	8f 93       	push	r24
     4ac:	9f 93       	push	r25
     4ae:	ef 93       	push	r30
     4b0:	ff 93       	push	r31
	if(DMX512.Start)
     4b2:	80 91 af 02 	lds	r24, 0x02AF
     4b6:	88 23       	and	r24, r24
     4b8:	09 f4       	brne	.+2      	; 0x4bc <__vector_32+0x24>
     4ba:	3b c0       	rjmp	.+118    	; 0x532 <__vector_32+0x9a>
	{
		if(DMX512.Cnt >= DMX512BREAKSIZE)
     4bc:	80 91 b0 02 	lds	r24, 0x02B0
     4c0:	90 91 b1 02 	lds	r25, 0x02B1
     4c4:	81 97       	sbiw	r24, 0x21	; 33
     4c6:	80 f0       	brcs	.+32     	; 0x4e8 <__vector_32+0x50>
		{
			#undef BAUD
			#define BAUD DMX_BAUD
			#include <util/setbaud.h>			

			_UBRRH = UBRRH_VALUE;
     4c8:	10 92 98 00 	sts	0x0098, r1
			_UBRRL = UBRRL_VALUE;
     4cc:	83 e0       	ldi	r24, 0x03	; 3
     4ce:	80 93 99 00 	sts	0x0099, r24
{				
	if(DMX512.Start)
	{
		if(DMX512.Cnt >= DMX512BREAKSIZE)
		{
			TX_START(); // Start Code
     4d2:	80 91 9b 00 	lds	r24, 0x009B
     4d6:	85 ff       	sbrs	r24, 5
     4d8:	fc cf       	rjmp	.-8      	; 0x4d2 <__vector_32+0x3a>
     4da:	10 92 b1 02 	sts	0x02B1, r1
     4de:	10 92 b0 02 	sts	0x02B0, r1
     4e2:	10 92 9c 00 	sts	0x009C, r1
     4e6:	25 c0       	rjmp	.+74     	; 0x532 <__vector_32+0x9a>
		}
		else if(DMX512.Cnt == DMX512SRAMSIZE || DMX512.Cnt == DMX512.Max)
     4e8:	80 91 b0 02 	lds	r24, 0x02B0
     4ec:	90 91 b1 02 	lds	r25, 0x02B1
     4f0:	80 97       	sbiw	r24, 0x20	; 32
     4f2:	59 f0       	breq	.+22     	; 0x50a <__vector_32+0x72>
     4f4:	20 91 b0 02 	lds	r18, 0x02B0
     4f8:	30 91 b1 02 	lds	r19, 0x02B1
     4fc:	80 91 b2 02 	lds	r24, 0x02B2
     500:	90 91 b3 02 	lds	r25, 0x02B3
     504:	28 17       	cp	r18, r24
     506:	39 07       	cpc	r19, r25
     508:	19 f4       	brne	.+6      	; 0x510 <__vector_32+0x78>
		{
			DMX512.Start = 0; // Trans End
     50a:	10 92 af 02 	sts	0x02AF, r1
     50e:	11 c0       	rjmp	.+34     	; 0x532 <__vector_32+0x9a>
		}
		else
		{
			asm volatile("nop\n\t nop"); // 2 Cycles Delay
     510:	00 00       	nop
     512:	00 00       	nop
			_UDR = DMX512.Data[DMX512.Cnt++]; // Data Send
     514:	80 91 b0 02 	lds	r24, 0x02B0
     518:	90 91 b1 02 	lds	r25, 0x02B1
     51c:	fc 01       	movw	r30, r24
     51e:	e2 55       	subi	r30, 0x52	; 82
     520:	fd 4f       	sbci	r31, 0xFD	; 253
     522:	26 81       	ldd	r18, Z+6	; 0x06
     524:	20 93 9c 00 	sts	0x009C, r18
     528:	01 96       	adiw	r24, 0x01	; 1
     52a:	90 93 b1 02 	sts	0x02B1, r25
     52e:	80 93 b0 02 	sts	0x02B0, r24
		}
	}
}
     532:	ff 91       	pop	r31
     534:	ef 91       	pop	r30
     536:	9f 91       	pop	r25
     538:	8f 91       	pop	r24
     53a:	3f 91       	pop	r19
     53c:	2f 91       	pop	r18
     53e:	0f 90       	pop	r0
     540:	0b be       	out	0x3b, r0	; 59
     542:	0f 90       	pop	r0
     544:	0f be       	out	0x3f, r0	; 63
     546:	0f 90       	pop	r0
     548:	1f 90       	pop	r1
     54a:	18 95       	reti

0000054c <USART_RXC_vect>:
// DMX512.Data[DMX512.Cnt++] = UDR;
---------------------------------------------*/

//	modified, syseo : 100205
ISR(USART_RXC_vect)
{
     54c:	1f 92       	push	r1
     54e:	0f 92       	push	r0
     550:	0f b6       	in	r0, 0x3f	; 63
     552:	0f 92       	push	r0
     554:	0b b6       	in	r0, 0x3b	; 59
     556:	0f 92       	push	r0
     558:	11 24       	eor	r1, r1
     55a:	2f 93       	push	r18
     55c:	8f 93       	push	r24
     55e:	9f 93       	push	r25
     560:	ef 93       	push	r30
     562:	ff 93       	push	r31
	unsigned char RxBuf;
	unsigned char RxStatus;

#if 1
	RxStatus = _UCSRB;
     564:	80 91 9a 00 	lds	r24, 0x009A
	RxBuf = _UDR;
     568:	20 91 9c 00 	lds	r18, 0x009C

	if( !( RxStatus & (1 << _RXB8) ) )	// Frame Error : Break
     56c:	81 fd       	sbrc	r24, 1
     56e:	04 c0       	rjmp	.+8      	; 0x578 <USART_RXC_vect+0x2c>
	{
		DMX512.Break = 1;
     570:	81 e0       	ldi	r24, 0x01	; 1
     572:	80 93 ae 02 	sts	0x02AE, r24
     576:	18 c0       	rjmp	.+48     	; 0x5a8 <USART_RXC_vect+0x5c>
	}
	else if(DMX512.Break)	// No Frame Error : Start
     578:	80 91 ae 02 	lds	r24, 0x02AE
     57c:	88 23       	and	r24, r24
     57e:	39 f0       	breq	.+14     	; 0x58e <USART_RXC_vect+0x42>
	{
		DMX512.Break = 0;
     580:	10 92 ae 02 	sts	0x02AE, r1
		DMX512.Cnt = 0;
     584:	10 92 b1 02 	sts	0x02B1, r1
     588:	10 92 b0 02 	sts	0x02B0, r1
     58c:	0d c0       	rjmp	.+26     	; 0x5a8 <USART_RXC_vect+0x5c>
	}
	else				// No Frame Error : Data
	{
		DMX512.Data[DMX512.Cnt++] = RxBuf;
     58e:	80 91 b0 02 	lds	r24, 0x02B0
     592:	90 91 b1 02 	lds	r25, 0x02B1
     596:	fc 01       	movw	r30, r24
     598:	e2 55       	subi	r30, 0x52	; 82
     59a:	fd 4f       	sbci	r31, 0xFD	; 253
     59c:	26 83       	std	Z+6, r18	; 0x06
     59e:	01 96       	adiw	r24, 0x01	; 1
     5a0:	90 93 b1 02 	sts	0x02B1, r25
     5a4:	80 93 b0 02 	sts	0x02B0, r24
	{
		DMX512.Data[DMX512.Cnt++] = RxBuf;
	}
#endif

}
     5a8:	ff 91       	pop	r31
     5aa:	ef 91       	pop	r30
     5ac:	9f 91       	pop	r25
     5ae:	8f 91       	pop	r24
     5b0:	2f 91       	pop	r18
     5b2:	0f 90       	pop	r0
     5b4:	0b be       	out	0x3b, r0	; 59
     5b6:	0f 90       	pop	r0
     5b8:	0f be       	out	0x3f, r0	; 63
     5ba:	0f 90       	pop	r0
     5bc:	1f 90       	pop	r1
     5be:	18 95       	reti

000005c0 <DMX512Send>:
// Trans Start Code ( UDR = 0 )
// Trans Comp No Wait
// Trans Start Code and End Fucntion
---------------------------------------------*/
void DMX512Send(void)
{	
     5c0:	00 c0       	rjmp	.+0      	; 0x5c2 <DMX512Send+0x2>
	TX_BREAK();		
     5c2:	80 91 af 02 	lds	r24, 0x02AF
     5c6:	88 23       	and	r24, r24
     5c8:	e1 f7       	brne	.-8      	; 0x5c2 <DMX512Send+0x2>
		void _UBRR_VALUE2(void)
		{
			#undef BAUD
			#define BAUD BREAK_BAUD
			#include <util/setbaud.h>
			_UBRRH = UBRRH_VALUE;
     5ca:	10 92 98 00 	sts	0x0098, r1
			_UBRRL = UBRRL_VALUE;
     5ce:	89 e0       	ldi	r24, 0x09	; 9
     5d0:	80 93 99 00 	sts	0x0099, r24
// Trans Comp No Wait
// Trans Start Code and End Fucntion
---------------------------------------------*/
void DMX512Send(void)
{	
	TX_BREAK();		
     5d4:	80 91 9b 00 	lds	r24, 0x009B
     5d8:	85 ff       	sbrs	r24, 5
     5da:	fc cf       	rjmp	.-8      	; 0x5d4 <DMX512Send+0x14>
     5dc:	81 e0       	ldi	r24, 0x01	; 1
     5de:	80 93 af 02 	sts	0x02AF, r24
     5e2:	81 e2       	ldi	r24, 0x21	; 33
     5e4:	90 e0       	ldi	r25, 0x00	; 0
     5e6:	90 93 b1 02 	sts	0x02B1, r25
     5ea:	80 93 b0 02 	sts	0x02B0, r24
     5ee:	10 92 9c 00 	sts	0x009C, r1
	//UDR1 = 0;
}
     5f2:	08 95       	ret

000005f4 <InitMCU>:
uint8 dimmingLevel = 0xff;

//-----------------------------------------------------------------------------
//MCU Initialize
void InitMCU() {
	PORTA = 0x00;
     5f4:	1b ba       	out	0x1b, r1	; 27
	DDRA = 0xFF;
     5f6:	8f ef       	ldi	r24, 0xFF	; 255
     5f8:	8a bb       	out	0x1a, r24	; 26
	PORTC = 0x0F;
     5fa:	9f e0       	ldi	r25, 0x0F	; 15
     5fc:	95 bb       	out	0x15, r25	; 21
	DDRC = 0xFF;
     5fe:	84 bb       	out	0x14, r24	; 20
	PORTD = 0x9F;
     600:	9f e9       	ldi	r25, 0x9F	; 159
     602:	92 bb       	out	0x12, r25	; 18
	DDRD = 0xFF;
     604:	81 bb       	out	0x11, r24	; 17
	PORTF = 0xFF;
     606:	80 93 62 00 	sts	0x0062, r24
	DDRF = 0xFF;
     60a:	80 93 61 00 	sts	0x0061, r24
	PORTG = 0xFF;
     60e:	80 93 65 00 	sts	0x0065, r24
	DDRG = 0xFF;
     612:	80 93 64 00 	sts	0x0064, r24
}
     616:	08 95       	ret

00000618 <resetZigbee>:

//----------------------------------------------------------------------//

void resetZigbee() {
	PORTD &= ~(0x80);
     618:	97 98       	cbi	0x12, 7	; 18
     61a:	88 ee       	ldi	r24, 0xE8	; 232
     61c:	93 e0       	ldi	r25, 0x03	; 3
    milliseconds can be achieved.
 */
void
_delay_loop_2(uint16_t __count)
{
	__asm__ volatile (
     61e:	20 e9       	ldi	r18, 0x90	; 144
     620:	31 e0       	ldi	r19, 0x01	; 1
     622:	f9 01       	movw	r30, r18
     624:	31 97       	sbiw	r30, 0x01	; 1
     626:	f1 f7       	brne	.-4      	; 0x624 <resetZigbee+0xc>
		__ticks = (uint16_t) (__ms * 10.0);
		while(__ticks)
		{
			// wait 1/10 ms
			_delay_loop_2(((F_CPU) / 4e3) / 10);
			__ticks --;
     628:	01 97       	sbiw	r24, 0x01	; 1
		__ticks = 1;
	else if (__tmp > 65535)
	{
		//	__ticks = requested delay in 1/10 ms
		__ticks = (uint16_t) (__ms * 10.0);
		while(__ticks)
     62a:	d9 f7       	brne	.-10     	; 0x622 <resetZigbee+0xa>
	MSLEEP(100);
	PORTD |= 0x80;
     62c:	97 9a       	sbi	0x12, 7	; 18
}
     62e:	08 95       	ret

00000630 <WDT_INIT>:
		timer_set(ON_ONTIME_TIMER_ID, 100);
	}
}

void WDT_INIT() {
	MCUCSR &= ~(1 << WDRF); // WatchDog Init(Low)
     630:	84 b7       	in	r24, 0x34	; 52
     632:	87 7f       	andi	r24, 0xF7	; 247
     634:	84 bf       	out	0x34, r24	; 52
	wdt_enable(WDTO_2S);
     636:	2f e0       	ldi	r18, 0x0F	; 15
     638:	88 e1       	ldi	r24, 0x18	; 24
     63a:	90 e0       	ldi	r25, 0x00	; 0
     63c:	0f b6       	in	r0, 0x3f	; 63
     63e:	f8 94       	cli
     640:	a8 95       	wdr
     642:	81 bd       	out	0x21, r24	; 33
     644:	0f be       	out	0x3f, r0	; 63
     646:	21 bd       	out	0x21, r18	; 33
	// WatchDog Reset Time(High)
}
     648:	08 95       	ret

0000064a <dimmingControlTask>:
		}
	}
}

void dimmingControlTask() {
	if (timer_isfired(ON_DIMMING_CONTROL_TIMER_ID)
     64a:	83 e0       	ldi	r24, 0x03	; 3
     64c:	90 e0       	ldi	r25, 0x00	; 0
     64e:	0e 94 e3 08 	call	0x11c6	; 0x11c6 <timer_get>
     652:	89 2b       	or	r24, r25
     654:	59 f4       	brne	.+22     	; 0x66c <dimmingControlTask+0x22>
     656:	0e 94 43 0e 	call	0x1c86	; 0x1c86 <rotary_GetValue>
     65a:	80 7f       	andi	r24, 0xF0	; 240
     65c:	80 3f       	cpi	r24, 0xF0	; 240
     65e:	31 f0       	breq	.+12     	; 0x66c <dimmingControlTask+0x22>
			&& ((rotary_GetValue() & 0xf0) != 0xf0)) {
		dimmingLevel = 0;
     660:	10 92 02 01 	sts	0x0102, r1
		timer_clear(ON_DIMMING_CONTROL_TIMER_ID);
     664:	83 e0       	ldi	r24, 0x03	; 3
     666:	90 e0       	ldi	r25, 0x00	; 0
     668:	0e 94 00 09 	call	0x1200	; 0x1200 <timer_clear>
	}

	if (timer_isfired(ON_ONTIME_TIMER_ID)) {
     66c:	84 e0       	ldi	r24, 0x04	; 4
     66e:	90 e0       	ldi	r25, 0x00	; 0
     670:	0e 94 e3 08 	call	0x11c6	; 0x11c6 <timer_get>
     674:	89 2b       	or	r24, r25
     676:	c9 f4       	brne	.+50     	; 0x6aa <dimmingControlTask+0x60>
		DMX512.Data[0] = dimmingLevel;
     678:	80 91 02 01 	lds	r24, 0x0102
     67c:	80 93 b4 02 	sts	0x02B4, r24
		DMX512Send();
     680:	0e 94 e0 02 	call	0x5c0	; 0x5c0 <DMX512Send>
		if (DMX512.Data[0] > 0xF0)
     684:	80 91 b4 02 	lds	r24, 0x02B4
     688:	81 3f       	cpi	r24, 0xF1	; 241
     68a:	10 f0       	brcs	.+4      	; 0x690 <dimmingControlTask+0x46>
			PORTC &= ~(0x01);
     68c:	a8 98       	cbi	0x15, 0	; 21
     68e:	01 c0       	rjmp	.+2      	; 0x692 <dimmingControlTask+0x48>
		else
			PORTC |= 0x01;
     690:	a8 9a       	sbi	0x15, 0	; 21
		timer_clear(ON_ONTIME_TIMER_ID);
     692:	84 e0       	ldi	r24, 0x04	; 4
     694:	90 e0       	ldi	r25, 0x00	; 0
     696:	0e 94 00 09 	call	0x1200	; 0x1200 <timer_clear>
		timer_set(ON_ONTIME_TIMER_ID, 100);
     69a:	84 e0       	ldi	r24, 0x04	; 4
     69c:	90 e0       	ldi	r25, 0x00	; 0
     69e:	44 e6       	ldi	r20, 0x64	; 100
     6a0:	50 e0       	ldi	r21, 0x00	; 0
     6a2:	60 e0       	ldi	r22, 0x00	; 0
     6a4:	70 e0       	ldi	r23, 0x00	; 0
     6a6:	0e 94 ce 08 	call	0x119c	; 0x119c <timer_set>
     6aa:	08 95       	ret

000006ac <ledTask>:
}

/***** Task Led(Toggle) *****/
void ledTask() {
	static uint8 mode = 0;
	if (timer_isfired(ON_WTD_TIMER_ID)) {
     6ac:	82 e0       	ldi	r24, 0x02	; 2
     6ae:	90 e0       	ldi	r25, 0x00	; 0
     6b0:	0e 94 e3 08 	call	0x11c6	; 0x11c6 <timer_get>
     6b4:	89 2b       	or	r24, r25
     6b6:	91 f4       	brne	.+36     	; 0x6dc <ledTask+0x30>
		wdt_reset();
     6b8:	a8 95       	wdr
		if (PIND & 0x10)
     6ba:	84 9b       	sbis	0x10, 4	; 16
     6bc:	02 c0       	rjmp	.+4      	; 0x6c2 <ledTask+0x16>
			PORTD &= ~(0x10);
     6be:	94 98       	cbi	0x12, 4	; 18
     6c0:	01 c0       	rjmp	.+2      	; 0x6c4 <ledTask+0x18>
		else
			PORTD |= 0x10;
     6c2:	94 9a       	sbi	0x12, 4	; 18

		timer_clear(ON_WTD_TIMER_ID);
     6c4:	82 e0       	ldi	r24, 0x02	; 2
     6c6:	90 e0       	ldi	r25, 0x00	; 0
     6c8:	0e 94 00 09 	call	0x1200	; 0x1200 <timer_clear>
		timer_set(ON_WTD_TIMER_ID, 500);
     6cc:	82 e0       	ldi	r24, 0x02	; 2
     6ce:	90 e0       	ldi	r25, 0x00	; 0
     6d0:	44 ef       	ldi	r20, 0xF4	; 244
     6d2:	51 e0       	ldi	r21, 0x01	; 1
     6d4:	60 e0       	ldi	r22, 0x00	; 0
     6d6:	70 e0       	ldi	r23, 0x00	; 0
     6d8:	0e 94 ce 08 	call	0x119c	; 0x119c <timer_set>
	}

	if (timer_isfired(ON_TEST_TIMER_ID)) {
     6dc:	85 e0       	ldi	r24, 0x05	; 5
     6de:	90 e0       	ldi	r25, 0x00	; 0
     6e0:	0e 94 e3 08 	call	0x11c6	; 0x11c6 <timer_get>
     6e4:	89 2b       	or	r24, r25
     6e6:	a1 f5       	brne	.+104    	; 0x750 <ledTask+0xa4>
		if (rotary_GetValue() == 0x00) {
     6e8:	0e 94 43 0e 	call	0x1c86	; 0x1c86 <rotary_GetValue>
     6ec:	88 23       	and	r24, r24
     6ee:	21 f5       	brne	.+72     	; 0x738 <ledTask+0x8c>
			if (mode == 0) {
     6f0:	80 91 07 01 	lds	r24, 0x0107
     6f4:	88 23       	and	r24, r24
     6f6:	31 f4       	brne	.+12     	; 0x704 <ledTask+0x58>
				mode++;
     6f8:	81 e0       	ldi	r24, 0x01	; 1
     6fa:	80 93 07 01 	sts	0x0107, r24
				DMX512.Data[0] = 0x00;
     6fe:	10 92 b4 02 	sts	0x02B4, r1
     702:	08 c0       	rjmp	.+16     	; 0x714 <ledTask+0x68>
				DMX512Send();
			} else if (mode == 1) {
     704:	81 30       	cpi	r24, 0x01	; 1
     706:	49 f4       	brne	.+18     	; 0x71a <ledTask+0x6e>
				mode++;
     708:	82 e0       	ldi	r24, 0x02	; 2
     70a:	80 93 07 01 	sts	0x0107, r24
				DMX512.Data[0] = 0x50;
     70e:	80 e5       	ldi	r24, 0x50	; 80
     710:	80 93 b4 02 	sts	0x02B4, r24
				DMX512Send();
     714:	0e 94 e0 02 	call	0x5c0	; 0x5c0 <DMX512Send>
     718:	0f c0       	rjmp	.+30     	; 0x738 <ledTask+0x8c>
			} else if (mode == 2) {
     71a:	82 30       	cpi	r24, 0x02	; 2
     71c:	29 f4       	brne	.+10     	; 0x728 <ledTask+0x7c>
				mode++;
     71e:	83 e0       	ldi	r24, 0x03	; 3
     720:	80 93 07 01 	sts	0x0107, r24
				DMX512.Data[0] = 0xA0;
     724:	80 ea       	ldi	r24, 0xA0	; 160
     726:	f4 cf       	rjmp	.-24     	; 0x710 <ledTask+0x64>
				DMX512Send();
			} else if (mode == 3) {
     728:	83 30       	cpi	r24, 0x03	; 3
     72a:	21 f4       	brne	.+8      	; 0x734 <ledTask+0x88>
				mode = 0;
     72c:	10 92 07 01 	sts	0x0107, r1
				DMX512.Data[0] = 0xFE;
     730:	8e ef       	ldi	r24, 0xFE	; 254
     732:	ee cf       	rjmp	.-36     	; 0x710 <ledTask+0x64>
				DMX512Send();
			} else {
				mode = 0;
     734:	10 92 07 01 	sts	0x0107, r1
			}
		}
		timer_clear(ON_TEST_TIMER_ID);
     738:	85 e0       	ldi	r24, 0x05	; 5
     73a:	90 e0       	ldi	r25, 0x00	; 0
     73c:	0e 94 00 09 	call	0x1200	; 0x1200 <timer_clear>
		timer_set(ON_TEST_TIMER_ID, 3000);
     740:	85 e0       	ldi	r24, 0x05	; 5
     742:	90 e0       	ldi	r25, 0x00	; 0
     744:	48 eb       	ldi	r20, 0xB8	; 184
     746:	5b e0       	ldi	r21, 0x0B	; 11
     748:	60 e0       	ldi	r22, 0x00	; 0
     74a:	70 e0       	ldi	r23, 0x00	; 0
     74c:	0e 94 ce 08 	call	0x119c	; 0x119c <timer_set>
     750:	08 95       	ret

00000752 <ZigbeeUsartTask>:

void ZigbeeUsartTask() {
	static int Recvlen = 0;
	static uint8 zigbeeHWResetCount = 0;

	if (timer_isfired(ON_ZIGBEE_PING_TIMER_ID)) {
     752:	81 e0       	ldi	r24, 0x01	; 1
     754:	90 e0       	ldi	r25, 0x00	; 0
     756:	0e 94 e3 08 	call	0x11c6	; 0x11c6 <timer_get>
     75a:	89 2b       	or	r24, r25
     75c:	99 f4       	brne	.+38     	; 0x784 <ZigbeeUsartTask+0x32>
		ZRMsendPing();
     75e:	0e 94 7c 0d 	call	0x1af8	; 0x1af8 <ZRMsendPing>
		zigbeeHWResetCount++;
     762:	80 91 04 01 	lds	r24, 0x0104
     766:	8f 5f       	subi	r24, 0xFF	; 255
     768:	80 93 04 01 	sts	0x0104, r24

		timer_clear(ON_ZIGBEE_PING_TIMER_ID);
     76c:	81 e0       	ldi	r24, 0x01	; 1
     76e:	90 e0       	ldi	r25, 0x00	; 0
     770:	0e 94 00 09 	call	0x1200	; 0x1200 <timer_clear>
		timer_set(ON_ZIGBEE_PING_TIMER_ID, 10000);
     774:	81 e0       	ldi	r24, 0x01	; 1
     776:	90 e0       	ldi	r25, 0x00	; 0
     778:	40 e1       	ldi	r20, 0x10	; 16
     77a:	57 e2       	ldi	r21, 0x27	; 39
     77c:	60 e0       	ldi	r22, 0x00	; 0
     77e:	70 e0       	ldi	r23, 0x00	; 0
     780:	0e 94 ce 08 	call	0x119c	; 0x119c <timer_set>
	}

	if (getState() > 1) {
     784:	0e 94 fd 0c 	call	0x19fa	; 0x19fa <getState>
     788:	82 30       	cpi	r24, 0x02	; 2
     78a:	30 f4       	brcc	.+12     	; 0x798 <ZigbeeUsartTask+0x46>
		zigbeeHWResetCount = 0;
	} else if (zigbeeHWResetCount > 5) {
     78c:	80 91 04 01 	lds	r24, 0x0104
     790:	86 30       	cpi	r24, 0x06	; 6
     792:	20 f0       	brcs	.+8      	; 0x79c <ZigbeeUsartTask+0x4a>
		resetZigbee();
     794:	0e 94 0c 03 	call	0x618	; 0x618 <resetZigbee>
		zigbeeHWResetCount = 0;
     798:	10 92 04 01 	sts	0x0104, r1
	}

	if ((Recvlen = xcps_recv_zigbee(SensorPacket, 64)) > 0) {
     79c:	8e e6       	ldi	r24, 0x6E	; 110
     79e:	92 e0       	ldi	r25, 0x02	; 2
     7a0:	60 e4       	ldi	r22, 0x40	; 64
     7a2:	70 e0       	ldi	r23, 0x00	; 0
     7a4:	0e 94 36 0c 	call	0x186c	; 0x186c <xcps_recv_zigbee>
     7a8:	ac 01       	movw	r20, r24
     7aa:	90 93 06 01 	sts	0x0106, r25
     7ae:	80 93 05 01 	sts	0x0105, r24
     7b2:	18 16       	cp	r1, r24
     7b4:	19 06       	cpc	r1, r25
     7b6:	0c f0       	brlt	.+2      	; 0x7ba <ZigbeeUsartTask+0x68>
     7b8:	92 c0       	rjmp	.+292    	; 0x8de <ZigbeeUsartTask+0x18c>
		uint8 buff_len = 0;
		uint16 Src_Addr;
		uint16 Dst_Addr;
		uint16 nodeId;

		switch (SensorPacket[0]) {
     7ba:	80 91 6e 02 	lds	r24, 0x026E
     7be:	88 23       	and	r24, r24
     7c0:	21 f0       	breq	.+8      	; 0x7ca <ZigbeeUsartTask+0x78>
     7c2:	80 31       	cpi	r24, 0x10	; 16
     7c4:	09 f0       	breq	.+2      	; 0x7c8 <ZigbeeUsartTask+0x76>
     7c6:	8b c0       	rjmp	.+278    	; 0x8de <ZigbeeUsartTask+0x18c>
     7c8:	08 c0       	rjmp	.+16     	; 0x7da <ZigbeeUsartTask+0x88>
		case 0x00: // Send to GMProtocols (Gateway <-> RFM)
			buff_len = (Recvlen - 1);
			ZRMPMessage(&SensorPacket[1], buff_len);
     7ca:	64 2f       	mov	r22, r20
     7cc:	61 50       	subi	r22, 0x01	; 1
     7ce:	8f e6       	ldi	r24, 0x6F	; 111
     7d0:	92 e0       	ldi	r25, 0x02	; 2
     7d2:	70 e0       	ldi	r23, 0x00	; 0
     7d4:	0e 94 d9 0d 	call	0x1bb2	; 0x1bb2 <ZRMPMessage>
     7d8:	08 95       	ret
			break;
		case 0x10:
			Dst_Addr = (uint16) (SensorPacket[1] << 8) | (SensorPacket[2]);
			Src_Addr = (uint16) (SensorPacket[3] << 8) | (SensorPacket[4]);
     7da:	20 91 71 02 	lds	r18, 0x0271
     7de:	30 91 72 02 	lds	r19, 0x0272

			buff_len = (Recvlen - 5);

			if (SensorPacket[5] == 0x80 && SensorPacket[6] == 0x01)
     7e2:	80 91 73 02 	lds	r24, 0x0273
     7e6:	80 38       	cpi	r24, 0x80	; 128
     7e8:	d1 f4       	brne	.+52     	; 0x81e <ZigbeeUsartTask+0xcc>
			buff_len = (Recvlen - 1);
			ZRMPMessage(&SensorPacket[1], buff_len);
			break;
		case 0x10:
			Dst_Addr = (uint16) (SensorPacket[1] << 8) | (SensorPacket[2]);
			Src_Addr = (uint16) (SensorPacket[3] << 8) | (SensorPacket[4]);
     7ea:	92 2f       	mov	r25, r18
     7ec:	80 e0       	ldi	r24, 0x00	; 0
     7ee:	23 2f       	mov	r18, r19
     7f0:	30 e0       	ldi	r19, 0x00	; 0
     7f2:	28 2b       	or	r18, r24
     7f4:	39 2b       	or	r19, r25

			buff_len = (Recvlen - 5);
     7f6:	45 50       	subi	r20, 0x05	; 5

			if (SensorPacket[5] == 0x80 && SensorPacket[6] == 0x01)
     7f8:	80 91 74 02 	lds	r24, 0x0274
     7fc:	81 30       	cpi	r24, 0x01	; 1
     7fe:	39 f4       	brne	.+14     	; 0x80e <ZigbeeUsartTask+0xbc>
				ncp_ProcessMessage(Src_Addr, &(SensorPacket[5]), buff_len);
     800:	c9 01       	movw	r24, r18
     802:	63 e7       	ldi	r22, 0x73	; 115
     804:	72 e0       	ldi	r23, 0x02	; 2
     806:	50 e0       	ldi	r21, 0x00	; 0
     808:	0e 94 1d 06 	call	0xc3a	; 0xc3a <ncp_ProcessMessage>
     80c:	08 c0       	rjmp	.+16     	; 0x81e <ZigbeeUsartTask+0xcc>
			else if (SensorPacket[5] == 0x80 && SensorPacket[6] == 0x90)
     80e:	80 39       	cpi	r24, 0x90	; 144
     810:	31 f4       	brne	.+12     	; 0x81e <ZigbeeUsartTask+0xcc>
				processNCP_TestDevice(Src_Addr, &(SensorPacket[5]), buff_len);
     812:	c9 01       	movw	r24, r18
     814:	63 e7       	ldi	r22, 0x73	; 115
     816:	72 e0       	ldi	r23, 0x02	; 2
     818:	50 e0       	ldi	r21, 0x00	; 0
     81a:	0e 94 b4 08 	call	0x1168	; 0x1168 <processNCP_TestDevice>

			if (SensorPacket[5] == 0x80 && SensorPacket[6] == 0x21
     81e:	80 91 73 02 	lds	r24, 0x0273
     822:	80 38       	cpi	r24, 0x80	; 128
     824:	09 f0       	breq	.+2      	; 0x828 <ZigbeeUsartTask+0xd6>
     826:	5b c0       	rjmp	.+182    	; 0x8de <ZigbeeUsartTask+0x18c>
     828:	80 91 74 02 	lds	r24, 0x0274
     82c:	81 32       	cpi	r24, 0x21	; 33
     82e:	09 f0       	breq	.+2      	; 0x832 <ZigbeeUsartTask+0xe0>
     830:	56 c0       	rjmp	.+172    	; 0x8de <ZigbeeUsartTask+0x18c>
     832:	80 91 7b 02 	lds	r24, 0x027B
     836:	80 37       	cpi	r24, 0x70	; 112
     838:	09 f0       	breq	.+2      	; 0x83c <ZigbeeUsartTask+0xea>
     83a:	51 c0       	rjmp	.+162    	; 0x8de <ZigbeeUsartTask+0x18c>
					&& SensorPacket[13] == 0x70) {
				dimmingLevel = 0xff;
     83c:	8f ef       	ldi	r24, 0xFF	; 255
     83e:	80 93 02 01 	sts	0x0102, r24
				if ((rotary_GetValue() & 0xf0) >= 0x10
     842:	0e 94 43 0e 	call	0x1c86	; 0x1c86 <rotary_GetValue>
     846:	90 e0       	ldi	r25, 0x00	; 0
     848:	80 7f       	andi	r24, 0xF0	; 240
     84a:	90 70       	andi	r25, 0x00	; 0
     84c:	40 97       	sbiw	r24, 0x10	; 16
     84e:	fc f0       	brlt	.+62     	; 0x88e <ZigbeeUsartTask+0x13c>
     850:	0e 94 43 0e 	call	0x1c86	; 0x1c86 <rotary_GetValue>
     854:	90 e0       	ldi	r25, 0x00	; 0
     856:	80 7f       	andi	r24, 0xF0	; 240
     858:	90 70       	andi	r25, 0x00	; 0
     85a:	81 3a       	cpi	r24, 0xA1	; 161
     85c:	91 05       	cpc	r25, r1
     85e:	bc f4       	brge	.+46     	; 0x88e <ZigbeeUsartTask+0x13c>
						&& (rotary_GetValue() & 0xf0) <= 0xA0)
					timer_set(ON_DIMMING_CONTROL_TIMER_ID,
     860:	0e 94 43 0e 	call	0x1c86	; 0x1c86 <rotary_GetValue>
     864:	82 95       	swap	r24
     866:	8f 70       	andi	r24, 0x0F	; 15
     868:	90 e0       	ldi	r25, 0x00	; 0
     86a:	20 e1       	ldi	r18, 0x10	; 16
     86c:	37 e2       	ldi	r19, 0x27	; 39
     86e:	82 9f       	mul	r24, r18
     870:	a0 01       	movw	r20, r0
     872:	83 9f       	mul	r24, r19
     874:	50 0d       	add	r21, r0
     876:	92 9f       	mul	r25, r18
     878:	50 0d       	add	r21, r0
     87a:	11 24       	eor	r1, r1
     87c:	66 27       	eor	r22, r22
     87e:	57 fd       	sbrc	r21, 7
     880:	60 95       	com	r22
     882:	76 2f       	mov	r23, r22
     884:	83 e0       	ldi	r24, 0x03	; 3
     886:	90 e0       	ldi	r25, 0x00	; 0
     888:	0e 94 ce 08 	call	0x119c	; 0x119c <timer_set>
     88c:	08 95       	ret
							((rotary_GetValue() & 0xf0) >> 4) * 10000);
				else if ((rotary_GetValue() & 0xf0) >= 0xB0
     88e:	0e 94 43 0e 	call	0x1c86	; 0x1c86 <rotary_GetValue>
     892:	90 e0       	ldi	r25, 0x00	; 0
     894:	80 7f       	andi	r24, 0xF0	; 240
     896:	90 70       	andi	r25, 0x00	; 0
     898:	80 3b       	cpi	r24, 0xB0	; 176
     89a:	91 05       	cpc	r25, r1
     89c:	04 f1       	brlt	.+64     	; 0x8de <ZigbeeUsartTask+0x18c>
     89e:	0e 94 43 0e 	call	0x1c86	; 0x1c86 <rotary_GetValue>
     8a2:	90 e0       	ldi	r25, 0x00	; 0
     8a4:	80 7f       	andi	r24, 0xF0	; 240
     8a6:	90 70       	andi	r25, 0x00	; 0
     8a8:	81 3e       	cpi	r24, 0xE1	; 225
     8aa:	91 05       	cpc	r25, r1
     8ac:	c4 f4       	brge	.+48     	; 0x8de <ZigbeeUsartTask+0x18c>
						&& (rotary_GetValue() & 0xf0) <= 0xE0)
					timer_set(ON_DIMMING_CONTROL_TIMER_ID,
     8ae:	0e 94 43 0e 	call	0x1c86	; 0x1c86 <rotary_GetValue>
     8b2:	82 95       	swap	r24
     8b4:	8f 70       	andi	r24, 0x0F	; 15
     8b6:	90 e0       	ldi	r25, 0x00	; 0
     8b8:	09 97       	sbiw	r24, 0x09	; 9
     8ba:	aa 27       	eor	r26, r26
     8bc:	97 fd       	sbrc	r25, 7
     8be:	a0 95       	com	r26
     8c0:	ba 2f       	mov	r27, r26
     8c2:	bc 01       	movw	r22, r24
     8c4:	cd 01       	movw	r24, r26
     8c6:	20 e6       	ldi	r18, 0x60	; 96
     8c8:	3a ee       	ldi	r19, 0xEA	; 234
     8ca:	40 e0       	ldi	r20, 0x00	; 0
     8cc:	50 e0       	ldi	r21, 0x00	; 0
     8ce:	0e 94 4b 0e 	call	0x1c96	; 0x1c96 <__mulsi3>
     8d2:	ab 01       	movw	r20, r22
     8d4:	bc 01       	movw	r22, r24
     8d6:	83 e0       	ldi	r24, 0x03	; 3
     8d8:	90 e0       	ldi	r25, 0x00	; 0
     8da:	0e 94 ce 08 	call	0x119c	; 0x119c <timer_set>
     8de:	08 95       	ret

000008e0 <main>:
}

//-----------------------------------------------------------------------------
// Main function
//-----------------------------------------------------------------------------
int main(void) {
     8e0:	1f 93       	push	r17

	InitMCU();
     8e2:	0e 94 fa 02 	call	0x5f4	; 0x5f4 <InitMCU>
	initRotary();
     8e6:	0e 94 36 0e 	call	0x1c6c	; 0x1c6c <initRotary>
	InitUART();
     8ea:	0e 94 78 09 	call	0x12f0	; 0x12f0 <InitUART>
	timer_init();
     8ee:	0e 94 10 09 	call	0x1220	; 0x1220 <timer_init>
		timer_set(ON_ONTIME_TIMER_ID, 100);
	}
}

void WDT_INIT() {
	MCUCSR &= ~(1 << WDRF); // WatchDog Init(Low)
     8f2:	84 b7       	in	r24, 0x34	; 52
     8f4:	87 7f       	andi	r24, 0xF7	; 247
     8f6:	84 bf       	out	0x34, r24	; 52
	wdt_enable(WDTO_2S);
     8f8:	2f e0       	ldi	r18, 0x0F	; 15
     8fa:	88 e1       	ldi	r24, 0x18	; 24
     8fc:	90 e0       	ldi	r25, 0x00	; 0
     8fe:	0f b6       	in	r0, 0x3f	; 63
     900:	f8 94       	cli
     902:	a8 95       	wdr
     904:	81 bd       	out	0x21, r24	; 33
     906:	0f be       	out	0x3f, r0	; 63
     908:	21 bd       	out	0x21, r18	; 33
	 resetZigbee();
	 }
	 */
	WDT_INIT();

	initDeviceTable();
     90a:	0e 94 6f 00 	call	0xde	; 0xde <initDeviceTable>
//
// Always Inline Function
---------------------------------------------*/
void DMX512Init(unsigned int bMax)
{
	DMX512.Break = 0;
     90e:	10 92 ae 02 	sts	0x02AE, r1
	DMX512.Start = 0;
     912:	10 92 af 02 	sts	0x02AF, r1
	for(DMX512.Cnt = 0; DMX512.Cnt < DMX512SRAMSIZE; DMX512.Cnt++)
     916:	10 92 b1 02 	sts	0x02B1, r1
     91a:	10 92 b0 02 	sts	0x02B0, r1
     91e:	10 c0       	rjmp	.+32     	; 0x940 <main+0x60>
		DMX512.Data[DMX512.Cnt] = 0;
     920:	e0 91 b0 02 	lds	r30, 0x02B0
     924:	f0 91 b1 02 	lds	r31, 0x02B1
     928:	e2 55       	subi	r30, 0x52	; 82
     92a:	fd 4f       	sbci	r31, 0xFD	; 253
     92c:	16 82       	std	Z+6, r1	; 0x06
---------------------------------------------*/
void DMX512Init(unsigned int bMax)
{
	DMX512.Break = 0;
	DMX512.Start = 0;
	for(DMX512.Cnt = 0; DMX512.Cnt < DMX512SRAMSIZE; DMX512.Cnt++)
     92e:	80 91 b0 02 	lds	r24, 0x02B0
     932:	90 91 b1 02 	lds	r25, 0x02B1
     936:	01 96       	adiw	r24, 0x01	; 1
     938:	90 93 b1 02 	sts	0x02B1, r25
     93c:	80 93 b0 02 	sts	0x02B0, r24
     940:	80 91 b0 02 	lds	r24, 0x02B0
     944:	90 91 b1 02 	lds	r25, 0x02B1
     948:	80 97       	sbiw	r24, 0x20	; 32
     94a:	50 f3       	brcs	.-44     	; 0x920 <main+0x40>
		DMX512.Data[DMX512.Cnt] = 0;
	DMX512.Cnt = 0;
     94c:	10 92 b1 02 	sts	0x02B1, r1
     950:	10 92 b0 02 	sts	0x02B0, r1
	DMX512.Max = bMax;
     954:	80 e0       	ldi	r24, 0x00	; 0
     956:	92 e0       	ldi	r25, 0x02	; 2
     958:	90 93 b3 02 	sts	0x02B3, r25
     95c:	80 93 b2 02 	sts	0x02B2, r24
		{
			#undef BAUD
			#define BAUD DMX_BAUD
			#include <util/setbaud.h>			

			_UBRRH = UBRRH_VALUE;
     960:	10 92 98 00 	sts	0x0098, r1
			_UBRRL = UBRRL_VALUE;
     964:	93 e0       	ldi	r25, 0x03	; 3
     966:	90 93 99 00 	sts	0x0099, r25
	DMX512.Cnt = 0;
	DMX512.Max = bMax;
	_UBRR_VALUE();

	#ifdef UBRR1
		_UCSRA=0x00;
     96a:	10 92 9b 00 	sts	0x009B, r1
		_UCSRB=0x48;
     96e:	88 e4       	ldi	r24, 0x48	; 72
     970:	80 93 9a 00 	sts	0x009A, r24
		//_UCSRC=0x06;
		_UBRRH=0x00;
     974:	10 92 98 00 	sts	0x0098, r1
		_UBRRL=0x03;
     978:	90 93 99 00 	sts	0x0099, r25
	#endif

	asm("sei");     // Global enable interrupts
     97c:	78 94       	sei

	// initialize dmx driver
	DMX512Init(512);
	DMX512.Data[0] = 0xFF;
     97e:	1f ef       	ldi	r17, 0xFF	; 255
     980:	10 93 b4 02 	sts	0x02B4, r17
	//DMX512.Data[0] = 0x00;	

	DMX512Send();
     984:	0e 94 e0 02 	call	0x5c0	; 0x5c0 <DMX512Send>
	PORTC = 0x00;
     988:	15 ba       	out	0x15, r1	; 21

	TCCR1A = 0x00;
     98a:	1f bc       	out	0x2f, r1	; 47
	TCCR1B = 0x06;
     98c:	86 e0       	ldi	r24, 0x06	; 6
     98e:	8e bd       	out	0x2e, r24	; 46
	TCNT1H = 0xFF;
     990:	1d bd       	out	0x2d, r17	; 45
	TCNT1L = 0xFF;
     992:	1c bd       	out	0x2c, r17	; 44

	TIMSK |= 0x04;
     994:	87 b7       	in	r24, 0x37	; 55
     996:	84 60       	ori	r24, 0x04	; 4
     998:	87 bf       	out	0x37, r24	; 55

	ZRMSendSetPreconfig(0x13);
     99a:	83 e1       	ldi	r24, 0x13	; 19
     99c:	0e 94 1a 0d 	call	0x1a34	; 0x1a34 <ZRMSendSetPreconfig>
     9a0:	88 ee       	ldi	r24, 0xE8	; 232
     9a2:	93 e0       	ldi	r25, 0x03	; 3
     9a4:	20 e9       	ldi	r18, 0x90	; 144
     9a6:	31 e0       	ldi	r19, 0x01	; 1
     9a8:	f9 01       	movw	r30, r18
     9aa:	31 97       	sbiw	r30, 0x01	; 1
     9ac:	f1 f7       	brne	.-4      	; 0x9aa <main+0xca>
		{
			// wait 1/10 ms
			_delay_loop_2(((F_CPU) / 4e3) / 10);
			__ticks --;
     9ae:	01 97       	sbiw	r24, 0x01	; 1
		__ticks = 1;
	else if (__tmp > 65535)
	{
		//	__ticks = requested delay in 1/10 ms
		__ticks = (uint16_t) (__ms * 10.0);
		while(__ticks)
     9b0:	d9 f7       	brne	.-10     	; 0x9a8 <main+0xc8>
	MSLEEP(100);
	ZRMSendReset();
     9b2:	0e 94 58 0d 	call	0x1ab0	; 0x1ab0 <ZRMSendReset>
     9b6:	80 e1       	ldi	r24, 0x10	; 16
     9b8:	97 e2       	ldi	r25, 0x27	; 39
     9ba:	20 e9       	ldi	r18, 0x90	; 144
     9bc:	31 e0       	ldi	r19, 0x01	; 1
     9be:	f9 01       	movw	r30, r18
     9c0:	31 97       	sbiw	r30, 0x01	; 1
     9c2:	f1 f7       	brne	.-4      	; 0x9c0 <main+0xe0>
		{
			// wait 1/10 ms
			_delay_loop_2(((F_CPU) / 4e3) / 10);
			__ticks --;
     9c4:	01 97       	sbiw	r24, 0x01	; 1
		__ticks = 1;
	else if (__tmp > 65535)
	{
		//	__ticks = requested delay in 1/10 ms
		__ticks = (uint16_t) (__ms * 10.0);
		while(__ticks)
     9c6:	d9 f7       	brne	.-10     	; 0x9be <main+0xde>
	MSLEEP(1000);

	timer_set(ON_WTD_TIMER_ID, 500);
     9c8:	82 e0       	ldi	r24, 0x02	; 2
     9ca:	90 e0       	ldi	r25, 0x00	; 0
     9cc:	44 ef       	ldi	r20, 0xF4	; 244
     9ce:	51 e0       	ldi	r21, 0x01	; 1
     9d0:	60 e0       	ldi	r22, 0x00	; 0
     9d2:	70 e0       	ldi	r23, 0x00	; 0
     9d4:	0e 94 ce 08 	call	0x119c	; 0x119c <timer_set>
	timer_set(ON_TEST_TIMER_ID, 3000);
     9d8:	85 e0       	ldi	r24, 0x05	; 5
     9da:	90 e0       	ldi	r25, 0x00	; 0
     9dc:	48 eb       	ldi	r20, 0xB8	; 184
     9de:	5b e0       	ldi	r21, 0x0B	; 11
     9e0:	60 e0       	ldi	r22, 0x00	; 0
     9e2:	70 e0       	ldi	r23, 0x00	; 0
     9e4:	0e 94 ce 08 	call	0x119c	; 0x119c <timer_set>

	timer_set(ON_ZIGBEE_PING_TIMER_ID, 3000);
     9e8:	81 e0       	ldi	r24, 0x01	; 1
     9ea:	90 e0       	ldi	r25, 0x00	; 0
     9ec:	48 eb       	ldi	r20, 0xB8	; 184
     9ee:	5b e0       	ldi	r21, 0x0B	; 11
     9f0:	60 e0       	ldi	r22, 0x00	; 0
     9f2:	70 e0       	ldi	r23, 0x00	; 0
     9f4:	0e 94 ce 08 	call	0x119c	; 0x119c <timer_set>
	timer_set(ON_ONTIME_TIMER_ID, 100);
     9f8:	84 e0       	ldi	r24, 0x04	; 4
     9fa:	90 e0       	ldi	r25, 0x00	; 0
     9fc:	44 e6       	ldi	r20, 0x64	; 100
     9fe:	50 e0       	ldi	r21, 0x00	; 0
     a00:	60 e0       	ldi	r22, 0x00	; 0
     a02:	70 e0       	ldi	r23, 0x00	; 0
     a04:	0e 94 ce 08 	call	0x119c	; 0x119c <timer_set>

	tmp_zrmp.zrm_State = ZRM_INIT;
     a08:	10 92 15 08 	sts	0x0815, r1

	xcps_init_zigbee(USART0_Receive, USART0_Transmit);
     a0c:	8d e0       	ldi	r24, 0x0D	; 13
     a0e:	9a e0       	ldi	r25, 0x0A	; 10
     a10:	6b e2       	ldi	r22, 0x2B	; 43
     a12:	7a e0       	ldi	r23, 0x0A	; 10
     a14:	0e 94 33 0a 	call	0x1466	; 0x1466 <xcps_init_zigbee>

	while (1) {
		ledTask();
     a18:	0e 94 56 03 	call	0x6ac	; 0x6ac <ledTask>
		ZigbeeUsartTask();
     a1c:	0e 94 a9 03 	call	0x752	; 0x752 <ZigbeeUsartTask>
		dimmingControlTask();
     a20:	0e 94 25 03 	call	0x64a	; 0x64a <dimmingControlTask>
     a24:	f9 cf       	rjmp	.-14     	; 0xa18 <main+0x138>

00000a26 <plcs_GetNCPResMessage>:

	sendData(nwk_Addr, tmp_Buff, resultLen);
}

uint8 plcs_GetNCPResMessage(uint8 resultMsg[], uint16 destId, uint16 srcId,
		uint8 payload[], uint8 len, uint16 seqNum) {
     a26:	ef 92       	push	r14
     a28:	ff 92       	push	r15
     a2a:	0f 93       	push	r16
     a2c:	cf 93       	push	r28
     a2e:	df 93       	push	r29
     a30:	ec 01       	movw	r28, r24
	uint8 resultLen = 0;

	resultMsg[resultLen++] = NCP_PROTOCOL_ID;
     a32:	80 e8       	ldi	r24, 0x80	; 128
     a34:	88 83       	st	Y, r24
	resultMsg[resultLen++] = PLCS_NCP_PROTOCOL_ID;
     a36:	81 e0       	ldi	r24, 0x01	; 1
     a38:	89 83       	std	Y+1, r24	; 0x01
	resultMsg[resultLen++] = seqNum >> 8;
     a3a:	fa 82       	std	Y+2, r15	; 0x02
	resultMsg[resultLen++] = seqNum;
     a3c:	eb 82       	std	Y+3, r14	; 0x03
	resultMsg[resultLen++] = destId >> 8;
     a3e:	7c 83       	std	Y+4, r23	; 0x04
	resultMsg[resultLen++] = destId;
     a40:	6d 83       	std	Y+5, r22	; 0x05
	resultMsg[resultLen++] = srcId >> 8;
     a42:	5e 83       	std	Y+6, r21	; 0x06
	resultMsg[resultLen++] = srcId;
     a44:	4f 83       	std	Y+7, r20	; 0x07
     a46:	40 e0       	ldi	r20, 0x00	; 0
     a48:	50 e0       	ldi	r21, 0x00	; 0
	for (int i = 0; i < len; i++)
     a4a:	60 2f       	mov	r22, r16
     a4c:	70 e0       	ldi	r23, 0x00	; 0
     a4e:	0a c0       	rjmp	.+20     	; 0xa64 <plcs_GetNCPResMessage+0x3e>
		resultMsg[resultLen++] = payload[i];
     a50:	fe 01       	movw	r30, r28
     a52:	e8 0f       	add	r30, r24
     a54:	f1 1d       	adc	r31, r1
     a56:	d9 01       	movw	r26, r18
     a58:	a4 0f       	add	r26, r20
     a5a:	b5 1f       	adc	r27, r21
     a5c:	8c 91       	ld	r24, X
     a5e:	80 83       	st	Z, r24
	resultMsg[resultLen++] = seqNum;
	resultMsg[resultLen++] = destId >> 8;
	resultMsg[resultLen++] = destId;
	resultMsg[resultLen++] = srcId >> 8;
	resultMsg[resultLen++] = srcId;
	for (int i = 0; i < len; i++)
     a60:	4f 5f       	subi	r20, 0xFF	; 255
     a62:	5f 4f       	sbci	r21, 0xFF	; 255
     a64:	84 2f       	mov	r24, r20
     a66:	88 5f       	subi	r24, 0xF8	; 248
     a68:	46 17       	cp	r20, r22
     a6a:	57 07       	cpc	r21, r23
     a6c:	8c f3       	brlt	.-30     	; 0xa50 <plcs_GetNCPResMessage+0x2a>
		resultMsg[resultLen++] = payload[i];
	return resultLen;
}
     a6e:	80 2f       	mov	r24, r16
     a70:	88 5f       	subi	r24, 0xF8	; 248
     a72:	df 91       	pop	r29
     a74:	cf 91       	pop	r28
     a76:	0f 91       	pop	r16
     a78:	ff 90       	pop	r15
     a7a:	ef 90       	pop	r14
     a7c:	08 95       	ret

00000a7e <getSeqNumGenerator>:

uint16 seqNumGenerator = 0;
uint16 getSeqNumGenerator() {
	return seqNumGenerator++;
     a7e:	20 91 0a 01 	lds	r18, 0x010A
     a82:	30 91 0b 01 	lds	r19, 0x010B
     a86:	2f 5f       	subi	r18, 0xFF	; 255
     a88:	3f 4f       	sbci	r19, 0xFF	; 255
     a8a:	30 93 0b 01 	sts	0x010B, r19
     a8e:	20 93 0a 01 	sts	0x010A, r18
     a92:	21 50       	subi	r18, 0x01	; 1
     a94:	30 40       	sbci	r19, 0x00	; 0
}
     a96:	c9 01       	movw	r24, r18
     a98:	08 95       	ret

00000a9a <ncp_ConnState>:

uint8 ncp_ConnState() {
	return ncp_NetState;
}
     a9a:	80 91 08 01 	lds	r24, 0x0108
     a9e:	08 95       	ret

00000aa0 <ncp_SendRegisterRes>:
	 ncp_SendRegisterRes(seqNum, srcNetAddr, nodeId, deviceType, 0x0001);
	 }*/
}

void ncp_SendRegisterRes(uint16 seqNum, uint16 nwk_Addr, uint16 node_Id,
		uint16 deviceType, uint16 result) {
     aa0:	af 92       	push	r10
     aa2:	bf 92       	push	r11
     aa4:	cf 92       	push	r12
     aa6:	df 92       	push	r13
     aa8:	ef 92       	push	r14
     aaa:	ff 92       	push	r15
     aac:	0f 93       	push	r16
     aae:	1f 93       	push	r17
     ab0:	df 93       	push	r29
     ab2:	cf 93       	push	r28
     ab4:	cd b7       	in	r28, 0x3d	; 61
     ab6:	de b7       	in	r29, 0x3e	; 62
     ab8:	2a 97       	sbiw	r28, 0x0a	; 10
     aba:	0f b6       	in	r0, 0x3f	; 63
     abc:	f8 94       	cli
     abe:	de bf       	out	0x3e, r29	; 62
     ac0:	0f be       	out	0x3f, r0	; 63
     ac2:	cd bf       	out	0x3d, r28	; 61
     ac4:	7c 01       	movw	r14, r24
     ac6:	5b 01       	movw	r10, r22
	int len = 0;
	uint8 payload[10];
	uint8 resultLen = 0;

	payload[len++] = NCP_RES_REGISTER;
     ac8:	82 e1       	ldi	r24, 0x12	; 18
     aca:	89 83       	std	Y+1, r24	; 0x01
	payload[len++] = (uint8) (result >> 8);
     acc:	1a 83       	std	Y+2, r17	; 0x02
	payload[len++] = (uint8) (result);
     ace:	0b 83       	std	Y+3, r16	; 0x03
	payload[len++] = 0x00;
     ad0:	1c 82       	std	Y+4, r1	; 0x04
	payload[len++] = 0x1e;
     ad2:	8e e1       	ldi	r24, 0x1E	; 30
     ad4:	8d 83       	std	Y+5, r24	; 0x05

	resultLen = plcs_GetNCPResMessage(tmp_Buff, node_Id, 0, payload, len,
     ad6:	87 ed       	ldi	r24, 0xD7	; 215
     ad8:	c8 2e       	mov	r12, r24
     ada:	82 e0       	ldi	r24, 0x02	; 2
     adc:	d8 2e       	mov	r13, r24
     ade:	c6 01       	movw	r24, r12
     ae0:	ba 01       	movw	r22, r20
     ae2:	40 e0       	ldi	r20, 0x00	; 0
     ae4:	50 e0       	ldi	r21, 0x00	; 0
     ae6:	9e 01       	movw	r18, r28
     ae8:	2f 5f       	subi	r18, 0xFF	; 255
     aea:	3f 4f       	sbci	r19, 0xFF	; 255
     aec:	05 e0       	ldi	r16, 0x05	; 5
     aee:	0e 94 13 05 	call	0xa26	; 0xa26 <plcs_GetNCPResMessage>
     af2:	48 2f       	mov	r20, r24
			seqNum);

	sendData(nwk_Addr, tmp_Buff, resultLen);
     af4:	c5 01       	movw	r24, r10
     af6:	b6 01       	movw	r22, r12
     af8:	50 e0       	ldi	r21, 0x00	; 0
     afa:	0e 94 8b 0d 	call	0x1b16	; 0x1b16 <sendData>
}
     afe:	2a 96       	adiw	r28, 0x0a	; 10
     b00:	0f b6       	in	r0, 0x3f	; 63
     b02:	f8 94       	cli
     b04:	de bf       	out	0x3e, r29	; 62
     b06:	0f be       	out	0x3f, r0	; 63
     b08:	cd bf       	out	0x3d, r28	; 61
     b0a:	cf 91       	pop	r28
     b0c:	df 91       	pop	r29
     b0e:	1f 91       	pop	r17
     b10:	0f 91       	pop	r16
     b12:	ff 90       	pop	r15
     b14:	ef 90       	pop	r14
     b16:	df 90       	pop	r13
     b18:	cf 90       	pop	r12
     b1a:	bf 90       	pop	r11
     b1c:	af 90       	pop	r10
     b1e:	08 95       	ret

00000b20 <ncp_SendPingRes>:
	nodeId = (uint16) ((msg[6] << 8) | (msg[7]));

	ncp_SendPingRes(srcNetAddr, nodeId, 0, 0, 0x1e);
}

void ncp_SendPingRes(uint16 zigbee_addr, uint16 nodeId, uint16 device_Type, uint8 flag, uint8 timeOut){
     b20:	af 92       	push	r10
     b22:	bf 92       	push	r11
     b24:	cf 92       	push	r12
     b26:	df 92       	push	r13
     b28:	ef 92       	push	r14
     b2a:	ff 92       	push	r15
     b2c:	0f 93       	push	r16
     b2e:	df 93       	push	r29
     b30:	cf 93       	push	r28
     b32:	cd b7       	in	r28, 0x3d	; 61
     b34:	de b7       	in	r29, 0x3e	; 62
     b36:	2a 97       	sbiw	r28, 0x0a	; 10
     b38:	0f b6       	in	r0, 0x3f	; 63
     b3a:	f8 94       	cli
     b3c:	de bf       	out	0x3e, r29	; 62
     b3e:	0f be       	out	0x3f, r0	; 63
     b40:	cd bf       	out	0x3d, r28	; 61
     b42:	5c 01       	movw	r10, r24
	int len = 0;
	uint8 payload[10];
	uint8 resultLen = 0;
	uint8 result = 0;

	payload[len++] = NCP_RES_PING;
     b44:	82 e0       	ldi	r24, 0x02	; 2
     b46:	89 83       	std	Y+1, r24	; 0x01
	payload[len++] = 0x01;
     b48:	81 e0       	ldi	r24, 0x01	; 1
     b4a:	8a 83       	std	Y+2, r24	; 0x02
	payload[len++] = (uint8) (flag);
     b4c:	2b 83       	std	Y+3, r18	; 0x03
	payload[len++] = (uint8) (timeOut >> 8);
     b4e:	1c 82       	std	Y+4, r1	; 0x04
	payload[len++] = (uint8) (timeOut);
     b50:	0d 83       	std	Y+5, r16	; 0x05

	resultLen = plcs_GetNCPResMessage(tmp_Buff, nodeId, 0, payload,	len, 0);
     b52:	97 ed       	ldi	r25, 0xD7	; 215
     b54:	c9 2e       	mov	r12, r25
     b56:	92 e0       	ldi	r25, 0x02	; 2
     b58:	d9 2e       	mov	r13, r25
     b5a:	c6 01       	movw	r24, r12
     b5c:	40 e0       	ldi	r20, 0x00	; 0
     b5e:	50 e0       	ldi	r21, 0x00	; 0
     b60:	9e 01       	movw	r18, r28
     b62:	2f 5f       	subi	r18, 0xFF	; 255
     b64:	3f 4f       	sbci	r19, 0xFF	; 255
     b66:	05 e0       	ldi	r16, 0x05	; 5
     b68:	ee 24       	eor	r14, r14
     b6a:	ff 24       	eor	r15, r15
     b6c:	0e 94 13 05 	call	0xa26	; 0xa26 <plcs_GetNCPResMessage>
     b70:	48 2f       	mov	r20, r24

	sendData(zigbee_addr, tmp_Buff, resultLen);
     b72:	c5 01       	movw	r24, r10
     b74:	b6 01       	movw	r22, r12
     b76:	50 e0       	ldi	r21, 0x00	; 0
     b78:	0e 94 8b 0d 	call	0x1b16	; 0x1b16 <sendData>
}
     b7c:	2a 96       	adiw	r28, 0x0a	; 10
     b7e:	0f b6       	in	r0, 0x3f	; 63
     b80:	f8 94       	cli
     b82:	de bf       	out	0x3e, r29	; 62
     b84:	0f be       	out	0x3f, r0	; 63
     b86:	cd bf       	out	0x3d, r28	; 61
     b88:	cf 91       	pop	r28
     b8a:	df 91       	pop	r29
     b8c:	0f 91       	pop	r16
     b8e:	ff 90       	pop	r15
     b90:	ef 90       	pop	r14
     b92:	df 90       	pop	r13
     b94:	cf 90       	pop	r12
     b96:	bf 90       	pop	r11
     b98:	af 90       	pop	r10
     b9a:	08 95       	ret

00000b9c <ncp_ProcessPingReq>:
		ncp_ProcessRegisterReq(srcNetAddr, msg, length);
		break;
	}
}

void ncp_ProcessPingReq(uint16 srcNetAddr, uint8 msg[], int length) {
     b9c:	0f 93       	push	r16
     b9e:	1f 93       	push	r17
     ba0:	fb 01       	movw	r30, r22
	uint16 seqNum;

	//msg[8] = messageType
	nodeId = (uint16) ((msg[6] << 8) | (msg[7]));

	ncp_SendPingRes(srcNetAddr, nodeId, 0, 0, 0x1e);
     ba2:	76 81       	ldd	r23, Z+6	; 0x06
     ba4:	60 e0       	ldi	r22, 0x00	; 0
     ba6:	27 81       	ldd	r18, Z+7	; 0x07
     ba8:	30 e0       	ldi	r19, 0x00	; 0
     baa:	62 2b       	or	r22, r18
     bac:	73 2b       	or	r23, r19
     bae:	40 e0       	ldi	r20, 0x00	; 0
     bb0:	50 e0       	ldi	r21, 0x00	; 0
     bb2:	20 e0       	ldi	r18, 0x00	; 0
     bb4:	30 e0       	ldi	r19, 0x00	; 0
     bb6:	0e e1       	ldi	r16, 0x1E	; 30
     bb8:	10 e0       	ldi	r17, 0x00	; 0
     bba:	0e 94 90 05 	call	0xb20	; 0xb20 <ncp_SendPingRes>
}
     bbe:	1f 91       	pop	r17
     bc0:	0f 91       	pop	r16
     bc2:	08 95       	ret

00000bc4 <ncp_ProcessRegisterReq>:
	resultLen = plcs_GetNCPResMessage(tmp_Buff, nodeId, 0, payload,	len, 0);

	sendData(zigbee_addr, tmp_Buff, resultLen);
}

void ncp_ProcessRegisterReq(uint16 srcNetAddr, uint8 msg[], int length) {
     bc4:	8f 92       	push	r8
     bc6:	9f 92       	push	r9
     bc8:	af 92       	push	r10
     bca:	bf 92       	push	r11
     bcc:	cf 92       	push	r12
     bce:	df 92       	push	r13
     bd0:	ef 92       	push	r14
     bd2:	ff 92       	push	r15
     bd4:	0f 93       	push	r16
     bd6:	1f 93       	push	r17
     bd8:	5c 01       	movw	r10, r24
     bda:	fb 01       	movw	r30, r22
	uint16 seqNum;
	// Request Register

	//msg[8] == messageType
	seqNum = msg[2] << 8 | msg[3];
	nodeId = (uint16) ((msg[6] << 8) | (msg[7]));
     bdc:	96 81       	ldd	r25, Z+6	; 0x06
     bde:	80 e0       	ldi	r24, 0x00	; 0
     be0:	c7 80       	ldd	r12, Z+7	; 0x07
     be2:	dd 24       	eor	r13, r13
     be4:	c8 2a       	or	r12, r24
     be6:	d9 2a       	or	r13, r25
	deviceType = (uint16) ((msg[9] << 8) | (msg[10]));
     be8:	91 85       	ldd	r25, Z+9	; 0x09
     bea:	80 e0       	ldi	r24, 0x00	; 0
     bec:	e2 84       	ldd	r14, Z+10	; 0x0a
     bee:	ff 24       	eor	r15, r15
     bf0:	e8 2a       	or	r14, r24
     bf2:	f9 2a       	or	r15, r25
	deviceVersion = (uint8) msg[11];
     bf4:	93 84       	ldd	r9, Z+11	; 0x0b
	fwVersion = (uint8) msg[12];
     bf6:	84 84       	ldd	r8, Z+12	; 0x0c

	ncp_SendRegisterRes(seqNum, srcNetAddr, nodeId, deviceType, 0x0000);
     bf8:	92 81       	ldd	r25, Z+2	; 0x02
     bfa:	80 e0       	ldi	r24, 0x00	; 0
     bfc:	23 81       	ldd	r18, Z+3	; 0x03
     bfe:	30 e0       	ldi	r19, 0x00	; 0
     c00:	82 2b       	or	r24, r18
     c02:	93 2b       	or	r25, r19
     c04:	b5 01       	movw	r22, r10
     c06:	a6 01       	movw	r20, r12
     c08:	97 01       	movw	r18, r14
     c0a:	00 e0       	ldi	r16, 0x00	; 0
     c0c:	10 e0       	ldi	r17, 0x00	; 0
     c0e:	0e 94 50 05 	call	0xaa0	; 0xaa0 <ncp_SendRegisterRes>
	updateDeviceTable(nodeId, srcNetAddr, deviceType, deviceVersion, fwVersion);
     c12:	c6 01       	movw	r24, r12
     c14:	b5 01       	movw	r22, r10
     c16:	a7 01       	movw	r20, r14
     c18:	29 2d       	mov	r18, r9
     c1a:	30 e0       	ldi	r19, 0x00	; 0
     c1c:	08 2d       	mov	r16, r8
     c1e:	10 e0       	ldi	r17, 0x00	; 0
     c20:	0e 94 11 01 	call	0x222	; 0x222 <updateDeviceTable>
	 ncp_SendRegisterRes(seqNum, srcNetAddr, nodeId, deviceType, 0x0000);
	 } else {
	 removeNode(nodeId);
	 ncp_SendRegisterRes(seqNum, srcNetAddr, nodeId, deviceType, 0x0001);
	 }*/
}
     c24:	1f 91       	pop	r17
     c26:	0f 91       	pop	r16
     c28:	ff 90       	pop	r15
     c2a:	ef 90       	pop	r14
     c2c:	df 90       	pop	r13
     c2e:	cf 90       	pop	r12
     c30:	bf 90       	pop	r11
     c32:	af 90       	pop	r10
     c34:	9f 90       	pop	r9
     c36:	8f 90       	pop	r8
     c38:	08 95       	ret

00000c3a <ncp_ProcessMessage>:
uint8 pingCounter = 0;

uint8 tmp_Buff[64];
// --------------------------------------------------------------------------- //

void ncp_ProcessMessage(uint16 srcNetAddr, uint8 msg[], int length) {
     c3a:	fb 01       	movw	r30, r22
	switch (msg[8]) { // Msg Type of NCP
     c3c:	20 85       	ldd	r18, Z+8	; 0x08
     c3e:	21 30       	cpi	r18, 0x01	; 1
     c40:	19 f0       	breq	.+6      	; 0xc48 <ncp_ProcessMessage+0xe>
     c42:	21 31       	cpi	r18, 0x11	; 17
     c44:	31 f4       	brne	.+12     	; 0xc52 <ncp_ProcessMessage+0x18>
     c46:	03 c0       	rjmp	.+6      	; 0xc4e <ncp_ProcessMessage+0x14>
	case NCP_REQ_PING:
		ncp_ProcessPingReq(srcNetAddr, msg, length);
     c48:	0e 94 ce 05 	call	0xb9c	; 0xb9c <ncp_ProcessPingReq>
     c4c:	08 95       	ret
		break;
	case NCP_REQ_REGISTER:
		ncp_ProcessRegisterReq(srcNetAddr, msg, length);
     c4e:	0e 94 e2 05 	call	0xbc4	; 0xbc4 <ncp_ProcessRegisterReq>
     c52:	08 95       	ret

00000c54 <getSeqNumGeneratorForGCP>:
/////////////////////////////////////////////////////////////////////////////////////////////////////////
//Send
/////////////////////////////////////////////////////////////////////////////////////////////////////////
uint16 seqNumGeneratorForGCP = 0;
uint16 getSeqNumGeneratorForGCP() {
	return seqNumGeneratorForGCP++;
     c54:	20 91 0c 01 	lds	r18, 0x010C
     c58:	30 91 0d 01 	lds	r19, 0x010D
     c5c:	2f 5f       	subi	r18, 0xFF	; 255
     c5e:	3f 4f       	sbci	r19, 0xFF	; 255
     c60:	30 93 0d 01 	sts	0x010D, r19
     c64:	20 93 0c 01 	sts	0x010C, r18
     c68:	21 50       	subi	r18, 0x01	; 1
     c6a:	30 40       	sbci	r19, 0x00	; 0
}
     c6c:	c9 01       	movw	r24, r18
     c6e:	08 95       	ret

00000c70 <plcs_GetGCPMessage>:

uint8 plcs_GetGCPMessage(uint8 resultMsg[], uint16 destId, uint16 srcId,
		uint8 payload[], uint8 len) {
     c70:	ef 92       	push	r14
     c72:	ff 92       	push	r15
     c74:	0f 93       	push	r16
     c76:	cf 93       	push	r28
     c78:	df 93       	push	r29
     c7a:	ec 01       	movw	r28, r24
     c7c:	79 01       	movw	r14, r18
/////////////////////////////////////////////////////////////////////////////////////////////////////////
//Send
/////////////////////////////////////////////////////////////////////////////////////////////////////////
uint16 seqNumGeneratorForGCP = 0;
uint16 getSeqNumGeneratorForGCP() {
	return seqNumGeneratorForGCP++;
     c7e:	80 91 0c 01 	lds	r24, 0x010C
     c82:	90 91 0d 01 	lds	r25, 0x010D
     c86:	01 96       	adiw	r24, 0x01	; 1
     c88:	90 93 0d 01 	sts	0x010D, r25
     c8c:	80 93 0c 01 	sts	0x010C, r24
     c90:	01 97       	sbiw	r24, 0x01	; 1
uint8 plcs_GetGCPMessage(uint8 resultMsg[], uint16 destId, uint16 srcId,
		uint8 payload[], uint8 len) {
	uint8 resultLen = 0;
	uint16 seqNum = getSeqNumGeneratorForGCP();

	resultMsg[resultLen++] = NCP_PROTOCOL_ID;
     c92:	20 e8       	ldi	r18, 0x80	; 128
     c94:	28 83       	st	Y, r18
	resultMsg[resultLen++] = PLCS_GCP_PROTOCOL_ID;
     c96:	21 e2       	ldi	r18, 0x21	; 33
     c98:	29 83       	std	Y+1, r18	; 0x01
	resultMsg[resultLen++] = seqNum >> 8;
     c9a:	9a 83       	std	Y+2, r25	; 0x02
	resultMsg[resultLen++] = seqNum;
     c9c:	8b 83       	std	Y+3, r24	; 0x03
	resultMsg[resultLen++] = destId >> 8;
     c9e:	7c 83       	std	Y+4, r23	; 0x04
	resultMsg[resultLen++] = destId;
     ca0:	6d 83       	std	Y+5, r22	; 0x05
	resultMsg[resultLen++] = srcId >> 8;
     ca2:	5e 83       	std	Y+6, r21	; 0x06
	resultMsg[resultLen++] = srcId;
     ca4:	4f 83       	std	Y+7, r20	; 0x07
     ca6:	40 e0       	ldi	r20, 0x00	; 0
     ca8:	50 e0       	ldi	r21, 0x00	; 0
	for (int i = 0; i < len; i++)
     caa:	60 2f       	mov	r22, r16
     cac:	70 e0       	ldi	r23, 0x00	; 0
     cae:	0a c0       	rjmp	.+20     	; 0xcc4 <plcs_GetGCPMessage+0x54>
		resultMsg[resultLen++] = payload[i];
     cb0:	fe 01       	movw	r30, r28
     cb2:	e8 0f       	add	r30, r24
     cb4:	f1 1d       	adc	r31, r1
     cb6:	d7 01       	movw	r26, r14
     cb8:	a4 0f       	add	r26, r20
     cba:	b5 1f       	adc	r27, r21
     cbc:	8c 91       	ld	r24, X
     cbe:	80 83       	st	Z, r24
	resultMsg[resultLen++] = seqNum;
	resultMsg[resultLen++] = destId >> 8;
	resultMsg[resultLen++] = destId;
	resultMsg[resultLen++] = srcId >> 8;
	resultMsg[resultLen++] = srcId;
	for (int i = 0; i < len; i++)
     cc0:	4f 5f       	subi	r20, 0xFF	; 255
     cc2:	5f 4f       	sbci	r21, 0xFF	; 255
     cc4:	84 2f       	mov	r24, r20
     cc6:	88 5f       	subi	r24, 0xF8	; 248
     cc8:	46 17       	cp	r20, r22
     cca:	57 07       	cpc	r21, r23
     ccc:	8c f3       	brlt	.-30     	; 0xcb0 <plcs_GetGCPMessage+0x40>
		resultMsg[resultLen++] = payload[i];
	return resultLen;
}
     cce:	80 2f       	mov	r24, r16
     cd0:	88 5f       	subi	r24, 0xF8	; 248
     cd2:	df 91       	pop	r29
     cd4:	cf 91       	pop	r28
     cd6:	0f 91       	pop	r16
     cd8:	ff 90       	pop	r15
     cda:	ef 90       	pop	r14
     cdc:	08 95       	ret

00000cde <plcs_GetGCPResMessage>:

uint8 plcs_GetGCPResMessage(uint8 resultMsg[], uint16 destId, uint16 srcId,
		uint8 payload[], uint8 len, uint16 seqNum) {
     cde:	ef 92       	push	r14
     ce0:	ff 92       	push	r15
     ce2:	0f 93       	push	r16
     ce4:	cf 93       	push	r28
     ce6:	df 93       	push	r29
     ce8:	ec 01       	movw	r28, r24
	uint8 resultLen = 0;

	resultMsg[resultLen++] = NCP_PROTOCOL_ID;
     cea:	80 e8       	ldi	r24, 0x80	; 128
     cec:	88 83       	st	Y, r24
	resultMsg[resultLen++] = PLCS_GCP_PROTOCOL_ID;
     cee:	81 e2       	ldi	r24, 0x21	; 33
     cf0:	89 83       	std	Y+1, r24	; 0x01
	resultMsg[resultLen++] = seqNum>>8;
     cf2:	fa 82       	std	Y+2, r15	; 0x02
	resultMsg[resultLen++] = seqNum;
     cf4:	eb 82       	std	Y+3, r14	; 0x03
	resultMsg[resultLen++] = destId >> 8;
     cf6:	7c 83       	std	Y+4, r23	; 0x04
	resultMsg[resultLen++] = destId;
     cf8:	6d 83       	std	Y+5, r22	; 0x05
	resultMsg[resultLen++] = srcId >> 8;
     cfa:	5e 83       	std	Y+6, r21	; 0x06
	resultMsg[resultLen++] = srcId;
     cfc:	4f 83       	std	Y+7, r20	; 0x07
     cfe:	40 e0       	ldi	r20, 0x00	; 0
     d00:	50 e0       	ldi	r21, 0x00	; 0
	for (int i = 0; i < len; i++)
     d02:	60 2f       	mov	r22, r16
     d04:	70 e0       	ldi	r23, 0x00	; 0
     d06:	0a c0       	rjmp	.+20     	; 0xd1c <plcs_GetGCPResMessage+0x3e>
		resultMsg[resultLen++] = payload[i];
     d08:	fe 01       	movw	r30, r28
     d0a:	e8 0f       	add	r30, r24
     d0c:	f1 1d       	adc	r31, r1
     d0e:	d9 01       	movw	r26, r18
     d10:	a4 0f       	add	r26, r20
     d12:	b5 1f       	adc	r27, r21
     d14:	8c 91       	ld	r24, X
     d16:	80 83       	st	Z, r24
	resultMsg[resultLen++] = seqNum;
	resultMsg[resultLen++] = destId >> 8;
	resultMsg[resultLen++] = destId;
	resultMsg[resultLen++] = srcId >> 8;
	resultMsg[resultLen++] = srcId;
	for (int i = 0; i < len; i++)
     d18:	4f 5f       	subi	r20, 0xFF	; 255
     d1a:	5f 4f       	sbci	r21, 0xFF	; 255
     d1c:	84 2f       	mov	r24, r20
     d1e:	88 5f       	subi	r24, 0xF8	; 248
     d20:	46 17       	cp	r20, r22
     d22:	57 07       	cpc	r21, r23
     d24:	8c f3       	brlt	.-30     	; 0xd08 <plcs_GetGCPResMessage+0x2a>
		resultMsg[resultLen++] = payload[i];
	return resultLen;
}
     d26:	80 2f       	mov	r24, r16
     d28:	88 5f       	subi	r24, 0xF8	; 248
     d2a:	df 91       	pop	r29
     d2c:	cf 91       	pop	r28
     d2e:	0f 91       	pop	r16
     d30:	ff 90       	pop	r15
     d32:	ef 90       	pop	r14
     d34:	08 95       	ret

00000d36 <getSeqNumGeneratorForTCP>:
	sendData(device_P->nwkAddr, tmp_Buff, resultLen);
}

uint8 getSeqNumGeneratorForTCP() {
	static uint8 seqNumGeneratorForTCP = 0;
	return seqNumGeneratorForTCP++;
     d36:	80 91 0e 01 	lds	r24, 0x010E
     d3a:	8f 5f       	subi	r24, 0xFF	; 255
     d3c:	80 93 0e 01 	sts	0x010E, r24
     d40:	81 50       	subi	r24, 0x01	; 1
}
     d42:	08 95       	ret

00000d44 <plcs_GetTCPMessage>:

uint8 plcs_GetTCPMessage(uint8 resultMsg[], uint16 destId, uint16 srcId,
		uint8 payload[], uint8 len) {
     d44:	0f 93       	push	r16
     d46:	cf 93       	push	r28
     d48:	df 93       	push	r29
     d4a:	ec 01       	movw	r28, r24
	uint8 resultLen = 0;

	resultMsg[resultLen++] = NCP_PROTOCOL_ID;
     d4c:	80 e8       	ldi	r24, 0x80	; 128
     d4e:	88 83       	st	Y, r24
	resultMsg[resultLen++] = TEST_DEVICE_PROTOCOL_ID;
     d50:	80 e9       	ldi	r24, 0x90	; 144
     d52:	89 83       	std	Y+1, r24	; 0x01
	sendData(device_P->nwkAddr, tmp_Buff, resultLen);
}

uint8 getSeqNumGeneratorForTCP() {
	static uint8 seqNumGeneratorForTCP = 0;
	return seqNumGeneratorForTCP++;
     d54:	80 91 0e 01 	lds	r24, 0x010E
     d58:	8f 5f       	subi	r24, 0xFF	; 255
     d5a:	80 93 0e 01 	sts	0x010E, r24
     d5e:	81 50       	subi	r24, 0x01	; 1
		uint8 payload[], uint8 len) {
	uint8 resultLen = 0;

	resultMsg[resultLen++] = NCP_PROTOCOL_ID;
	resultMsg[resultLen++] = TEST_DEVICE_PROTOCOL_ID;
	resultMsg[resultLen++] = getSeqNumGeneratorForTCP();
     d60:	8a 83       	std	Y+2, r24	; 0x02
	resultMsg[resultLen++] = destId >> 8;
     d62:	7b 83       	std	Y+3, r23	; 0x03
	resultMsg[resultLen++] = destId;
     d64:	6c 83       	std	Y+4, r22	; 0x04
	resultMsg[resultLen++] = srcId >> 8;
     d66:	5d 83       	std	Y+5, r21	; 0x05
	resultMsg[resultLen++] = srcId;
     d68:	4e 83       	std	Y+6, r20	; 0x06
     d6a:	40 e0       	ldi	r20, 0x00	; 0
     d6c:	50 e0       	ldi	r21, 0x00	; 0
	for (int i = 0; i < len; i++)
     d6e:	60 2f       	mov	r22, r16
     d70:	70 e0       	ldi	r23, 0x00	; 0
     d72:	0a c0       	rjmp	.+20     	; 0xd88 <plcs_GetTCPMessage+0x44>
		resultMsg[resultLen++] = payload[i];
     d74:	fe 01       	movw	r30, r28
     d76:	e8 0f       	add	r30, r24
     d78:	f1 1d       	adc	r31, r1
     d7a:	d9 01       	movw	r26, r18
     d7c:	a4 0f       	add	r26, r20
     d7e:	b5 1f       	adc	r27, r21
     d80:	8c 91       	ld	r24, X
     d82:	80 83       	st	Z, r24
	resultMsg[resultLen++] = getSeqNumGeneratorForTCP();
	resultMsg[resultLen++] = destId >> 8;
	resultMsg[resultLen++] = destId;
	resultMsg[resultLen++] = srcId >> 8;
	resultMsg[resultLen++] = srcId;
	for (int i = 0; i < len; i++)
     d84:	4f 5f       	subi	r20, 0xFF	; 255
     d86:	5f 4f       	sbci	r21, 0xFF	; 255
     d88:	84 2f       	mov	r24, r20
     d8a:	89 5f       	subi	r24, 0xF9	; 249
     d8c:	46 17       	cp	r20, r22
     d8e:	57 07       	cpc	r21, r23
     d90:	8c f3       	brlt	.-30     	; 0xd74 <plcs_GetTCPMessage+0x30>
		resultMsg[resultLen++] = payload[i];
	return resultLen;
}
     d92:	80 2f       	mov	r24, r16
     d94:	89 5f       	subi	r24, 0xF9	; 249
     d96:	df 91       	pop	r29
     d98:	cf 91       	pop	r28
     d9a:	0f 91       	pop	r16
     d9c:	08 95       	ret

00000d9e <plcs_GetTCPResMessage>:

uint8 plcs_GetTCPResMessage(uint8 resultMsg[], uint16 destId, uint16 srcId,
		uint8 payload[], uint8 len, uint16 seqNum) {
     d9e:	ef 92       	push	r14
     da0:	ff 92       	push	r15
     da2:	0f 93       	push	r16
     da4:	cf 93       	push	r28
     da6:	df 93       	push	r29
     da8:	ec 01       	movw	r28, r24
	uint8 resultLen = 0;

	resultMsg[resultLen++] = NCP_PROTOCOL_ID;
     daa:	80 e8       	ldi	r24, 0x80	; 128
     dac:	88 83       	st	Y, r24
	resultMsg[resultLen++] = TEST_DEVICE_PROTOCOL_ID;
     dae:	80 e9       	ldi	r24, 0x90	; 144
     db0:	89 83       	std	Y+1, r24	; 0x01
	resultMsg[resultLen++] = seqNum >> 8;
     db2:	fa 82       	std	Y+2, r15	; 0x02
	resultMsg[resultLen++] = seqNum;
     db4:	eb 82       	std	Y+3, r14	; 0x03
	resultMsg[resultLen++] = destId >> 8;
     db6:	7c 83       	std	Y+4, r23	; 0x04
	resultMsg[resultLen++] = destId;
     db8:	6d 83       	std	Y+5, r22	; 0x05
	resultMsg[resultLen++] = srcId >> 8;
     dba:	5e 83       	std	Y+6, r21	; 0x06
	resultMsg[resultLen++] = srcId;
     dbc:	4f 83       	std	Y+7, r20	; 0x07
     dbe:	40 e0       	ldi	r20, 0x00	; 0
     dc0:	50 e0       	ldi	r21, 0x00	; 0
	for (int i = 0; i < len; i++)
     dc2:	60 2f       	mov	r22, r16
     dc4:	70 e0       	ldi	r23, 0x00	; 0
     dc6:	0a c0       	rjmp	.+20     	; 0xddc <plcs_GetTCPResMessage+0x3e>
		resultMsg[resultLen++] = payload[i];
     dc8:	fe 01       	movw	r30, r28
     dca:	e8 0f       	add	r30, r24
     dcc:	f1 1d       	adc	r31, r1
     dce:	d9 01       	movw	r26, r18
     dd0:	a4 0f       	add	r26, r20
     dd2:	b5 1f       	adc	r27, r21
     dd4:	8c 91       	ld	r24, X
     dd6:	80 83       	st	Z, r24
	resultMsg[resultLen++] = seqNum;
	resultMsg[resultLen++] = destId >> 8;
	resultMsg[resultLen++] = destId;
	resultMsg[resultLen++] = srcId >> 8;
	resultMsg[resultLen++] = srcId;
	for (int i = 0; i < len; i++)
     dd8:	4f 5f       	subi	r20, 0xFF	; 255
     dda:	5f 4f       	sbci	r21, 0xFF	; 255
     ddc:	84 2f       	mov	r24, r20
     dde:	88 5f       	subi	r24, 0xF8	; 248
     de0:	46 17       	cp	r20, r22
     de2:	57 07       	cpc	r21, r23
     de4:	8c f3       	brlt	.-30     	; 0xdc8 <plcs_GetTCPResMessage+0x2a>
		resultMsg[resultLen++] = payload[i];
	return resultLen;
}
     de6:	80 2f       	mov	r24, r16
     de8:	88 5f       	subi	r24, 0xF8	; 248
     dea:	df 91       	pop	r29
     dec:	cf 91       	pop	r28
     dee:	0f 91       	pop	r16
     df0:	ff 90       	pop	r15
     df2:	ef 90       	pop	r14
     df4:	08 95       	ret

00000df6 <TestDevice_SensorLevel_Res>:
			payload, len, seqNum);

	sendData(device_P->nwkAddr, tmp_Buff, resultLen);

}
void TestDevice_SensorLevel_Res(uint16 seqNum, uint16 nodeId, uint8 result) {
     df6:	cf 92       	push	r12
     df8:	df 92       	push	r13
     dfa:	ef 92       	push	r14
     dfc:	ff 92       	push	r15
     dfe:	0f 93       	push	r16
     e00:	1f 93       	push	r17
     e02:	df 93       	push	r29
     e04:	cf 93       	push	r28
     e06:	cd b7       	in	r28, 0x3d	; 61
     e08:	de b7       	in	r29, 0x3e	; 62
     e0a:	2a 97       	sbiw	r28, 0x0a	; 10
     e0c:	0f b6       	in	r0, 0x3f	; 63
     e0e:	f8 94       	cli
     e10:	de bf       	out	0x3e, r29	; 62
     e12:	0f be       	out	0x3f, r0	; 63
     e14:	cd bf       	out	0x3d, r28	; 61
     e16:	7c 01       	movw	r14, r24
     e18:	8b 01       	movw	r16, r22
	uint8 payload[10];
	int len = 0;
	uint8 resultLen;
	device_Info *device_P;

	payload[len++] = TEST_DEVICE_SENSOR_LEVEL_RES;
     e1a:	81 e4       	ldi	r24, 0x41	; 65
     e1c:	89 83       	std	Y+1, r24	; 0x01
	payload[len++] = (uint8) (nodeId >> 8);
     e1e:	1a 83       	std	Y+2, r17	; 0x02
	payload[len++] = (uint8) (nodeId);
     e20:	6b 83       	std	Y+3, r22	; 0x03
	payload[len++] = (uint8) result;
     e22:	4c 83       	std	Y+4, r20	; 0x04

	device_P = findNodeById(nodeId);
     e24:	cb 01       	movw	r24, r22
     e26:	0e 94 72 00 	call	0xe4	; 0xe4 <findNodeById>
     e2a:	6c 01       	movw	r12, r24
	if (device_P == NULL)
     e2c:	00 97       	sbiw	r24, 0x00	; 0
     e2e:	a1 f0       	breq	.+40     	; 0xe58 <TestDevice_SensorLevel_Res+0x62>
		return;

	resultLen = plcs_GetTCPResMessage(tmp_Buff, nodeId, 0,
     e30:	87 ed       	ldi	r24, 0xD7	; 215
     e32:	92 e0       	ldi	r25, 0x02	; 2
     e34:	b8 01       	movw	r22, r16
     e36:	40 e0       	ldi	r20, 0x00	; 0
     e38:	50 e0       	ldi	r21, 0x00	; 0
     e3a:	9e 01       	movw	r18, r28
     e3c:	2f 5f       	subi	r18, 0xFF	; 255
     e3e:	3f 4f       	sbci	r19, 0xFF	; 255
     e40:	04 e0       	ldi	r16, 0x04	; 4
     e42:	0e 94 cf 06 	call	0xd9e	; 0xd9e <plcs_GetTCPResMessage>
     e46:	48 2f       	mov	r20, r24
			payload, len, seqNum);

	sendData(device_P->nwkAddr, tmp_Buff, resultLen);
     e48:	f6 01       	movw	r30, r12
     e4a:	80 81       	ld	r24, Z
     e4c:	91 81       	ldd	r25, Z+1	; 0x01
     e4e:	67 ed       	ldi	r22, 0xD7	; 215
     e50:	72 e0       	ldi	r23, 0x02	; 2
     e52:	50 e0       	ldi	r21, 0x00	; 0
     e54:	0e 94 8b 0d 	call	0x1b16	; 0x1b16 <sendData>
}
     e58:	2a 96       	adiw	r28, 0x0a	; 10
     e5a:	0f b6       	in	r0, 0x3f	; 63
     e5c:	f8 94       	cli
     e5e:	de bf       	out	0x3e, r29	; 62
     e60:	0f be       	out	0x3f, r0	; 63
     e62:	cd bf       	out	0x3d, r28	; 61
     e64:	cf 91       	pop	r28
     e66:	df 91       	pop	r29
     e68:	1f 91       	pop	r17
     e6a:	0f 91       	pop	r16
     e6c:	ff 90       	pop	r15
     e6e:	ef 90       	pop	r14
     e70:	df 90       	pop	r13
     e72:	cf 90       	pop	r12
     e74:	08 95       	ret

00000e76 <TestDevice_DeviceInfo_Res>:

	sendData(device_P->nwkAddr, tmp_Buff, resultLen);
}

void TestDevice_DeviceInfo_Res(uint16 seqNum, uint16 nodeId, uint16 deviceId,
		uint16 type, uint8 version) {
     e76:	af 92       	push	r10
     e78:	bf 92       	push	r11
     e7a:	cf 92       	push	r12
     e7c:	df 92       	push	r13
     e7e:	ef 92       	push	r14
     e80:	ff 92       	push	r15
     e82:	0f 93       	push	r16
     e84:	df 93       	push	r29
     e86:	cf 93       	push	r28
     e88:	cd b7       	in	r28, 0x3d	; 61
     e8a:	de b7       	in	r29, 0x3e	; 62
     e8c:	2a 97       	sbiw	r28, 0x0a	; 10
     e8e:	0f b6       	in	r0, 0x3f	; 63
     e90:	f8 94       	cli
     e92:	de bf       	out	0x3e, r29	; 62
     e94:	0f be       	out	0x3f, r0	; 63
     e96:	cd bf       	out	0x3d, r28	; 61
     e98:	5c 01       	movw	r10, r24
     e9a:	7b 01       	movw	r14, r22
	uint8 payload[10];
	int len = 0;
	uint8 resultLen;
	device_Info *device_P;

	payload[len++] = TEST_DEVICE_LC_DEVICEINFO_RES;
     e9c:	83 e3       	ldi	r24, 0x33	; 51
     e9e:	89 83       	std	Y+1, r24	; 0x01
	payload[len++] = (uint8) (deviceId >> 8);
     ea0:	5a 83       	std	Y+2, r21	; 0x02
	payload[len++] = (uint8) deviceId;
     ea2:	4b 83       	std	Y+3, r20	; 0x03
	payload[len++] = (uint8) (type >> 8);
     ea4:	3c 83       	std	Y+4, r19	; 0x04
	payload[len++] = (uint8) type;
     ea6:	2d 83       	std	Y+5, r18	; 0x05
	payload[len++] = (uint8) version;
     ea8:	0e 83       	std	Y+6, r16	; 0x06

	device_P = findNodeById(nodeId);
     eaa:	cb 01       	movw	r24, r22
     eac:	0e 94 72 00 	call	0xe4	; 0xe4 <findNodeById>
     eb0:	6c 01       	movw	r12, r24
	if (device_P == NULL)
     eb2:	00 97       	sbiw	r24, 0x00	; 0
     eb4:	a9 f0       	breq	.+42     	; 0xee0 <TestDevice_DeviceInfo_Res+0x6a>
		return;

	resultLen = plcs_GetTCPResMessage(tmp_Buff, nodeId, 0,
     eb6:	87 ed       	ldi	r24, 0xD7	; 215
     eb8:	92 e0       	ldi	r25, 0x02	; 2
     eba:	b7 01       	movw	r22, r14
     ebc:	40 e0       	ldi	r20, 0x00	; 0
     ebe:	50 e0       	ldi	r21, 0x00	; 0
     ec0:	9e 01       	movw	r18, r28
     ec2:	2f 5f       	subi	r18, 0xFF	; 255
     ec4:	3f 4f       	sbci	r19, 0xFF	; 255
     ec6:	06 e0       	ldi	r16, 0x06	; 6
     ec8:	75 01       	movw	r14, r10
     eca:	0e 94 cf 06 	call	0xd9e	; 0xd9e <plcs_GetTCPResMessage>
     ece:	48 2f       	mov	r20, r24
			payload, len, seqNum);

	sendData(device_P->nwkAddr, tmp_Buff, resultLen);
     ed0:	f6 01       	movw	r30, r12
     ed2:	80 81       	ld	r24, Z
     ed4:	91 81       	ldd	r25, Z+1	; 0x01
     ed6:	67 ed       	ldi	r22, 0xD7	; 215
     ed8:	72 e0       	ldi	r23, 0x02	; 2
     eda:	50 e0       	ldi	r21, 0x00	; 0
     edc:	0e 94 8b 0d 	call	0x1b16	; 0x1b16 <sendData>

}
     ee0:	2a 96       	adiw	r28, 0x0a	; 10
     ee2:	0f b6       	in	r0, 0x3f	; 63
     ee4:	f8 94       	cli
     ee6:	de bf       	out	0x3e, r29	; 62
     ee8:	0f be       	out	0x3f, r0	; 63
     eea:	cd bf       	out	0x3d, r28	; 61
     eec:	cf 91       	pop	r28
     eee:	df 91       	pop	r29
     ef0:	0f 91       	pop	r16
     ef2:	ff 90       	pop	r15
     ef4:	ef 90       	pop	r14
     ef6:	df 90       	pop	r13
     ef8:	cf 90       	pop	r12
     efa:	bf 90       	pop	r11
     efc:	af 90       	pop	r10
     efe:	08 95       	ret

00000f00 <processNCP_TestDevice_DeviceInfo_Req>:
	numOfDevice = deviceInfoTable.size;

	TestDevice_DeviceList_Size_Res(seqNum, nodeId, numOfDevice);
}
void processNCP_TestDevice_DeviceInfo_Req(uint16 srcNetAddr, uint8 msg[],
		int length) {
     f00:	0f 93       	push	r16
     f02:	fb 01       	movw	r30, r22
	uint16 deviceId = 0;
	uint16 deviceType = 0;
	uint8 deviceVersion = 0;
	device_Info *device_P;

	seqNum = msg[2] << 8 | msg[3];
     f04:	a3 81       	ldd	r26, Z+3	; 0x03
	nodeId = msg[6] << 8 | msg[7];
     f06:	26 81       	ldd	r18, Z+6	; 0x06
     f08:	97 81       	ldd	r25, Z+7	; 0x07
	index = msg[9];
     f0a:	e1 85       	ldd	r30, Z+9	; 0x09

	if (index >= deviceInfoTable.size)
     f0c:	80 91 6d 02 	lds	r24, 0x026D
     f10:	e8 17       	cp	r30, r24
     f12:	b8 f4       	brcc	.+46     	; 0xf42 <processNCP_TestDevice_DeviceInfo_Req+0x42>
		return;

	device_P = &(deviceInfoTable.deviceInfo[index]);
     f14:	f0 e0       	ldi	r31, 0x00	; 0
     f16:	83 e0       	ldi	r24, 0x03	; 3
     f18:	ee 0f       	add	r30, r30
     f1a:	ff 1f       	adc	r31, r31
     f1c:	8a 95       	dec	r24
     f1e:	e1 f7       	brne	.-8      	; 0xf18 <processNCP_TestDevice_DeviceInfo_Req+0x18>
     f20:	e3 5d       	subi	r30, 0xD3	; 211
     f22:	fe 4f       	sbci	r31, 0xFE	; 254
	deviceId = device_P->ieeeId;
	deviceType = device_P->deviceType;
	deviceVersion = device_P->fwVersion;

	TestDevice_DeviceInfo_Res(seqNum, nodeId, deviceId, deviceType,
     f24:	72 2f       	mov	r23, r18
     f26:	60 e0       	ldi	r22, 0x00	; 0
     f28:	89 2f       	mov	r24, r25
     f2a:	90 e0       	ldi	r25, 0x00	; 0
     f2c:	68 2b       	or	r22, r24
     f2e:	79 2b       	or	r23, r25
     f30:	44 81       	ldd	r20, Z+4	; 0x04
     f32:	55 81       	ldd	r21, Z+5	; 0x05
     f34:	22 81       	ldd	r18, Z+2	; 0x02
     f36:	33 81       	ldd	r19, Z+3	; 0x03
     f38:	8a 2f       	mov	r24, r26
     f3a:	90 e0       	ldi	r25, 0x00	; 0
     f3c:	07 81       	ldd	r16, Z+7	; 0x07
     f3e:	0e 94 3b 07 	call	0xe76	; 0xe76 <TestDevice_DeviceInfo_Res>
			deviceVersion);

}
     f42:	0f 91       	pop	r16
     f44:	08 95       	ret

00000f46 <TestDevice_DeviceList_Size_Res>:

	sendData(device_P->nwkAddr, tmp_Buff, resultLen);
}

void TestDevice_DeviceList_Size_Res(uint16 seqNum, uint16 nodeId,
		uint8 numOfDevice) {
     f46:	cf 92       	push	r12
     f48:	df 92       	push	r13
     f4a:	ef 92       	push	r14
     f4c:	ff 92       	push	r15
     f4e:	0f 93       	push	r16
     f50:	1f 93       	push	r17
     f52:	df 93       	push	r29
     f54:	cf 93       	push	r28
     f56:	cd b7       	in	r28, 0x3d	; 61
     f58:	de b7       	in	r29, 0x3e	; 62
     f5a:	2a 97       	sbiw	r28, 0x0a	; 10
     f5c:	0f b6       	in	r0, 0x3f	; 63
     f5e:	f8 94       	cli
     f60:	de bf       	out	0x3e, r29	; 62
     f62:	0f be       	out	0x3f, r0	; 63
     f64:	cd bf       	out	0x3d, r28	; 61
     f66:	7c 01       	movw	r14, r24
     f68:	8b 01       	movw	r16, r22
	uint8 payload[10];
	int len = 0;
	uint8 resultLen;
	device_Info *device_P;

	payload[len++] = TEST_DEVICE_LC_DEVICELIST_SIZE_RES;
     f6a:	81 e3       	ldi	r24, 0x31	; 49
     f6c:	89 83       	std	Y+1, r24	; 0x01
	payload[len++] = (uint8) numOfDevice;
     f6e:	4a 83       	std	Y+2, r20	; 0x02

	device_P = findNodeById(nodeId);
     f70:	cb 01       	movw	r24, r22
     f72:	0e 94 72 00 	call	0xe4	; 0xe4 <findNodeById>
     f76:	6c 01       	movw	r12, r24
	if (device_P == NULL)
     f78:	00 97       	sbiw	r24, 0x00	; 0
     f7a:	a1 f0       	breq	.+40     	; 0xfa4 <TestDevice_DeviceList_Size_Res+0x5e>
		return;

	resultLen = plcs_GetTCPResMessage(tmp_Buff, nodeId, 0,
     f7c:	87 ed       	ldi	r24, 0xD7	; 215
     f7e:	92 e0       	ldi	r25, 0x02	; 2
     f80:	b8 01       	movw	r22, r16
     f82:	40 e0       	ldi	r20, 0x00	; 0
     f84:	50 e0       	ldi	r21, 0x00	; 0
     f86:	9e 01       	movw	r18, r28
     f88:	2f 5f       	subi	r18, 0xFF	; 255
     f8a:	3f 4f       	sbci	r19, 0xFF	; 255
     f8c:	02 e0       	ldi	r16, 0x02	; 2
     f8e:	0e 94 cf 06 	call	0xd9e	; 0xd9e <plcs_GetTCPResMessage>
     f92:	48 2f       	mov	r20, r24
			payload, len, seqNum);

	sendData(device_P->nwkAddr, tmp_Buff, resultLen);
     f94:	f6 01       	movw	r30, r12
     f96:	80 81       	ld	r24, Z
     f98:	91 81       	ldd	r25, Z+1	; 0x01
     f9a:	67 ed       	ldi	r22, 0xD7	; 215
     f9c:	72 e0       	ldi	r23, 0x02	; 2
     f9e:	50 e0       	ldi	r21, 0x00	; 0
     fa0:	0e 94 8b 0d 	call	0x1b16	; 0x1b16 <sendData>
}
     fa4:	2a 96       	adiw	r28, 0x0a	; 10
     fa6:	0f b6       	in	r0, 0x3f	; 63
     fa8:	f8 94       	cli
     faa:	de bf       	out	0x3e, r29	; 62
     fac:	0f be       	out	0x3f, r0	; 63
     fae:	cd bf       	out	0x3d, r28	; 61
     fb0:	cf 91       	pop	r28
     fb2:	df 91       	pop	r29
     fb4:	1f 91       	pop	r17
     fb6:	0f 91       	pop	r16
     fb8:	ff 90       	pop	r15
     fba:	ef 90       	pop	r14
     fbc:	df 90       	pop	r13
     fbe:	cf 90       	pop	r12
     fc0:	08 95       	ret

00000fc2 <processNCP_TestDevice_DeviceList_Size_Req>:
	TestDevice_FirmwareVersion_Res(seqNum, nodeId, version);
}


void processNCP_TestDevice_DeviceList_Size_Req(uint16 srcNetAddr, uint8 msg[],
		int length) {
     fc2:	fb 01       	movw	r30, r22
	seqNum = msg[2] << 8 | msg[3];
	nodeId = msg[6] << 8 | msg[7];

	numOfDevice = deviceInfoTable.size;

	TestDevice_DeviceList_Size_Res(seqNum, nodeId, numOfDevice);
     fc4:	92 81       	ldd	r25, Z+2	; 0x02
     fc6:	80 e0       	ldi	r24, 0x00	; 0
     fc8:	43 81       	ldd	r20, Z+3	; 0x03
     fca:	50 e0       	ldi	r21, 0x00	; 0
     fcc:	76 81       	ldd	r23, Z+6	; 0x06
     fce:	60 e0       	ldi	r22, 0x00	; 0
     fd0:	27 81       	ldd	r18, Z+7	; 0x07
     fd2:	30 e0       	ldi	r19, 0x00	; 0
     fd4:	62 2b       	or	r22, r18
     fd6:	73 2b       	or	r23, r19
     fd8:	84 2b       	or	r24, r20
     fda:	95 2b       	or	r25, r21
     fdc:	40 91 6d 02 	lds	r20, 0x026D
     fe0:	0e 94 a3 07 	call	0xf46	; 0xf46 <TestDevice_DeviceList_Size_Res>
}
     fe4:	08 95       	ret

00000fe6 <TestDevice_FirmwareVersion_Res>:

////////////////////////////////////////////////////////////////////////////////////////////////////
//Send Function
////////////////////////////////////////////////////////////////////////////////////////////////////

void TestDevice_FirmwareVersion_Res(uint16 seqNum, uint16 nodeId, uint8 version) {
     fe6:	cf 92       	push	r12
     fe8:	df 92       	push	r13
     fea:	ef 92       	push	r14
     fec:	ff 92       	push	r15
     fee:	0f 93       	push	r16
     ff0:	df 93       	push	r29
     ff2:	cf 93       	push	r28
     ff4:	cd b7       	in	r28, 0x3d	; 61
     ff6:	de b7       	in	r29, 0x3e	; 62
     ff8:	2a 97       	sbiw	r28, 0x0a	; 10
     ffa:	0f b6       	in	r0, 0x3f	; 63
     ffc:	f8 94       	cli
     ffe:	de bf       	out	0x3e, r29	; 62
    1000:	0f be       	out	0x3f, r0	; 63
    1002:	cd bf       	out	0x3d, r28	; 61
    1004:	7c 01       	movw	r14, r24
    1006:	6b 01       	movw	r12, r22
	uint8 payload[10];
	int len = 0;
	uint8 resultLen = 0;
	device_Info *device_P;

	payload[len++] = TEST_DEVICE_LC_FIRMWARE_VERSION_RES;
    1008:	81 e2       	ldi	r24, 0x21	; 33
    100a:	89 83       	std	Y+1, r24	; 0x01
	payload[len++] = (uint8) version;
    100c:	4a 83       	std	Y+2, r20	; 0x02

	resultLen = plcs_GetTCPResMessage(tmp_Buff, nodeId, 0,
    100e:	87 ed       	ldi	r24, 0xD7	; 215
    1010:	92 e0       	ldi	r25, 0x02	; 2
    1012:	40 e0       	ldi	r20, 0x00	; 0
    1014:	50 e0       	ldi	r21, 0x00	; 0
    1016:	9e 01       	movw	r18, r28
    1018:	2f 5f       	subi	r18, 0xFF	; 255
    101a:	3f 4f       	sbci	r19, 0xFF	; 255
    101c:	02 e0       	ldi	r16, 0x02	; 2
    101e:	0e 94 cf 06 	call	0xd9e	; 0xd9e <plcs_GetTCPResMessage>
    1022:	08 2f       	mov	r16, r24
			payload, len, seqNum);

	device_P = findNodeById(nodeId);
    1024:	c6 01       	movw	r24, r12
    1026:	0e 94 72 00 	call	0xe4	; 0xe4 <findNodeById>
    102a:	fc 01       	movw	r30, r24
	if (device_P == NULL)
    102c:	00 97       	sbiw	r24, 0x00	; 0
    102e:	41 f0       	breq	.+16     	; 0x1040 <TestDevice_FirmwareVersion_Res+0x5a>
		return;

	sendData(device_P->nwkAddr, tmp_Buff, resultLen);
    1030:	80 81       	ld	r24, Z
    1032:	91 81       	ldd	r25, Z+1	; 0x01
    1034:	67 ed       	ldi	r22, 0xD7	; 215
    1036:	72 e0       	ldi	r23, 0x02	; 2
    1038:	40 2f       	mov	r20, r16
    103a:	50 e0       	ldi	r21, 0x00	; 0
    103c:	0e 94 8b 0d 	call	0x1b16	; 0x1b16 <sendData>
}
    1040:	2a 96       	adiw	r28, 0x0a	; 10
    1042:	0f b6       	in	r0, 0x3f	; 63
    1044:	f8 94       	cli
    1046:	de bf       	out	0x3e, r29	; 62
    1048:	0f be       	out	0x3f, r0	; 63
    104a:	cd bf       	out	0x3d, r28	; 61
    104c:	cf 91       	pop	r28
    104e:	df 91       	pop	r29
    1050:	0f 91       	pop	r16
    1052:	ff 90       	pop	r15
    1054:	ef 90       	pop	r14
    1056:	df 90       	pop	r13
    1058:	cf 90       	pop	r12
    105a:	08 95       	ret

0000105c <processNCP_TestDevice_FirmwareVersion_Req>:
////////////////////////////////////////////////////////////////////////////////////////////////////
//Handle Message Function
////////////////////////////////////////////////////////////////////////////////////////////////////

void processNCP_TestDevice_FirmwareVersion_Req(uint16 srcNetAddr, uint8 msg[],
		int length) {
    105c:	fb 01       	movw	r30, r22
	seqNum = msg[2] << 8 | msg[3];
	nodeId = msg[6] << 8 | msg[7];

	version = FW_VERSION;

	TestDevice_FirmwareVersion_Res(seqNum, nodeId, version);
    105e:	92 81       	ldd	r25, Z+2	; 0x02
    1060:	80 e0       	ldi	r24, 0x00	; 0
    1062:	43 81       	ldd	r20, Z+3	; 0x03
    1064:	50 e0       	ldi	r21, 0x00	; 0
    1066:	76 81       	ldd	r23, Z+6	; 0x06
    1068:	60 e0       	ldi	r22, 0x00	; 0
    106a:	27 81       	ldd	r18, Z+7	; 0x07
    106c:	30 e0       	ldi	r19, 0x00	; 0
    106e:	62 2b       	or	r22, r18
    1070:	73 2b       	or	r23, r19
    1072:	84 2b       	or	r24, r20
    1074:	95 2b       	or	r25, r21
    1076:	40 e0       	ldi	r20, 0x00	; 0
    1078:	0e 94 f3 07 	call	0xfe6	; 0xfe6 <TestDevice_FirmwareVersion_Res>
}
    107c:	08 95       	ret

0000107e <tcp_sendSetSensorLevel>:
	TestDevice_DeviceInfo_Res(seqNum, nodeId, deviceId, deviceType,
			deviceVersion);

}

void tcp_sendSetSensorLevel(uint16 sensorId, uint8 level) {
    107e:	ef 92       	push	r14
    1080:	ff 92       	push	r15
    1082:	0f 93       	push	r16
    1084:	1f 93       	push	r17
    1086:	df 93       	push	r29
    1088:	cf 93       	push	r28
    108a:	cd b7       	in	r28, 0x3d	; 61
    108c:	de b7       	in	r29, 0x3e	; 62
    108e:	2a 97       	sbiw	r28, 0x0a	; 10
    1090:	0f b6       	in	r0, 0x3f	; 63
    1092:	f8 94       	cli
    1094:	de bf       	out	0x3e, r29	; 62
    1096:	0f be       	out	0x3f, r0	; 63
    1098:	cd bf       	out	0x3d, r28	; 61
    109a:	8c 01       	movw	r16, r24
	uint8 payload[10];
	int len = 0;
	uint8 resultLen;
	device_Info *device_P;

	payload[len++] = PLCS_GCP_REQ_SETSENSINGLEVEL;
    109c:	80 e8       	ldi	r24, 0x80	; 128
    109e:	89 83       	std	Y+1, r24	; 0x01
	payload[len++] = (uint8) (0);
    10a0:	1a 82       	std	Y+2, r1	; 0x02
	payload[len++] = (uint8) (0);
    10a2:	1b 82       	std	Y+3, r1	; 0x03
	payload[len++] = (uint8) (sensorId >> 8);
    10a4:	1c 83       	std	Y+4, r17	; 0x04
	payload[len++] = (uint8) (sensorId);
    10a6:	0d 83       	std	Y+5, r16	; 0x05
	payload[len++] = (uint8) level;
    10a8:	6e 83       	std	Y+6, r22	; 0x06

	device_P = findNodeById(sensorId);
    10aa:	c8 01       	movw	r24, r16
    10ac:	0e 94 72 00 	call	0xe4	; 0xe4 <findNodeById>
    10b0:	7c 01       	movw	r14, r24
	if (device_P == NULL)
    10b2:	00 97       	sbiw	r24, 0x00	; 0
    10b4:	a1 f0       	breq	.+40     	; 0x10de <tcp_sendSetSensorLevel+0x60>
		return;

	resultLen = plcs_GetGCPMessage(tmp_Buff, sensorId, 0,
    10b6:	87 ed       	ldi	r24, 0xD7	; 215
    10b8:	92 e0       	ldi	r25, 0x02	; 2
    10ba:	b8 01       	movw	r22, r16
    10bc:	40 e0       	ldi	r20, 0x00	; 0
    10be:	50 e0       	ldi	r21, 0x00	; 0
    10c0:	9e 01       	movw	r18, r28
    10c2:	2f 5f       	subi	r18, 0xFF	; 255
    10c4:	3f 4f       	sbci	r19, 0xFF	; 255
    10c6:	06 e0       	ldi	r16, 0x06	; 6
    10c8:	0e 94 38 06 	call	0xc70	; 0xc70 <plcs_GetGCPMessage>
    10cc:	48 2f       	mov	r20, r24
			payload, len);

	sendData(device_P->nwkAddr, tmp_Buff, resultLen);
    10ce:	f7 01       	movw	r30, r14
    10d0:	80 81       	ld	r24, Z
    10d2:	91 81       	ldd	r25, Z+1	; 0x01
    10d4:	67 ed       	ldi	r22, 0xD7	; 215
    10d6:	72 e0       	ldi	r23, 0x02	; 2
    10d8:	50 e0       	ldi	r21, 0x00	; 0
    10da:	0e 94 8b 0d 	call	0x1b16	; 0x1b16 <sendData>
}
    10de:	2a 96       	adiw	r28, 0x0a	; 10
    10e0:	0f b6       	in	r0, 0x3f	; 63
    10e2:	f8 94       	cli
    10e4:	de bf       	out	0x3e, r29	; 62
    10e6:	0f be       	out	0x3f, r0	; 63
    10e8:	cd bf       	out	0x3d, r28	; 61
    10ea:	cf 91       	pop	r28
    10ec:	df 91       	pop	r29
    10ee:	1f 91       	pop	r17
    10f0:	0f 91       	pop	r16
    10f2:	ff 90       	pop	r15
    10f4:	ef 90       	pop	r14
    10f6:	08 95       	ret

000010f8 <processNCP_TestDevice_SensorLevel_Req>:
void processNCP_TestDevice_SensorLevel_Req(uint16 srcNetAddr, uint8 msg[],
		int length) {
    10f8:	df 92       	push	r13
    10fa:	ef 92       	push	r14
    10fc:	ff 92       	push	r15
    10fe:	0f 93       	push	r16
    1100:	1f 93       	push	r17
    1102:	cf 93       	push	r28
    1104:	df 93       	push	r29
    1106:	fb 01       	movw	r30, r22
	uint16 nodeId = 0;
	uint16 deviceId = 0;
	uint8 level = 0;
	device_Info *device_P;

	seqNum = msg[2] << 8 | msg[3];
    1108:	92 81       	ldd	r25, Z+2	; 0x02
    110a:	80 e0       	ldi	r24, 0x00	; 0
    110c:	23 81       	ldd	r18, Z+3	; 0x03
    110e:	e2 2e       	mov	r14, r18
    1110:	ff 24       	eor	r15, r15
    1112:	e8 2a       	or	r14, r24
    1114:	f9 2a       	or	r15, r25
	nodeId = msg[6] << 8 | msg[7];
    1116:	96 81       	ldd	r25, Z+6	; 0x06
    1118:	80 e0       	ldi	r24, 0x00	; 0
    111a:	27 81       	ldd	r18, Z+7	; 0x07
    111c:	02 2f       	mov	r16, r18
    111e:	10 e0       	ldi	r17, 0x00	; 0
    1120:	08 2b       	or	r16, r24
    1122:	19 2b       	or	r17, r25
	deviceId = msg[9] << 8 | msg[10];
    1124:	91 85       	ldd	r25, Z+9	; 0x09
    1126:	80 e0       	ldi	r24, 0x00	; 0
    1128:	22 85       	ldd	r18, Z+10	; 0x0a
    112a:	c2 2f       	mov	r28, r18
    112c:	d0 e0       	ldi	r29, 0x00	; 0
    112e:	c8 2b       	or	r28, r24
    1130:	d9 2b       	or	r29, r25
	level = msg[11];
    1132:	d3 84       	ldd	r13, Z+11	; 0x0b

	device_P = findNodeById(deviceId);
    1134:	ce 01       	movw	r24, r28
    1136:	0e 94 72 00 	call	0xe4	; 0xe4 <findNodeById>

	if (device_P == NULL) {
    113a:	89 2b       	or	r24, r25
    113c:	21 f4       	brne	.+8      	; 0x1146 <__stack+0x47>
		TestDevice_SensorLevel_Res(seqNum, nodeId, 0x01);
    113e:	c7 01       	movw	r24, r14
    1140:	b8 01       	movw	r22, r16
    1142:	41 e0       	ldi	r20, 0x01	; 1
    1144:	07 c0       	rjmp	.+14     	; 0x1154 <__stack+0x55>
		return;
	}
	tcp_sendSetSensorLevel(deviceId, level);
    1146:	ce 01       	movw	r24, r28
    1148:	6d 2d       	mov	r22, r13
    114a:	0e 94 3f 08 	call	0x107e	; 0x107e <tcp_sendSetSensorLevel>
	TestDevice_SensorLevel_Res(seqNum, nodeId, 0x00);
    114e:	c7 01       	movw	r24, r14
    1150:	b8 01       	movw	r22, r16
    1152:	40 e0       	ldi	r20, 0x00	; 0
    1154:	0e 94 fb 06 	call	0xdf6	; 0xdf6 <TestDevice_SensorLevel_Res>
}
    1158:	df 91       	pop	r29
    115a:	cf 91       	pop	r28
    115c:	1f 91       	pop	r17
    115e:	0f 91       	pop	r16
    1160:	ff 90       	pop	r15
    1162:	ef 90       	pop	r14
    1164:	df 90       	pop	r13
    1166:	08 95       	ret

00001168 <processNCP_TestDevice>:
#include "DeviceInfo.h"
#include "PLCS_Protocol.h"
uint8 tmp_Buff[32];
/////

void processNCP_TestDevice(uint16 srcNetAddr, uint8 msg[], int length) {
    1168:	fb 01       	movw	r30, r22
	uint8 msgType = msg[8];

	switch (msgType) {
    116a:	20 85       	ldd	r18, Z+8	; 0x08
    116c:	20 33       	cpi	r18, 0x30	; 48
    116e:	69 f0       	breq	.+26     	; 0x118a <processNCP_TestDevice+0x22>
    1170:	21 33       	cpi	r18, 0x31	; 49
    1172:	18 f4       	brcc	.+6      	; 0x117a <processNCP_TestDevice+0x12>
    1174:	20 32       	cpi	r18, 0x20	; 32
    1176:	89 f4       	brne	.+34     	; 0x119a <processNCP_TestDevice+0x32>
    1178:	05 c0       	rjmp	.+10     	; 0x1184 <processNCP_TestDevice+0x1c>
    117a:	22 33       	cpi	r18, 0x32	; 50
    117c:	49 f0       	breq	.+18     	; 0x1190 <processNCP_TestDevice+0x28>
    117e:	20 34       	cpi	r18, 0x40	; 64
    1180:	61 f4       	brne	.+24     	; 0x119a <processNCP_TestDevice+0x32>
    1182:	09 c0       	rjmp	.+18     	; 0x1196 <processNCP_TestDevice+0x2e>
	case TEST_DEVICE_LC_FIRMWARE_VERSION_REQ:
		processNCP_TestDevice_FirmwareVersion_Req(srcNetAddr, msg, length);
    1184:	0e 94 2e 08 	call	0x105c	; 0x105c <processNCP_TestDevice_FirmwareVersion_Req>
    1188:	08 95       	ret
		break;
	case TEST_DEVICE_LC_DEVICELIST_SIZE_REQ:
		processNCP_TestDevice_DeviceList_Size_Req(srcNetAddr, msg, length);
    118a:	0e 94 e1 07 	call	0xfc2	; 0xfc2 <processNCP_TestDevice_DeviceList_Size_Req>
    118e:	08 95       	ret
		break;
	case TEST_DEVICE_LC_DEVICEINFO_REQ:
		processNCP_TestDevice_DeviceInfo_Req(srcNetAddr, msg, length);
    1190:	0e 94 80 07 	call	0xf00	; 0xf00 <processNCP_TestDevice_DeviceInfo_Req>
    1194:	08 95       	ret
		break;
	case TEST_DEVICE_SENSOR_LEVEL_SET:
		processNCP_TestDevice_SensorLevel_Req(srcNetAddr, msg, length);
    1196:	0e 94 7c 08 	call	0x10f8	; 0x10f8 <processNCP_TestDevice_SensorLevel_Req>
    119a:	08 95       	ret

0000119c <timer_set>:


int timer_set(int timer_id, uint32 time_value)
{
	
	if ( (timer_id >= 0) && (timer_id < MAX_SYS_TIMER) )
    119c:	8a 30       	cpi	r24, 0x0A	; 10
    119e:	91 05       	cpc	r25, r1
    11a0:	78 f4       	brcc	.+30     	; 0x11c0 <timer_set+0x24>
	{
		//DISABLE_INTERRUPT();
		
		timer_list[timer_id].value = time_value;
    11a2:	fc 01       	movw	r30, r24
    11a4:	ee 0f       	add	r30, r30
    11a6:	ff 1f       	adc	r31, r31
    11a8:	ee 0f       	add	r30, r30
    11aa:	ff 1f       	adc	r31, r31
    11ac:	e8 0f       	add	r30, r24
    11ae:	f9 1f       	adc	r31, r25
    11b0:	ef 59       	subi	r30, 0x9F	; 159
    11b2:	fc 4f       	sbci	r31, 0xFC	; 252
    11b4:	41 83       	std	Z+1, r20	; 0x01
    11b6:	52 83       	std	Z+2, r21	; 0x02
    11b8:	63 83       	std	Z+3, r22	; 0x03
    11ba:	74 83       	std	Z+4, r23	; 0x04
		timer_list[timer_id].running = 1;
    11bc:	81 e0       	ldi	r24, 0x01	; 1
    11be:	80 83       	st	Z, r24
		
		//ENABLE_INTERRUPT();
	}
	return 0;
}
    11c0:	80 e0       	ldi	r24, 0x00	; 0
    11c2:	90 e0       	ldi	r25, 0x00	; 0
    11c4:	08 95       	ret

000011c6 <timer_get>:


int timer_get(int timer_id)
{
	if ( (timer_id >= 0) && (timer_id < MAX_SYS_TIMER) )
    11c6:	8a 30       	cpi	r24, 0x0A	; 10
    11c8:	91 05       	cpc	r25, r1
    11ca:	b0 f4       	brcc	.+44     	; 0x11f8 <timer_get+0x32>
	{
		if (timer_list[timer_id].running)
    11cc:	fc 01       	movw	r30, r24
    11ce:	ee 0f       	add	r30, r30
    11d0:	ff 1f       	adc	r31, r31
    11d2:	ee 0f       	add	r30, r30
    11d4:	ff 1f       	adc	r31, r31
    11d6:	e8 0f       	add	r30, r24
    11d8:	f9 1f       	adc	r31, r25
    11da:	ef 59       	subi	r30, 0x9F	; 159
    11dc:	fc 4f       	sbci	r31, 0xFC	; 252
    11de:	80 81       	ld	r24, Z
    11e0:	88 23       	and	r24, r24
    11e2:	51 f0       	breq	.+20     	; 0x11f8 <timer_get+0x32>
    11e4:	20 e0       	ldi	r18, 0x00	; 0
    11e6:	30 e0       	ldi	r19, 0x00	; 0
    11e8:	81 81       	ldd	r24, Z+1	; 0x01
    11ea:	92 81       	ldd	r25, Z+2	; 0x02
    11ec:	a3 81       	ldd	r26, Z+3	; 0x03
    11ee:	b4 81       	ldd	r27, Z+4	; 0x04
    11f0:	00 97       	sbiw	r24, 0x00	; 0
    11f2:	a1 05       	cpc	r26, r1
    11f4:	b1 05       	cpc	r27, r1
    11f6:	11 f0       	breq	.+4      	; 0x11fc <timer_get+0x36>
    11f8:	21 e0       	ldi	r18, 0x01	; 1
    11fa:	30 e0       	ldi	r19, 0x00	; 0
	else
	{
		// return as not fired.
		return 1;
	}
}
    11fc:	c9 01       	movw	r24, r18
    11fe:	08 95       	ret

00001200 <timer_clear>:



int timer_clear(int timer_id)
{
	if ( (timer_id >= 0) && (timer_id < MAX_SYS_TIMER) )
    1200:	8a 30       	cpi	r24, 0x0A	; 10
    1202:	91 05       	cpc	r25, r1
    1204:	50 f4       	brcc	.+20     	; 0x121a <timer_clear+0x1a>
	{
		timer_list[timer_id].running = 0;
    1206:	fc 01       	movw	r30, r24
    1208:	ee 0f       	add	r30, r30
    120a:	ff 1f       	adc	r31, r31
    120c:	ee 0f       	add	r30, r30
    120e:	ff 1f       	adc	r31, r31
    1210:	e8 0f       	add	r30, r24
    1212:	f9 1f       	adc	r31, r25
    1214:	ef 59       	subi	r30, 0x9F	; 159
    1216:	fc 4f       	sbci	r31, 0xFC	; 252
    1218:	10 82       	st	Z, r1
	}
	
	return 0;
}
    121a:	80 e0       	ldi	r24, 0x00	; 0
    121c:	90 e0       	ldi	r25, 0x00	; 0
    121e:	08 95       	ret

00001220 <timer_init>:
	- timer utility init
	- timer register setting
*/
void timer_init()
{
	DISABLE_INTERRUPT();
    1220:	f8 94       	cli
    1222:	e1 e6       	ldi	r30, 0x61	; 97
    1224:	f3 e0       	ldi	r31, 0x03	; 3
	for (int i=0; i<MAX_SYS_TIMER; i++)
	{
		timer_list[i].running = 0;
    1226:	10 82       	st	Z, r1
		timer_list[i].value = 0;
    1228:	11 82       	std	Z+1, r1	; 0x01
    122a:	12 82       	std	Z+2, r1	; 0x02
    122c:	13 82       	std	Z+3, r1	; 0x03
    122e:	14 82       	std	Z+4, r1	; 0x04
    1230:	35 96       	adiw	r30, 0x05	; 5
	- timer register setting
*/
void timer_init()
{
	DISABLE_INTERRUPT();
	for (int i=0; i<MAX_SYS_TIMER; i++)
    1232:	83 e0       	ldi	r24, 0x03	; 3
    1234:	e3 39       	cpi	r30, 0x93	; 147
    1236:	f8 07       	cpc	r31, r24
    1238:	b1 f7       	brne	.-20     	; 0x1226 <timer_init+0x6>
	// TCCR0 : FOC0, WGM00, COM01, COM00, WGM01, CS02, CS01, CS00
	// CS12,CS11,CS10 : 1=clk, 2=clk/8, 3=clk/32, 4=clk/64, 5=clk/128, 6=clk/256, 7=clk/1024.
	// WGM01,WGM00 : 0x10=CTC(Clear Timer on Compare match) mode; top = OCR0, 
	// timer control : CLK_io = system clock = 8 MHz.

	TCNT3H = 0x00;
    123a:	10 92 89 00 	sts	0x0089, r1
	TCNT3L = 0x00;
    123e:	10 92 88 00 	sts	0x0088, r1

	TCCR3A = 0x40;				// Normal mode.  WGMn[3-0] = b0100.
    1242:	80 e4       	ldi	r24, 0x40	; 64
    1244:	80 93 8b 00 	sts	0x008B, r24
								// COM1A1,A0 = b00, normal port operation.(CTC mode)
	TCCR3B = 0x0C;				// CSn2/1/0 = b100, clk_io/256, CTC mode.
    1248:	8c e0       	ldi	r24, 0x0C	; 12
    124a:	80 93 8a 00 	sts	0x008A, r24
	TCCR3C = 0x00;
    124e:	10 92 8c 00 	sts	0x008C, r1
	
	OCR3AH = 0x00;
    1252:	10 92 87 00 	sts	0x0087, r1
	OCR3AL = TIMER_TCNT;		//value=31 for 8Mhz;		// 1ms
    1256:	8e e3       	ldi	r24, 0x3E	; 62
    1258:	80 93 86 00 	sts	0x0086, r24

	ETIMSK |=0x10;				// enable OCIE3A, don't touch other flags.
    125c:	80 91 7d 00 	lds	r24, 0x007D
    1260:	80 61       	ori	r24, 0x10	; 16
    1262:	80 93 7d 00 	sts	0x007D, r24
	
#endif
 	ENABLE_INTERRUPT();
    1266:	78 94       	sei

}
    1268:	08 95       	ret

0000126a <__vector_26>:



#ifdef	USE_TIMER3
ISR(TIMER3_COMPA_vect)
{ 
    126a:	1f 92       	push	r1
    126c:	0f 92       	push	r0
    126e:	0f b6       	in	r0, 0x3f	; 63
    1270:	0f 92       	push	r0
    1272:	0b b6       	in	r0, 0x3b	; 59
    1274:	0f 92       	push	r0
    1276:	11 24       	eor	r1, r1
    1278:	8f 93       	push	r24
    127a:	9f 93       	push	r25
    127c:	af 93       	push	r26
    127e:	bf 93       	push	r27
    1280:	ef 93       	push	r30
    1282:	ff 93       	push	r31
	int i;
	
	// Need not clear TCNT1, it is automatically cleared on CTC mode.(Clear Timer on Compare match)
	// TCNT1 = 0;
	// 1ms timer.
	timerCount++;
    1284:	80 91 5d 03 	lds	r24, 0x035D
    1288:	90 91 5e 03 	lds	r25, 0x035E
    128c:	a0 91 5f 03 	lds	r26, 0x035F
    1290:	b0 91 60 03 	lds	r27, 0x0360
    1294:	01 96       	adiw	r24, 0x01	; 1
    1296:	a1 1d       	adc	r26, r1
    1298:	b1 1d       	adc	r27, r1
    129a:	80 93 5d 03 	sts	0x035D, r24
    129e:	90 93 5e 03 	sts	0x035E, r25
    12a2:	a0 93 5f 03 	sts	0x035F, r26
    12a6:	b0 93 60 03 	sts	0x0360, r27
    12aa:	e2 e6       	ldi	r30, 0x62	; 98
    12ac:	f3 e0       	ldi	r31, 0x03	; 3
	
	// timer decreasing.
	for (i=0; i<MAX_SYS_TIMER; i++)
	{
		if (timer_list[i].value > 0)
    12ae:	80 81       	ld	r24, Z
    12b0:	91 81       	ldd	r25, Z+1	; 0x01
    12b2:	a2 81       	ldd	r26, Z+2	; 0x02
    12b4:	b3 81       	ldd	r27, Z+3	; 0x03
    12b6:	00 97       	sbiw	r24, 0x00	; 0
    12b8:	a1 05       	cpc	r26, r1
    12ba:	b1 05       	cpc	r27, r1
    12bc:	39 f0       	breq	.+14     	; 0x12cc <__vector_26+0x62>
		{
			timer_list[i].value--;
    12be:	01 97       	sbiw	r24, 0x01	; 1
    12c0:	a1 09       	sbc	r26, r1
    12c2:	b1 09       	sbc	r27, r1
    12c4:	80 83       	st	Z, r24
    12c6:	91 83       	std	Z+1, r25	; 0x01
    12c8:	a2 83       	std	Z+2, r26	; 0x02
    12ca:	b3 83       	std	Z+3, r27	; 0x03
    12cc:	35 96       	adiw	r30, 0x05	; 5
	// TCNT1 = 0;
	// 1ms timer.
	timerCount++;
	
	// timer decreasing.
	for (i=0; i<MAX_SYS_TIMER; i++)
    12ce:	83 e0       	ldi	r24, 0x03	; 3
    12d0:	e4 39       	cpi	r30, 0x94	; 148
    12d2:	f8 07       	cpc	r31, r24
    12d4:	61 f7       	brne	.-40     	; 0x12ae <__vector_26+0x44>
		{
			timer_list[i].value--;
		}
	}

}
    12d6:	ff 91       	pop	r31
    12d8:	ef 91       	pop	r30
    12da:	bf 91       	pop	r27
    12dc:	af 91       	pop	r26
    12de:	9f 91       	pop	r25
    12e0:	8f 91       	pop	r24
    12e2:	0f 90       	pop	r0
    12e4:	0b be       	out	0x3b, r0	; 59
    12e6:	0f 90       	pop	r0
    12e8:	0f be       	out	0x3f, r0	; 63
    12ea:	0f 90       	pop	r0
    12ec:	1f 90       	pop	r1
    12ee:	18 95       	reti

000012f0 <InitUART>:
//***************************************************************************//
#endif

void InitUART(void)
{
	UCSR0A = 0x02;		// U2X = 0
    12f0:	82 e0       	ldi	r24, 0x02	; 2
    12f2:	8b b9       	out	0x0b, r24	; 11
	UCSR0B = 0xD8;
    12f4:	88 ed       	ldi	r24, 0xD8	; 216
    12f6:	8a b9       	out	0x0a, r24	; 10
	UCSR0C = 0x06;		  
    12f8:	86 e0       	ldi	r24, 0x06	; 6
    12fa:	80 93 95 00 	sts	0x0095, r24
	UBRR0H = 0x00;
    12fe:	10 92 90 00 	sts	0x0090, r1
	UBRR0L = 0x10;		// 115200 bps, double speed
    1302:	80 e1       	ldi	r24, 0x10	; 16
    1304:	89 b9       	out	0x09, r24	; 9
	UBRR1L = 0x10;		// 115200 bps, double speed	*/

#ifdef DEBUG_ENABLE
	stdout = &mystdout;
#endif
}
    1306:	08 95       	ret

00001308 <USART0_TxEnable>:

void USART0_TxEnable(){
	UCSR0B = 0xD8;
    1308:	88 ed       	ldi	r24, 0xD8	; 216
    130a:	8a b9       	out	0x0a, r24	; 10
}
    130c:	08 95       	ret

0000130e <USART0_TxDisable>:
void USART0_TxDisable(){
	UCSR0B = 0x90;
    130e:	80 e9       	ldi	r24, 0x90	; 144
    1310:	8a b9       	out	0x0a, r24	; 10
}
    1312:	08 95       	ret

00001314 <__vector_18>:


//--------------------- USART0 -------------------------//
//------------------------------------------------------//
ISR(USART0_RX_vect)
{
    1314:	1f 92       	push	r1
    1316:	0f 92       	push	r0
    1318:	0f b6       	in	r0, 0x3f	; 63
    131a:	0f 92       	push	r0
    131c:	0b b6       	in	r0, 0x3b	; 59
    131e:	0f 92       	push	r0
    1320:	11 24       	eor	r1, r1
    1322:	2f 93       	push	r18
    1324:	8f 93       	push	r24
    1326:	9f 93       	push	r25
    1328:	ef 93       	push	r30
    132a:	ff 93       	push	r31
	uint8 status;
	uint8 data;

    while (((status = UCSR0A) & (1 << RXC)) == 0);
    132c:	5f 9b       	sbis	0x0b, 7	; 11
    132e:	fe cf       	rjmp	.-4      	; 0x132c <__vector_18+0x18>

	data = UDR0;
    1330:	2c b1       	in	r18, 0x0c	; 12

	uart0_rx_buff[uart0_rx_tail] = data;
    1332:	80 91 10 01 	lds	r24, 0x0110
    1336:	90 e0       	ldi	r25, 0x00	; 0
    1338:	fc 01       	movw	r30, r24
    133a:	ed 56       	subi	r30, 0x6D	; 109
    133c:	fb 4f       	sbci	r31, 0xFB	; 251
    133e:	20 83       	st	Z, r18
	uart0_rx_tail = (uart0_rx_tail+1) % USART_BUFF_SIZE;
    1340:	01 96       	adiw	r24, 0x01	; 1
    1342:	80 93 10 01 	sts	0x0110, r24
	uart0_rx_len ++;
    1346:	80 91 11 01 	lds	r24, 0x0111
    134a:	8f 5f       	subi	r24, 0xFF	; 255
    134c:	80 93 11 01 	sts	0x0111, r24
}
    1350:	ff 91       	pop	r31
    1352:	ef 91       	pop	r30
    1354:	9f 91       	pop	r25
    1356:	8f 91       	pop	r24
    1358:	2f 91       	pop	r18
    135a:	0f 90       	pop	r0
    135c:	0b be       	out	0x3b, r0	; 59
    135e:	0f 90       	pop	r0
    1360:	0f be       	out	0x3f, r0	; 63
    1362:	0f 90       	pop	r0
    1364:	1f 90       	pop	r1
    1366:	18 95       	reti

00001368 <__vector_19>:


ISR(USART0_UDRE_vect)
{
    1368:	1f 92       	push	r1
    136a:	0f 92       	push	r0
    136c:	0f b6       	in	r0, 0x3f	; 63
    136e:	0f 92       	push	r0
    1370:	0b b6       	in	r0, 0x3b	; 59
    1372:	0f 92       	push	r0
    1374:	11 24       	eor	r1, r1
    1376:	2f 93       	push	r18
    1378:	3f 93       	push	r19
    137a:	8f 93       	push	r24
    137c:	9f 93       	push	r25
    137e:	ef 93       	push	r30
    1380:	ff 93       	push	r31
	uint8 buff;

 	if (uart0_tx_len > 0)
    1382:	30 91 14 01 	lds	r19, 0x0114
    1386:	33 23       	and	r19, r19
    1388:	71 f0       	breq	.+28     	; 0x13a6 <__vector_19+0x3e>
	{
		buff = uart0_tx_buff[uart0_tx_front];
    138a:	80 91 12 01 	lds	r24, 0x0112
    138e:	90 e0       	ldi	r25, 0x00	; 0
    1390:	fc 01       	movw	r30, r24
    1392:	ed 56       	subi	r30, 0x6D	; 109
    1394:	fa 4f       	sbci	r31, 0xFA	; 250
    1396:	20 81       	ld	r18, Z

	    	UDR0 = buff;
    1398:	2c b9       	out	0x0c, r18	; 12

		uart0_tx_front = (uart0_tx_front+1) % USART_BUFF_SIZE;
    139a:	01 96       	adiw	r24, 0x01	; 1
    139c:	80 93 12 01 	sts	0x0112, r24
		uart0_tx_len--;
    13a0:	31 50       	subi	r19, 0x01	; 1
    13a2:	30 93 14 01 	sts	0x0114, r19
	}

    UCSR0B &= ~0x20;    // RXCIE, UDRIE, RXEN, TXEN
    13a6:	55 98       	cbi	0x0a, 5	; 10
}
    13a8:	ff 91       	pop	r31
    13aa:	ef 91       	pop	r30
    13ac:	9f 91       	pop	r25
    13ae:	8f 91       	pop	r24
    13b0:	3f 91       	pop	r19
    13b2:	2f 91       	pop	r18
    13b4:	0f 90       	pop	r0
    13b6:	0b be       	out	0x3b, r0	; 59
    13b8:	0f 90       	pop	r0
    13ba:	0f be       	out	0x3f, r0	; 63
    13bc:	0f 90       	pop	r0
    13be:	1f 90       	pop	r1
    13c0:	18 95       	reti

000013c2 <__vector_20>:


ISR(USART0_TX_vect)
{
    13c2:	1f 92       	push	r1
    13c4:	0f 92       	push	r0
    13c6:	0f b6       	in	r0, 0x3f	; 63
    13c8:	0f 92       	push	r0
    13ca:	0b b6       	in	r0, 0x3b	; 59
    13cc:	0f 92       	push	r0
    13ce:	11 24       	eor	r1, r1
    13d0:	2f 93       	push	r18
    13d2:	3f 93       	push	r19
    13d4:	8f 93       	push	r24
    13d6:	9f 93       	push	r25
    13d8:	ef 93       	push	r30
    13da:	ff 93       	push	r31
	uint8 buff;

	if (uart0_tx_len > 0)
    13dc:	30 91 14 01 	lds	r19, 0x0114
    13e0:	33 23       	and	r19, r19
    13e2:	71 f0       	breq	.+28     	; 0x1400 <__vector_20+0x3e>
	{
		buff = uart0_tx_buff[uart0_tx_front];
    13e4:	80 91 12 01 	lds	r24, 0x0112
    13e8:	90 e0       	ldi	r25, 0x00	; 0
    13ea:	fc 01       	movw	r30, r24
    13ec:	ed 56       	subi	r30, 0x6D	; 109
    13ee:	fa 4f       	sbci	r31, 0xFA	; 250
    13f0:	20 81       	ld	r18, Z
		//while ((UCSR1A & (1<<UDRE))==0);
		// tx isr.

		UDR0 = buff;
    13f2:	2c b9       	out	0x0c, r18	; 12

		uart0_tx_front = (uart0_tx_front+1) % USART_BUFF_SIZE;
    13f4:	01 96       	adiw	r24, 0x01	; 1
    13f6:	80 93 12 01 	sts	0x0112, r24
		uart0_tx_len--;
    13fa:	31 50       	subi	r19, 0x01	; 1
    13fc:	30 93 14 01 	sts	0x0114, r19
	}
}
    1400:	ff 91       	pop	r31
    1402:	ef 91       	pop	r30
    1404:	9f 91       	pop	r25
    1406:	8f 91       	pop	r24
    1408:	3f 91       	pop	r19
    140a:	2f 91       	pop	r18
    140c:	0f 90       	pop	r0
    140e:	0b be       	out	0x3b, r0	; 59
    1410:	0f 90       	pop	r0
    1412:	0f be       	out	0x3f, r0	; 63
    1414:	0f 90       	pop	r0
    1416:	1f 90       	pop	r1
    1418:	18 95       	reti

0000141a <USART0_Receive>:
//------------------------------------------------------//

//------------------------------------------------------//
int USART0_Receive(uint8 *buff)
{
    141a:	dc 01       	movw	r26, r24
	
	DISABLE_INTERRUPT();
    141c:	f8 94       	cli
 
	if (uart0_rx_len > 0)
    141e:	80 91 11 01 	lds	r24, 0x0111
    1422:	88 23       	and	r24, r24
    1424:	99 f0       	breq	.+38     	; 0x144c <USART0_Receive+0x32>
	{		
		uart0_rx_len--;
    1426:	81 50       	subi	r24, 0x01	; 1
    1428:	80 93 11 01 	sts	0x0111, r24
    	ENABLE_INTERRUPT();
    142c:	78 94       	sei
		*buff = uart0_rx_buff[uart0_rx_front]; 		
    142e:	e0 91 0f 01 	lds	r30, 0x010F
    1432:	f0 e0       	ldi	r31, 0x00	; 0
    1434:	ed 56       	subi	r30, 0x6D	; 109
    1436:	fb 4f       	sbci	r31, 0xFB	; 251
    1438:	80 81       	ld	r24, Z
    143a:	8c 93       	st	X, r24
		uart0_rx_front = (uart0_rx_front+1) % USART_BUFF_SIZE;
    143c:	80 91 0f 01 	lds	r24, 0x010F
    1440:	8f 5f       	subi	r24, 0xFF	; 255
    1442:	80 93 0f 01 	sts	0x010F, r24
    1446:	21 e0       	ldi	r18, 0x01	; 1
    1448:	30 e0       	ldi	r19, 0x00	; 0
    144a:	03 c0       	rjmp	.+6      	; 0x1452 <USART0_Receive+0x38>

		return 1;
	}

   	ENABLE_INTERRUPT();
    144c:	78 94       	sei
    144e:	20 e0       	ldi	r18, 0x00	; 0
    1450:	30 e0       	ldi	r19, 0x00	; 0

	return 0;
}
    1452:	c9 01       	movw	r24, r18
    1454:	08 95       	ret

00001456 <USART0_Transmit>:


int USART0_Transmit(uint8 buff)
{

	while ((UCSR0A & (1<<UDRE))==0);
    1456:	5d 9b       	sbis	0x0b, 5	; 11
    1458:	fe cf       	rjmp	.-4      	; 0x1456 <USART0_Transmit>
		// tx isr.

	UDR0 = buff;
    145a:	8c b9       	out	0x0c, r24	; 12
	}

   	ENABLE_INTERRUPT();
*/	
	return 0;
}
    145c:	81 e0       	ldi	r24, 0x01	; 1
    145e:	90 e0       	ldi	r25, 0x00	; 0
    1460:	08 95       	ret

00001462 <XNetHandler>:
	{
		case 0x32:
			
		break;	
	}
}
    1462:	08 95       	ret

00001464 <XNetCommand>:

	switch(msg[0])
	{

	}
}
    1464:	08 95       	ret

00001466 <xcps_init_zigbee>:
/**

**/
int xcps_init_zigbee(usart_getter getter, usart_putter putter)
{
	xcps_getter_zigbee = getter;
    1466:	90 93 2a 01 	sts	0x012A, r25
    146a:	80 93 29 01 	sts	0x0129, r24
	xcps_putter_zigbee = putter;
    146e:	70 93 2c 01 	sts	0x012C, r23
    1472:	60 93 2b 01 	sts	0x012B, r22

	
	return 0;
}
    1476:	80 e0       	ldi	r24, 0x00	; 0
    1478:	90 e0       	ldi	r25, 0x00	; 0
    147a:	08 95       	ret

0000147c <xcps_init_rs485>:

int xcps_init_rs485(usart_getter getter, usart_putter putter)
{
	xcps_getter_rs485 = getter;
    147c:	90 93 24 01 	sts	0x0124, r25
    1480:	80 93 23 01 	sts	0x0123, r24
	xcps_putter_rs485 = putter;
    1484:	70 93 28 01 	sts	0x0128, r23
    1488:	60 93 27 01 	sts	0x0127, r22

	//xcps_TxDisabler_rs485();
	
	return 0;
}
    148c:	80 e0       	ldi	r24, 0x00	; 0
    148e:	90 e0       	ldi	r25, 0x00	; 0
    1490:	08 95       	ret

00001492 <xcps_send_zigbee>:

/**

*/
int xcps_send_zigbee(const uint8 *data, int length)
{
    1492:	cf 92       	push	r12
    1494:	df 92       	push	r13
    1496:	ef 92       	push	r14
    1498:	ff 92       	push	r15
    149a:	0f 93       	push	r16
    149c:	1f 93       	push	r17
    149e:	df 93       	push	r29
    14a0:	cf 93       	push	r28
    14a2:	cd b7       	in	r28, 0x3d	; 61
    14a4:	de b7       	in	r29, 0x3e	; 62
    14a6:	c0 54       	subi	r28, 0x40	; 64
    14a8:	d0 40       	sbci	r29, 0x00	; 0
    14aa:	0f b6       	in	r0, 0x3f	; 63
    14ac:	f8 94       	cli
    14ae:	de bf       	out	0x3e, r29	; 62
    14b0:	0f be       	out	0x3f, r0	; 63
    14b2:	cd bf       	out	0x3d, r28	; 61
    14b4:	ac 01       	movw	r20, r24
	uint8 buff[XCPS_MAX_PDU];
	int i, msgLen = 0;
	int checkSum = 0;
	
	// check putter.
	if (!xcps_putter_zigbee) return -1;
    14b6:	80 91 2b 01 	lds	r24, 0x012B
    14ba:	90 91 2c 01 	lds	r25, 0x012C
    14be:	89 2b       	or	r24, r25
    14c0:	19 f4       	brne	.+6      	; 0x14c8 <xcps_send_zigbee+0x36>
    14c2:	2f ef       	ldi	r18, 0xFF	; 255
    14c4:	3f ef       	ldi	r19, 0xFF	; 255
    14c6:	50 c0       	rjmp	.+160    	; 0x1568 <xcps_send_zigbee+0xd6>

    	buff[msgLen++] = ZS_SFLAG; 			//Start Byte_1
    14c8:	8a ef       	ldi	r24, 0xFA	; 250
    14ca:	89 83       	std	Y+1, r24	; 0x01
    	buff[msgLen++] = (uint8)(length); 		//Dest Addr
    14cc:	6a 83       	std	Y+2, r22	; 0x02
    14ce:	20 e0       	ldi	r18, 0x00	; 0
    14d0:	30 e0       	ldi	r19, 0x00	; 0
    14d2:	02 e0       	ldi	r16, 0x02	; 2
    14d4:	10 e0       	ldi	r17, 0x00	; 0

	for (i = 0; i < length; i++)
		buff[msgLen++] = data[i];
    14d6:	7e 01       	movw	r14, r28
    14d8:	08 94       	sec
    14da:	e1 1c       	adc	r14, r1
    14dc:	f1 1c       	adc	r15, r1
    14de:	0c c0       	rjmp	.+24     	; 0x14f8 <xcps_send_zigbee+0x66>
    14e0:	f7 01       	movw	r30, r14
    14e2:	e0 0f       	add	r30, r16
    14e4:	f1 1f       	adc	r31, r17
    14e6:	da 01       	movw	r26, r20
    14e8:	a2 0f       	add	r26, r18
    14ea:	b3 1f       	adc	r27, r19
    14ec:	8c 91       	ld	r24, X
    14ee:	80 83       	st	Z, r24
    14f0:	0f 5f       	subi	r16, 0xFF	; 255
    14f2:	1f 4f       	sbci	r17, 0xFF	; 255
	if (!xcps_putter_zigbee) return -1;

    	buff[msgLen++] = ZS_SFLAG; 			//Start Byte_1
    	buff[msgLen++] = (uint8)(length); 		//Dest Addr

	for (i = 0; i < length; i++)
    14f4:	2f 5f       	subi	r18, 0xFF	; 255
    14f6:	3f 4f       	sbci	r19, 0xFF	; 255
    14f8:	26 17       	cp	r18, r22
    14fa:	37 07       	cpc	r19, r23
    14fc:	8c f3       	brlt	.-30     	; 0x14e0 <xcps_send_zigbee+0x4e>
    14fe:	22 e0       	ldi	r18, 0x02	; 2
    1500:	30 e0       	ldi	r19, 0x00	; 0
    1502:	40 e0       	ldi	r20, 0x00	; 0
    1504:	50 e0       	ldi	r21, 0x00	; 0
    1506:	de 01       	movw	r26, r28
    1508:	11 96       	adiw	r26, 0x01	; 1
    150a:	08 c0       	rjmp	.+16     	; 0x151c <xcps_send_zigbee+0x8a>
		buff[msgLen++] = data[i];

	// calc checksum.
	for (i = 2; i < msgLen; i++)
		checkSum += ((uint8)buff[i] & 0xFF);
    150c:	fd 01       	movw	r30, r26
    150e:	e2 0f       	add	r30, r18
    1510:	f3 1f       	adc	r31, r19
    1512:	80 81       	ld	r24, Z
    1514:	48 0f       	add	r20, r24
    1516:	51 1d       	adc	r21, r1

	for (i = 0; i < length; i++)
		buff[msgLen++] = data[i];

	// calc checksum.
	for (i = 2; i < msgLen; i++)
    1518:	2f 5f       	subi	r18, 0xFF	; 255
    151a:	3f 4f       	sbci	r19, 0xFF	; 255
    151c:	20 17       	cp	r18, r16
    151e:	31 07       	cpc	r19, r17
    1520:	ac f3       	brlt	.-22     	; 0x150c <xcps_send_zigbee+0x7a>
		checkSum += ((uint8)buff[i] & 0xFF);
	
	buff[msgLen++] = (uint8)(checkSum & 0xFF);
    1522:	fd 01       	movw	r30, r26
    1524:	e0 0f       	add	r30, r16
    1526:	f1 1f       	adc	r31, r17
    1528:	40 83       	st	Z, r20
    152a:	78 01       	movw	r14, r16
    152c:	08 94       	sec
    152e:	e1 1c       	adc	r14, r1
    1530:	f1 1c       	adc	r15, r1

	// end flag.
    buff[msgLen++] = ZS_EFLAG;    
    1532:	ae 0d       	add	r26, r14
    1534:	bf 1d       	adc	r27, r15
    1536:	8f ea       	ldi	r24, 0xAF	; 175
    1538:	8c 93       	st	X, r24
    153a:	00 e0       	ldi	r16, 0x00	; 0
    153c:	10 e0       	ldi	r17, 0x00	; 0
    for(i=0; i < msgLen; i++)
       	xcps_putter_zigbee(buff[i]);
    153e:	6e 01       	movw	r12, r28
    1540:	08 94       	sec
    1542:	c1 1c       	adc	r12, r1
    1544:	d1 1c       	adc	r13, r1
    1546:	f6 01       	movw	r30, r12
    1548:	e0 0f       	add	r30, r16
    154a:	f1 1f       	adc	r31, r17
    154c:	20 91 2b 01 	lds	r18, 0x012B
    1550:	30 91 2c 01 	lds	r19, 0x012C
    1554:	80 81       	ld	r24, Z
    1556:	f9 01       	movw	r30, r18
    1558:	09 95       	icall
	
	buff[msgLen++] = (uint8)(checkSum & 0xFF);

	// end flag.
    buff[msgLen++] = ZS_EFLAG;    
    for(i=0; i < msgLen; i++)
    155a:	0f 5f       	subi	r16, 0xFF	; 255
    155c:	1f 4f       	sbci	r17, 0xFF	; 255
    155e:	e0 16       	cp	r14, r16
    1560:	f1 06       	cpc	r15, r17
    1562:	8c f7       	brge	.-30     	; 0x1546 <xcps_send_zigbee+0xb4>
    1564:	20 e0       	ldi	r18, 0x00	; 0
    1566:	30 e0       	ldi	r19, 0x00	; 0
       	xcps_putter_zigbee(buff[i]);
	
    	
	return 0;
}
    1568:	c9 01       	movw	r24, r18
    156a:	c0 5c       	subi	r28, 0xC0	; 192
    156c:	df 4f       	sbci	r29, 0xFF	; 255
    156e:	0f b6       	in	r0, 0x3f	; 63
    1570:	f8 94       	cli
    1572:	de bf       	out	0x3e, r29	; 62
    1574:	0f be       	out	0x3f, r0	; 63
    1576:	cd bf       	out	0x3d, r28	; 61
    1578:	cf 91       	pop	r28
    157a:	df 91       	pop	r29
    157c:	1f 91       	pop	r17
    157e:	0f 91       	pop	r16
    1580:	ff 90       	pop	r15
    1582:	ef 90       	pop	r14
    1584:	df 90       	pop	r13
    1586:	cf 90       	pop	r12
    1588:	08 95       	ret

0000158a <xcps_send_rs485>:

// -------------------------------------------------------------------------------------------------------------------------------------- //
// -------------------------------------------------------------------------------------------------------------------------------------- //
// -------------------------------------------------------------------------------------------------------------------------------------- //
int xcps_send_rs485(const uint8 *data, int length)
{
    158a:	cf 92       	push	r12
    158c:	df 92       	push	r13
    158e:	ef 92       	push	r14
    1590:	ff 92       	push	r15
    1592:	0f 93       	push	r16
    1594:	1f 93       	push	r17
    1596:	df 93       	push	r29
    1598:	cf 93       	push	r28
    159a:	cd b7       	in	r28, 0x3d	; 61
    159c:	de b7       	in	r29, 0x3e	; 62
    159e:	c0 54       	subi	r28, 0x40	; 64
    15a0:	d0 40       	sbci	r29, 0x00	; 0
    15a2:	0f b6       	in	r0, 0x3f	; 63
    15a4:	f8 94       	cli
    15a6:	de bf       	out	0x3e, r29	; 62
    15a8:	0f be       	out	0x3f, r0	; 63
    15aa:	cd bf       	out	0x3d, r28	; 61
    15ac:	ac 01       	movw	r20, r24
	uint8 buff[XCPS_MAX_PDU];
	int i, msgLen = 0;
	int checkSum = 0;
	
	// check putter.
	if (!xcps_putter_rs485) return -1;
    15ae:	80 91 27 01 	lds	r24, 0x0127
    15b2:	90 91 28 01 	lds	r25, 0x0128
    15b6:	89 2b       	or	r24, r25
    15b8:	19 f4       	brne	.+6      	; 0x15c0 <xcps_send_rs485+0x36>
    15ba:	2f ef       	ldi	r18, 0xFF	; 255
    15bc:	3f ef       	ldi	r19, 0xFF	; 255
    15be:	50 c0       	rjmp	.+160    	; 0x1660 <xcps_send_rs485+0xd6>

    	buff[msgLen++] = ZS_SFLAG; 			//Start Byte_1
    15c0:	8a ef       	ldi	r24, 0xFA	; 250
    15c2:	89 83       	std	Y+1, r24	; 0x01
    	buff[msgLen++] = (uint8)(length); 		
    15c4:	6a 83       	std	Y+2, r22	; 0x02
    15c6:	20 e0       	ldi	r18, 0x00	; 0
    15c8:	30 e0       	ldi	r19, 0x00	; 0
    15ca:	02 e0       	ldi	r16, 0x02	; 2
    15cc:	10 e0       	ldi	r17, 0x00	; 0

	for (i = 0; i < length; i++)
		buff[msgLen++] = data[i];
    15ce:	7e 01       	movw	r14, r28
    15d0:	08 94       	sec
    15d2:	e1 1c       	adc	r14, r1
    15d4:	f1 1c       	adc	r15, r1
    15d6:	0c c0       	rjmp	.+24     	; 0x15f0 <xcps_send_rs485+0x66>
    15d8:	f7 01       	movw	r30, r14
    15da:	e0 0f       	add	r30, r16
    15dc:	f1 1f       	adc	r31, r17
    15de:	da 01       	movw	r26, r20
    15e0:	a2 0f       	add	r26, r18
    15e2:	b3 1f       	adc	r27, r19
    15e4:	8c 91       	ld	r24, X
    15e6:	80 83       	st	Z, r24
    15e8:	0f 5f       	subi	r16, 0xFF	; 255
    15ea:	1f 4f       	sbci	r17, 0xFF	; 255
	if (!xcps_putter_rs485) return -1;

    	buff[msgLen++] = ZS_SFLAG; 			//Start Byte_1
    	buff[msgLen++] = (uint8)(length); 		

	for (i = 0; i < length; i++)
    15ec:	2f 5f       	subi	r18, 0xFF	; 255
    15ee:	3f 4f       	sbci	r19, 0xFF	; 255
    15f0:	26 17       	cp	r18, r22
    15f2:	37 07       	cpc	r19, r23
    15f4:	8c f3       	brlt	.-30     	; 0x15d8 <xcps_send_rs485+0x4e>
    15f6:	22 e0       	ldi	r18, 0x02	; 2
    15f8:	30 e0       	ldi	r19, 0x00	; 0
    15fa:	40 e0       	ldi	r20, 0x00	; 0
    15fc:	50 e0       	ldi	r21, 0x00	; 0
    15fe:	de 01       	movw	r26, r28
    1600:	11 96       	adiw	r26, 0x01	; 1
    1602:	08 c0       	rjmp	.+16     	; 0x1614 <xcps_send_rs485+0x8a>
		buff[msgLen++] = data[i];

	// calc checksum.
	for (i = 2; i < msgLen; i++)
		checkSum += ((uint8)buff[i] & 0xFF);
    1604:	fd 01       	movw	r30, r26
    1606:	e2 0f       	add	r30, r18
    1608:	f3 1f       	adc	r31, r19
    160a:	80 81       	ld	r24, Z
    160c:	48 0f       	add	r20, r24
    160e:	51 1d       	adc	r21, r1

	for (i = 0; i < length; i++)
		buff[msgLen++] = data[i];

	// calc checksum.
	for (i = 2; i < msgLen; i++)
    1610:	2f 5f       	subi	r18, 0xFF	; 255
    1612:	3f 4f       	sbci	r19, 0xFF	; 255
    1614:	20 17       	cp	r18, r16
    1616:	31 07       	cpc	r19, r17
    1618:	ac f3       	brlt	.-22     	; 0x1604 <xcps_send_rs485+0x7a>
		checkSum += ((uint8)buff[i] & 0xFF);
	
	buff[msgLen++] = (uint8)(checkSum & 0xFF);
    161a:	fd 01       	movw	r30, r26
    161c:	e0 0f       	add	r30, r16
    161e:	f1 1f       	adc	r31, r17
    1620:	40 83       	st	Z, r20
    1622:	78 01       	movw	r14, r16
    1624:	08 94       	sec
    1626:	e1 1c       	adc	r14, r1
    1628:	f1 1c       	adc	r15, r1

	// end flag.
    buff[msgLen++] = ZS_EFLAG;
    162a:	ae 0d       	add	r26, r14
    162c:	bf 1d       	adc	r27, r15
    162e:	8f ea       	ldi	r24, 0xAF	; 175
    1630:	8c 93       	st	X, r24
    1632:	00 e0       	ldi	r16, 0x00	; 0
    1634:	10 e0       	ldi	r17, 0x00	; 0
   	//xcps_TxEnabler_rs485();	
	//MSLEEP(1);
    for(i=0; i < msgLen; i++)
    	xcps_putter_rs485(buff[i]);    
    1636:	6e 01       	movw	r12, r28
    1638:	08 94       	sec
    163a:	c1 1c       	adc	r12, r1
    163c:	d1 1c       	adc	r13, r1
    163e:	f6 01       	movw	r30, r12
    1640:	e0 0f       	add	r30, r16
    1642:	f1 1f       	adc	r31, r17
    1644:	20 91 27 01 	lds	r18, 0x0127
    1648:	30 91 28 01 	lds	r19, 0x0128
    164c:	80 81       	ld	r24, Z
    164e:	f9 01       	movw	r30, r18
    1650:	09 95       	icall

	// end flag.
    buff[msgLen++] = ZS_EFLAG;
   	//xcps_TxEnabler_rs485();	
	//MSLEEP(1);
    for(i=0; i < msgLen; i++)
    1652:	0f 5f       	subi	r16, 0xFF	; 255
    1654:	1f 4f       	sbci	r17, 0xFF	; 255
    1656:	e0 16       	cp	r14, r16
    1658:	f1 06       	cpc	r15, r17
    165a:	8c f7       	brge	.-30     	; 0x163e <xcps_send_rs485+0xb4>
    165c:	20 e0       	ldi	r18, 0x00	; 0
    165e:	30 e0       	ldi	r19, 0x00	; 0
    	xcps_putter_rs485(buff[i]);    
	//xcps_TxDisabler_rs485();
	
	return 0;
}
    1660:	c9 01       	movw	r24, r18
    1662:	c0 5c       	subi	r28, 0xC0	; 192
    1664:	df 4f       	sbci	r29, 0xFF	; 255
    1666:	0f b6       	in	r0, 0x3f	; 63
    1668:	f8 94       	cli
    166a:	de bf       	out	0x3e, r29	; 62
    166c:	0f be       	out	0x3f, r0	; 63
    166e:	cd bf       	out	0x3d, r28	; 61
    1670:	cf 91       	pop	r28
    1672:	df 91       	pop	r29
    1674:	1f 91       	pop	r17
    1676:	0f 91       	pop	r16
    1678:	ff 90       	pop	r15
    167a:	ef 90       	pop	r14
    167c:	df 90       	pop	r13
    167e:	cf 90       	pop	r12
    1680:	08 95       	ret

00001682 <xcps_recv_rs485>:

/**

*/
int xcps_recv_rs485(uint8 *buff, int buff_length)
{
    1682:	0f 93       	push	r16
    1684:	1f 93       	push	r17
    1686:	df 93       	push	r29
    1688:	cf 93       	push	r28
    168a:	0f 92       	push	r0
    168c:	cd b7       	in	r28, 0x3d	; 61
    168e:	de b7       	in	r29, 0x3e	; 62
    1690:	8c 01       	movw	r16, r24
	uint8 temp;
	int i;
	int checkSum = 0;
	
	// check getter.
	if (!xcps_getter_rs485)
    1692:	e0 91 23 01 	lds	r30, 0x0123
    1696:	f0 91 24 01 	lds	r31, 0x0124
    169a:	30 97       	sbiw	r30, 0x00	; 0
    169c:	19 f4       	brne	.+6      	; 0x16a4 <xcps_recv_rs485+0x22>
    169e:	2f ef       	ldi	r18, 0xFF	; 255
    16a0:	3f ef       	ldi	r19, 0xFF	; 255
    16a2:	a8 c0       	rjmp	.+336    	; 0x17f4 <xcps_recv_rs485+0x172>
		return -1;

	if(xcps_getter_rs485(&temp) < 1 )
    16a4:	ce 01       	movw	r24, r28
    16a6:	01 96       	adiw	r24, 0x01	; 1
    16a8:	09 95       	icall
    16aa:	18 16       	cp	r1, r24
    16ac:	19 06       	cpc	r1, r25
    16ae:	0c f0       	brlt	.+2      	; 0x16b2 <xcps_recv_rs485+0x30>
    16b0:	9f c0       	rjmp	.+318    	; 0x17f0 <xcps_recv_rs485+0x16e>
		return 0;
	
	switch (xcps_state_rs485)
    16b2:	80 91 25 01 	lds	r24, 0x0125
    16b6:	90 91 26 01 	lds	r25, 0x0126
    16ba:	82 30       	cpi	r24, 0x02	; 2
    16bc:	91 05       	cpc	r25, r1
    16be:	09 f4       	brne	.+2      	; 0x16c2 <xcps_recv_rs485+0x40>
    16c0:	49 c0       	rjmp	.+146    	; 0x1754 <xcps_recv_rs485+0xd2>
    16c2:	83 30       	cpi	r24, 0x03	; 3
    16c4:	91 05       	cpc	r25, r1
    16c6:	34 f4       	brge	.+12     	; 0x16d4 <xcps_recv_rs485+0x52>
    16c8:	00 97       	sbiw	r24, 0x00	; 0
    16ca:	b1 f0       	breq	.+44     	; 0x16f8 <xcps_recv_rs485+0x76>
    16cc:	01 97       	sbiw	r24, 0x01	; 1
    16ce:	09 f0       	breq	.+2      	; 0x16d2 <xcps_recv_rs485+0x50>
    16d0:	8b c0       	rjmp	.+278    	; 0x17e8 <xcps_recv_rs485+0x166>
    16d2:	27 c0       	rjmp	.+78     	; 0x1722 <xcps_recv_rs485+0xa0>
    16d4:	83 30       	cpi	r24, 0x03	; 3
    16d6:	91 05       	cpc	r25, r1
    16d8:	21 f0       	breq	.+8      	; 0x16e2 <xcps_recv_rs485+0x60>
    16da:	04 97       	sbiw	r24, 0x04	; 4
    16dc:	09 f0       	breq	.+2      	; 0x16e0 <xcps_recv_rs485+0x5e>
    16de:	84 c0       	rjmp	.+264    	; 0x17e8 <xcps_recv_rs485+0x166>
    16e0:	68 c0       	rjmp	.+208    	; 0x17b2 <xcps_recv_rs485+0x130>
			if (xcps_rxlen_rs485 >= (2 + xcps_pdu_len_rs485))
				xcps_state_rs485 = 3;
		break;

		case 3:	// data end, check checksum.				
			for (i = 2; i < (2 + xcps_pdu_len_rs485); i++)
    16e2:	60 91 21 01 	lds	r22, 0x0121
    16e6:	70 91 22 01 	lds	r23, 0x0122
    16ea:	6f 5f       	subi	r22, 0xFF	; 255
    16ec:	7f 4f       	sbci	r23, 0xFF	; 255
    16ee:	22 e0       	ldi	r18, 0x02	; 2
    16f0:	30 e0       	ldi	r19, 0x00	; 0
    16f2:	40 e0       	ldi	r20, 0x00	; 0
    16f4:	50 e0       	ldi	r21, 0x00	; 0
    16f6:	50 c0       	rjmp	.+160    	; 0x1798 <xcps_recv_rs485+0x116>
		return 0;
	
	switch (xcps_state_rs485)
	{
		case 0:
			xcps_rxlen_rs485 = 0;
    16f8:	10 92 20 01 	sts	0x0120, r1
    16fc:	10 92 1f 01 	sts	0x011F, r1

			if (temp == ZS_SFLAG)
    1700:	29 81       	ldd	r18, Y+1	; 0x01
    1702:	2a 3f       	cpi	r18, 0xFA	; 250
    1704:	09 f0       	breq	.+2      	; 0x1708 <xcps_recv_rs485+0x86>
    1706:	74 c0       	rjmp	.+232    	; 0x17f0 <xcps_recv_rs485+0x16e>
			{
				xcps_state_rs485 = 1;
    1708:	81 e0       	ldi	r24, 0x01	; 1
    170a:	90 e0       	ldi	r25, 0x00	; 0
    170c:	90 93 26 01 	sts	0x0126, r25
    1710:	80 93 25 01 	sts	0x0125, r24
				xcps_rx_packet_rs485[xcps_rxlen_rs485++] = temp;
    1714:	20 93 d3 07 	sts	0x07D3, r18
    1718:	90 93 20 01 	sts	0x0120, r25
    171c:	80 93 1f 01 	sts	0x011F, r24
    1720:	67 c0       	rjmp	.+206    	; 0x17f0 <xcps_recv_rs485+0x16e>
				// don't change state, keep find start flag.
			}
		break;

		case 1:	// found start flag
			xcps_rx_packet_rs485[xcps_rxlen_rs485++] = temp;
    1722:	80 91 1f 01 	lds	r24, 0x011F
    1726:	90 91 20 01 	lds	r25, 0x0120
    172a:	29 81       	ldd	r18, Y+1	; 0x01
    172c:	fc 01       	movw	r30, r24
    172e:	ed 52       	subi	r30, 0x2D	; 45
    1730:	f8 4f       	sbci	r31, 0xF8	; 248
    1732:	20 83       	st	Z, r18
    1734:	01 96       	adiw	r24, 0x01	; 1
    1736:	90 93 20 01 	sts	0x0120, r25
    173a:	80 93 1f 01 	sts	0x011F, r24
			xcps_state_rs485 = 2;
    173e:	82 e0       	ldi	r24, 0x02	; 2
    1740:	90 e0       	ldi	r25, 0x00	; 0
    1742:	90 93 26 01 	sts	0x0126, r25
    1746:	80 93 25 01 	sts	0x0125, r24
			xcps_pdu_len_rs485 = temp;
    174a:	20 93 21 01 	sts	0x0121, r18
    174e:	10 92 22 01 	sts	0x0122, r1
    1752:	4e c0       	rjmp	.+156    	; 0x17f0 <xcps_recv_rs485+0x16e>
			
		break;

		case 2:	// found length
			// fill data.
			xcps_rx_packet_rs485[xcps_rxlen_rs485++] = temp;
    1754:	20 91 1f 01 	lds	r18, 0x011F
    1758:	30 91 20 01 	lds	r19, 0x0120
    175c:	f9 01       	movw	r30, r18
    175e:	ed 52       	subi	r30, 0x2D	; 45
    1760:	f8 4f       	sbci	r31, 0xF8	; 248
    1762:	89 81       	ldd	r24, Y+1	; 0x01
    1764:	80 83       	st	Z, r24
    1766:	2f 5f       	subi	r18, 0xFF	; 255
    1768:	3f 4f       	sbci	r19, 0xFF	; 255
    176a:	30 93 20 01 	sts	0x0120, r19
    176e:	20 93 1f 01 	sts	0x011F, r18
				
			// check length.
			if (xcps_rxlen_rs485 >= (2 + xcps_pdu_len_rs485))
    1772:	80 91 21 01 	lds	r24, 0x0121
    1776:	90 91 22 01 	lds	r25, 0x0122
    177a:	01 96       	adiw	r24, 0x01	; 1
    177c:	82 17       	cp	r24, r18
    177e:	93 07       	cpc	r25, r19
    1780:	bc f5       	brge	.+110    	; 0x17f0 <xcps_recv_rs485+0x16e>
				xcps_state_rs485 = 3;
    1782:	83 e0       	ldi	r24, 0x03	; 3
    1784:	90 e0       	ldi	r25, 0x00	; 0
    1786:	10 c0       	rjmp	.+32     	; 0x17a8 <xcps_recv_rs485+0x126>
		break;

		case 3:	// data end, check checksum.				
			for (i = 2; i < (2 + xcps_pdu_len_rs485); i++)
				checkSum += (xcps_rx_packet_rs485[i] & 0xFF);
    1788:	f9 01       	movw	r30, r18
    178a:	ed 52       	subi	r30, 0x2D	; 45
    178c:	f8 4f       	sbci	r31, 0xF8	; 248
    178e:	80 81       	ld	r24, Z
    1790:	48 0f       	add	r20, r24
    1792:	51 1d       	adc	r21, r1
			if (xcps_rxlen_rs485 >= (2 + xcps_pdu_len_rs485))
				xcps_state_rs485 = 3;
		break;

		case 3:	// data end, check checksum.				
			for (i = 2; i < (2 + xcps_pdu_len_rs485); i++)
    1794:	2f 5f       	subi	r18, 0xFF	; 255
    1796:	3f 4f       	sbci	r19, 0xFF	; 255
    1798:	62 17       	cp	r22, r18
    179a:	73 07       	cpc	r23, r19
    179c:	ac f7       	brge	.-22     	; 0x1788 <xcps_recv_rs485+0x106>
				checkSum += (xcps_rx_packet_rs485[i] & 0xFF);

			if (temp == (uint8)checkSum )// Checksum ok.
    179e:	89 81       	ldd	r24, Y+1	; 0x01
    17a0:	84 17       	cp	r24, r20
    17a2:	11 f5       	brne	.+68     	; 0x17e8 <xcps_recv_rs485+0x166>
				xcps_state_rs485 = 4;
    17a4:	84 e0       	ldi	r24, 0x04	; 4
    17a6:	90 e0       	ldi	r25, 0x00	; 0
    17a8:	90 93 26 01 	sts	0x0126, r25
    17ac:	80 93 25 01 	sts	0x0125, r24
    17b0:	1f c0       	rjmp	.+62     	; 0x17f0 <xcps_recv_rs485+0x16e>
			else
				xcps_state_rs485 = 0;
		break;

		case 4:
			if (temp == ZS_EFLAG)
    17b2:	89 81       	ldd	r24, Y+1	; 0x01
    17b4:	8f 3a       	cpi	r24, 0xAF	; 175
    17b6:	c1 f4       	brne	.+48     	; 0x17e8 <xcps_recv_rs485+0x166>
			{
				xcps_state_rs485 = 0;
    17b8:	10 92 26 01 	sts	0x0126, r1
    17bc:	10 92 25 01 	sts	0x0125, r1
    17c0:	a5 ed       	ldi	r26, 0xD5	; 213
    17c2:	b7 e0       	ldi	r27, 0x07	; 7
    17c4:	40 e0       	ldi	r20, 0x00	; 0
    17c6:	50 e0       	ldi	r21, 0x00	; 0
    17c8:	07 c0       	rjmp	.+14     	; 0x17d8 <xcps_recv_rs485+0x156>

				// return data to caller.
				for (i = 0;  i < xcps_pdu_len_rs485; i++)
					buff[i] = xcps_rx_packet_rs485[2+i];
    17ca:	f8 01       	movw	r30, r16
    17cc:	e4 0f       	add	r30, r20
    17ce:	f5 1f       	adc	r31, r21
    17d0:	8d 91       	ld	r24, X+
    17d2:	80 83       	st	Z, r24
			if (temp == ZS_EFLAG)
			{
				xcps_state_rs485 = 0;

				// return data to caller.
				for (i = 0;  i < xcps_pdu_len_rs485; i++)
    17d4:	4f 5f       	subi	r20, 0xFF	; 255
    17d6:	5f 4f       	sbci	r21, 0xFF	; 255
    17d8:	20 91 21 01 	lds	r18, 0x0121
    17dc:	30 91 22 01 	lds	r19, 0x0122
    17e0:	42 17       	cp	r20, r18
    17e2:	53 07       	cpc	r21, r19
    17e4:	94 f3       	brlt	.-28     	; 0x17ca <xcps_recv_rs485+0x148>
    17e6:	06 c0       	rjmp	.+12     	; 0x17f4 <xcps_recv_rs485+0x172>
			}
		break;

	default:
		// if you here, something wrong. --> recover to state 0.
		xcps_state_rs485 = 0;
    17e8:	10 92 26 01 	sts	0x0126, r1
    17ec:	10 92 25 01 	sts	0x0125, r1
    17f0:	20 e0       	ldi	r18, 0x00	; 0
    17f2:	30 e0       	ldi	r19, 0x00	; 0
		break;
	}
	return 0;
}
    17f4:	c9 01       	movw	r24, r18
    17f6:	0f 90       	pop	r0
    17f8:	cf 91       	pop	r28
    17fa:	df 91       	pop	r29
    17fc:	1f 91       	pop	r17
    17fe:	0f 91       	pop	r16
    1800:	08 95       	ret

00001802 <xcps_getOriginalCode>:

int xcps_getOriginalCode(uint8 *resultBuff, uint8 *buff, int buff_length){
    1802:	0f 93       	push	r16
    1804:	1f 93       	push	r17
    1806:	a0 e0       	ldi	r26, 0x00	; 0
    1808:	b0 e0       	ldi	r27, 0x00	; 0
            if(buff[i+1] == 0xFF) 
                resultBuff[resultLen++] = 0xFF;
            else if(buff[i+1] == 0x01)
                resultBuff[resultLen++] = 0xFA;
            else if(buff[i+1] == 0x02)
                resultBuff[resultLen++] = 0xAF;  
    180a:	0f ea       	ldi	r16, 0xAF	; 175
    for(i=0; i < buff_length; i++){        
        if(buff[i]==0xFF) {      
            if(buff[i+1] == 0xFF) 
                resultBuff[resultLen++] = 0xFF;
            else if(buff[i+1] == 0x01)
                resultBuff[resultLen++] = 0xFA;
    180c:	1a ef       	ldi	r17, 0xFA	; 250
    180e:	24 c0       	rjmp	.+72     	; 0x1858 <xcps_getOriginalCode+0x56>

int xcps_getOriginalCode(uint8 *resultBuff, uint8 *buff, int buff_length){
	unsigned char resultLen=0;
    unsigned char i=0;
    for(i=0; i < buff_length; i++){        
        if(buff[i]==0xFF) {      
    1810:	fb 01       	movw	r30, r22
    1812:	e2 0f       	add	r30, r18
    1814:	f3 1f       	adc	r31, r19
    1816:	20 81       	ld	r18, Z
    1818:	2f 3f       	cpi	r18, 0xFF	; 255
    181a:	c1 f4       	brne	.+48     	; 0x184c <xcps_getOriginalCode+0x4a>
            if(buff[i+1] == 0xFF) 
    181c:	21 81       	ldd	r18, Z+1	; 0x01
    181e:	2f 3f       	cpi	r18, 0xFF	; 255
    1820:	29 f4       	brne	.+10     	; 0x182c <xcps_getOriginalCode+0x2a>
                resultBuff[resultLen++] = 0xFF;
    1822:	fc 01       	movw	r30, r24
    1824:	ea 0f       	add	r30, r26
    1826:	f1 1d       	adc	r31, r1
    1828:	20 83       	st	Z, r18
    182a:	0d c0       	rjmp	.+26     	; 0x1846 <xcps_getOriginalCode+0x44>
            else if(buff[i+1] == 0x01)
    182c:	21 30       	cpi	r18, 0x01	; 1
    182e:	29 f4       	brne	.+10     	; 0x183a <xcps_getOriginalCode+0x38>
                resultBuff[resultLen++] = 0xFA;
    1830:	fc 01       	movw	r30, r24
    1832:	ea 0f       	add	r30, r26
    1834:	f1 1d       	adc	r31, r1
    1836:	10 83       	st	Z, r17
    1838:	06 c0       	rjmp	.+12     	; 0x1846 <xcps_getOriginalCode+0x44>
            else if(buff[i+1] == 0x02)
    183a:	22 30       	cpi	r18, 0x02	; 2
    183c:	29 f4       	brne	.+10     	; 0x1848 <xcps_getOriginalCode+0x46>
                resultBuff[resultLen++] = 0xAF;  
    183e:	fc 01       	movw	r30, r24
    1840:	ea 0f       	add	r30, r26
    1842:	f1 1d       	adc	r31, r1
    1844:	00 83       	st	Z, r16
    1846:	af 5f       	subi	r26, 0xFF	; 255
            i++;
    1848:	bf 5f       	subi	r27, 0xFF	; 255
    184a:	05 c0       	rjmp	.+10     	; 0x1856 <xcps_getOriginalCode+0x54>
        }else
            resultBuff[resultLen++] = buff[i];
    184c:	fc 01       	movw	r30, r24
    184e:	ea 0f       	add	r30, r26
    1850:	f1 1d       	adc	r31, r1
    1852:	20 83       	st	Z, r18
    1854:	af 5f       	subi	r26, 0xFF	; 255
}

int xcps_getOriginalCode(uint8 *resultBuff, uint8 *buff, int buff_length){
	unsigned char resultLen=0;
    unsigned char i=0;
    for(i=0; i < buff_length; i++){        
    1856:	bf 5f       	subi	r27, 0xFF	; 255
    1858:	2b 2f       	mov	r18, r27
    185a:	30 e0       	ldi	r19, 0x00	; 0
    185c:	24 17       	cp	r18, r20
    185e:	35 07       	cpc	r19, r21
    1860:	bc f2       	brlt	.-82     	; 0x1810 <xcps_getOriginalCode+0xe>
            i++;
        }else
            resultBuff[resultLen++] = buff[i];
    }  
    return resultLen;
}
    1862:	8a 2f       	mov	r24, r26
    1864:	90 e0       	ldi	r25, 0x00	; 0
    1866:	1f 91       	pop	r17
    1868:	0f 91       	pop	r16
    186a:	08 95       	ret

0000186c <xcps_recv_zigbee>:
    	
	return 0;
}

int xcps_recv_zigbee(uint8 *buff, int buff_length)
{
    186c:	ef 92       	push	r14
    186e:	ff 92       	push	r15
    1870:	0f 93       	push	r16
    1872:	1f 93       	push	r17
    1874:	df 93       	push	r29
    1876:	cf 93       	push	r28
    1878:	cd b7       	in	r28, 0x3d	; 61
    187a:	de b7       	in	r29, 0x3e	; 62
    187c:	c1 54       	subi	r28, 0x41	; 65
    187e:	d0 40       	sbci	r29, 0x00	; 0
    1880:	0f b6       	in	r0, 0x3f	; 63
    1882:	f8 94       	cli
    1884:	de bf       	out	0x3e, r29	; 62
    1886:	0f be       	out	0x3f, r0	; 63
    1888:	cd bf       	out	0x3d, r28	; 61
    188a:	f8 2e       	mov	r15, r24
    188c:	e9 2e       	mov	r14, r25
    188e:	8b 01       	movw	r16, r22
	int i;
	int checkSum = 0;
	int len = 0;

	// check getter.
	if (!xcps_getter_zigbee)
    1890:	e0 91 29 01 	lds	r30, 0x0129
    1894:	f0 91 2a 01 	lds	r31, 0x012A
    1898:	30 97       	sbiw	r30, 0x00	; 0
    189a:	19 f4       	brne	.+6      	; 0x18a2 <xcps_recv_zigbee+0x36>
    189c:	2f ef       	ldi	r18, 0xFF	; 255
    189e:	3f ef       	ldi	r19, 0xFF	; 255
    18a0:	5e c0       	rjmp	.+188    	; 0x195e <xcps_recv_zigbee+0xf2>
		return -1;

	if(xcps_getter_zigbee(&temp) < 1 )
    18a2:	ce 01       	movw	r24, r28
    18a4:	01 96       	adiw	r24, 0x01	; 1
    18a6:	09 95       	icall
    18a8:	18 16       	cp	r1, r24
    18aa:	19 06       	cpc	r1, r25
    18ac:	0c f0       	brlt	.+2      	; 0x18b0 <xcps_recv_zigbee+0x44>
    18ae:	55 c0       	rjmp	.+170    	; 0x195a <xcps_recv_zigbee+0xee>
		return 0;

	if(xcps_rxlen_zigbee >=buff_length) xcps_rxlen_zigbee = 0;
    18b0:	80 91 1b 01 	lds	r24, 0x011B
    18b4:	90 91 1c 01 	lds	r25, 0x011C
    18b8:	80 17       	cp	r24, r16
    18ba:	91 07       	cpc	r25, r17
    18bc:	24 f0       	brlt	.+8      	; 0x18c6 <xcps_recv_zigbee+0x5a>
    18be:	10 92 1c 01 	sts	0x011C, r1
    18c2:	10 92 1b 01 	sts	0x011B, r1
	
	if(temp == ZS_SFLAG) {
    18c6:	89 81       	ldd	r24, Y+1	; 0x01
    18c8:	8a 3f       	cpi	r24, 0xFA	; 250
    18ca:	49 f4       	brne	.+18     	; 0x18de <xcps_recv_zigbee+0x72>
		xcps_rxlen_zigbee = 0;
		xcps_rx_packet_zigbee[xcps_rxlen_zigbee++] = temp;
    18cc:	80 93 93 07 	sts	0x0793, r24
    18d0:	81 e0       	ldi	r24, 0x01	; 1
    18d2:	90 e0       	ldi	r25, 0x00	; 0
    18d4:	90 93 1c 01 	sts	0x011C, r25
    18d8:	80 93 1b 01 	sts	0x011B, r24
    18dc:	3e c0       	rjmp	.+124    	; 0x195a <xcps_recv_zigbee+0xee>
    18de:	40 91 1b 01 	lds	r20, 0x011B
    18e2:	50 91 1c 01 	lds	r21, 0x011C
	}else if(temp == ZS_EFLAG) {
    18e6:	8f 3a       	cpi	r24, 0xAF	; 175
    18e8:	71 f5       	brne	.+92     	; 0x1946 <xcps_recv_zigbee+0xda>
		uint8 len=0;
		uint8 resultLen=0;
		uint8 resultBuff[64];
		
		//getOriginalCode from translated code
		len = xcps_getOriginalCode(resultBuff, &xcps_rx_packet_zigbee[1], xcps_rxlen_zigbee-1) -2;	
    18ea:	41 50       	subi	r20, 0x01	; 1
    18ec:	50 40       	sbci	r21, 0x00	; 0
    18ee:	ce 01       	movw	r24, r28
    18f0:	02 96       	adiw	r24, 0x02	; 2
    18f2:	64 e9       	ldi	r22, 0x94	; 148
    18f4:	77 e0       	ldi	r23, 0x07	; 7
    18f6:	0e 94 01 0c 	call	0x1802	; 0x1802 <xcps_getOriginalCode>
    18fa:	28 2f       	mov	r18, r24
    18fc:	22 50       	subi	r18, 0x02	; 2
				
		//length
		if(len != resultBuff[0]) return 0;
    18fe:	8a 81       	ldd	r24, Y+2	; 0x02
    1900:	28 17       	cp	r18, r24
    1902:	59 f5       	brne	.+86     	; 0x195a <xcps_recv_zigbee+0xee>
    1904:	81 e0       	ldi	r24, 0x01	; 1
    1906:	90 e0       	ldi	r25, 0x00	; 0
		//checksum		
		for (i = 1; i < len; i++)	checkSum += ((uint8)resultBuff[i] & 0xFF);
    1908:	42 2f       	mov	r20, r18
    190a:	50 e0       	ldi	r21, 0x00	; 0
    190c:	01 c0       	rjmp	.+2      	; 0x1910 <xcps_recv_zigbee+0xa4>
    190e:	01 96       	adiw	r24, 0x01	; 1
    1910:	84 17       	cp	r24, r20
    1912:	95 07       	cpc	r25, r21
    1914:	e4 f3       	brlt	.-8      	; 0x190e <xcps_recv_zigbee+0xa2>
    1916:	8f 2d       	mov	r24, r15
    1918:	9e 2d       	mov	r25, r14
    191a:	9c 01       	movw	r18, r24
    191c:	d9 01       	movw	r26, r18
    191e:	20 e0       	ldi	r18, 0x00	; 0
    1920:	30 e0       	ldi	r19, 0x00	; 0
		//if(checkSum!=resultBuff[len-1]) return 0;

		for(i=1; i <= len; i++){
			buff[resultLen++] = resultBuff[i];			
    1922:	be 01       	movw	r22, r28
    1924:	6e 5f       	subi	r22, 0xFE	; 254
    1926:	7f 4f       	sbci	r23, 0xFF	; 255
    1928:	05 c0       	rjmp	.+10     	; 0x1934 <xcps_recv_zigbee+0xc8>
    192a:	fb 01       	movw	r30, r22
    192c:	e2 0f       	add	r30, r18
    192e:	f3 1f       	adc	r31, r19
    1930:	80 81       	ld	r24, Z
    1932:	8d 93       	st	X+, r24
    1934:	82 2f       	mov	r24, r18
    1936:	2f 5f       	subi	r18, 0xFF	; 255
    1938:	3f 4f       	sbci	r19, 0xFF	; 255
		if(len != resultBuff[0]) return 0;
		//checksum		
		for (i = 1; i < len; i++)	checkSum += ((uint8)resultBuff[i] & 0xFF);
		//if(checkSum!=resultBuff[len-1]) return 0;

		for(i=1; i <= len; i++){
    193a:	42 17       	cp	r20, r18
    193c:	53 07       	cpc	r21, r19
    193e:	ac f7       	brge	.-22     	; 0x192a <xcps_recv_zigbee+0xbe>
		}
		//xcps_send_zigbee(xcps_rx_packet_zigbee, resultLen);
	
		
		//MSLEEP(3);
		return resultLen;
    1940:	28 2f       	mov	r18, r24
    1942:	30 e0       	ldi	r19, 0x00	; 0
    1944:	0c c0       	rjmp	.+24     	; 0x195e <xcps_recv_zigbee+0xf2>
	} else {
		xcps_rx_packet_zigbee[xcps_rxlen_zigbee++] = temp;
    1946:	fa 01       	movw	r30, r20
    1948:	ed 56       	subi	r30, 0x6D	; 109
    194a:	f8 4f       	sbci	r31, 0xF8	; 248
    194c:	80 83       	st	Z, r24
    194e:	4f 5f       	subi	r20, 0xFF	; 255
    1950:	5f 4f       	sbci	r21, 0xFF	; 255
    1952:	50 93 1c 01 	sts	0x011C, r21
    1956:	40 93 1b 01 	sts	0x011B, r20
    195a:	20 e0       	ldi	r18, 0x00	; 0
    195c:	30 e0       	ldi	r19, 0x00	; 0
	}	
	return 0;
}
    195e:	c9 01       	movw	r24, r18
    1960:	cf 5b       	subi	r28, 0xBF	; 191
    1962:	df 4f       	sbci	r29, 0xFF	; 255
    1964:	0f b6       	in	r0, 0x3f	; 63
    1966:	f8 94       	cli
    1968:	de bf       	out	0x3e, r29	; 62
    196a:	0f be       	out	0x3f, r0	; 63
    196c:	cd bf       	out	0x3d, r28	; 61
    196e:	cf 91       	pop	r28
    1970:	df 91       	pop	r29
    1972:	1f 91       	pop	r17
    1974:	0f 91       	pop	r16
    1976:	ff 90       	pop	r15
    1978:	ef 90       	pop	r14
    197a:	08 95       	ret

0000197c <xcps_getTrnalatedCode>:
        }else
            resultBuff[resultLen++] = buff[i];
    }  
    return resultLen;
}
int xcps_getTrnalatedCode(uint8 *resultBuff, uint8 *buff, int buff_length){
    197c:	0f 93       	push	r16
    197e:	1f 93       	push	r17
    1980:	9c 01       	movw	r18, r24
    1982:	80 e0       	ldi	r24, 0x00	; 0
    1984:	a0 e0       	ldi	r26, 0x00	; 0
    for(i=0; i < buff_length; i++){        
        if(buff[i]==0xFA) { 
            resultBuff[resultLen++] = 0xFF;
            resultBuff[resultLen++] = 0x01;
        } else if(buff[i] == 0xAF){
            resultBuff[resultLen++] = 0xFF;
    1986:	bf ef       	ldi	r27, 0xFF	; 255
            resultBuff[resultLen++] = 0x02;
    1988:	02 e0       	ldi	r16, 0x02	; 2
	unsigned char resultLen=0;
    unsigned char i=0;
    for(i=0; i < buff_length; i++){        
        if(buff[i]==0xFA) { 
            resultBuff[resultLen++] = 0xFF;
            resultBuff[resultLen++] = 0x01;
    198a:	11 e0       	ldi	r17, 0x01	; 1
    198c:	2d c0       	rjmp	.+90     	; 0x19e8 <xcps_getTrnalatedCode+0x6c>
}
int xcps_getTrnalatedCode(uint8 *resultBuff, uint8 *buff, int buff_length){
	unsigned char resultLen=0;
    unsigned char i=0;
    for(i=0; i < buff_length; i++){        
        if(buff[i]==0xFA) { 
    198e:	e6 0f       	add	r30, r22
    1990:	f7 1f       	adc	r31, r23
    1992:	90 81       	ld	r25, Z
    1994:	9a 3f       	cpi	r25, 0xFA	; 250
    1996:	51 f4       	brne	.+20     	; 0x19ac <xcps_getTrnalatedCode+0x30>
            resultBuff[resultLen++] = 0xFF;
    1998:	f9 01       	movw	r30, r18
    199a:	e8 0f       	add	r30, r24
    199c:	f1 1d       	adc	r31, r1
    199e:	b0 83       	st	Z, r27
    19a0:	8f 5f       	subi	r24, 0xFF	; 255
            resultBuff[resultLen++] = 0x01;
    19a2:	f9 01       	movw	r30, r18
    19a4:	e8 0f       	add	r30, r24
    19a6:	f1 1d       	adc	r31, r1
    19a8:	10 83       	st	Z, r17
    19aa:	0b c0       	rjmp	.+22     	; 0x19c2 <xcps_getTrnalatedCode+0x46>
        } else if(buff[i] == 0xAF){
    19ac:	9f 3a       	cpi	r25, 0xAF	; 175
    19ae:	59 f4       	brne	.+22     	; 0x19c6 <xcps_getTrnalatedCode+0x4a>
            resultBuff[resultLen++] = 0xFF;
    19b0:	f9 01       	movw	r30, r18
    19b2:	e8 0f       	add	r30, r24
    19b4:	f1 1d       	adc	r31, r1
    19b6:	b0 83       	st	Z, r27
    19b8:	8f 5f       	subi	r24, 0xFF	; 255
            resultBuff[resultLen++] = 0x02;
    19ba:	f9 01       	movw	r30, r18
    19bc:	e8 0f       	add	r30, r24
    19be:	f1 1d       	adc	r31, r1
    19c0:	00 83       	st	Z, r16
    19c2:	8f 5f       	subi	r24, 0xFF	; 255
    19c4:	10 c0       	rjmp	.+32     	; 0x19e6 <xcps_getTrnalatedCode+0x6a>
    19c6:	e8 2f       	mov	r30, r24
    19c8:	f0 e0       	ldi	r31, 0x00	; 0
    19ca:	8f 5f       	subi	r24, 0xFF	; 255
        } else if(buff[i] == 0xFF){
    19cc:	9f 3f       	cpi	r25, 0xFF	; 255
    19ce:	41 f4       	brne	.+16     	; 0x19e0 <xcps_getTrnalatedCode+0x64>
            resultBuff[resultLen++] = 0xFF;
    19d0:	e2 0f       	add	r30, r18
    19d2:	f3 1f       	adc	r31, r19
    19d4:	90 83       	st	Z, r25
            resultBuff[resultLen++] = 0xFF;
    19d6:	f9 01       	movw	r30, r18
    19d8:	e8 0f       	add	r30, r24
    19da:	f1 1d       	adc	r31, r1
    19dc:	90 83       	st	Z, r25
    19de:	f1 cf       	rjmp	.-30     	; 0x19c2 <xcps_getTrnalatedCode+0x46>
        } else
            resultBuff[resultLen++] = buff[i];
    19e0:	e2 0f       	add	r30, r18
    19e2:	f3 1f       	adc	r31, r19
    19e4:	90 83       	st	Z, r25
    return resultLen;
}
int xcps_getTrnalatedCode(uint8 *resultBuff, uint8 *buff, int buff_length){
	unsigned char resultLen=0;
    unsigned char i=0;
    for(i=0; i < buff_length; i++){        
    19e6:	af 5f       	subi	r26, 0xFF	; 255
    19e8:	ea 2f       	mov	r30, r26
    19ea:	f0 e0       	ldi	r31, 0x00	; 0
    19ec:	e4 17       	cp	r30, r20
    19ee:	f5 07       	cpc	r31, r21
    19f0:	74 f2       	brlt	.-100    	; 0x198e <xcps_getTrnalatedCode+0x12>
            resultBuff[resultLen++] = 0xFF;
        } else
            resultBuff[resultLen++] = buff[i];
    }  
    return resultLen;
}
    19f2:	90 e0       	ldi	r25, 0x00	; 0
    19f4:	1f 91       	pop	r17
    19f6:	0f 91       	pop	r16
    19f8:	08 95       	ret

000019fa <getState>:
}

uint8 getState()
{
	return tmp_zrmp.zrm_State;
}
    19fa:	80 91 15 08 	lds	r24, 0x0815
    19fe:	08 95       	ret

00001a00 <sendData_Remote>:

void sendData_Remote(uint16 dst_Addr, uint8 msg[], int length)
{
	int len = 0;

	tmp_Buff[len++] = 0x11;
    1a00:	21 e1       	ldi	r18, 0x11	; 17
    1a02:	20 93 d7 02 	sts	0x02D7, r18
	tmp_Buff[len++] = (uint8)(dst_Addr >> 8);
    1a06:	90 93 d8 02 	sts	0x02D8, r25
	tmp_Buff[len++] = (uint8)(dst_Addr);
    1a0a:	80 93 d9 02 	sts	0x02D9, r24
	tmp_Buff[len++] = (uint8)(tmp_zrmp.zrm_Id >> 8);
    1a0e:	90 91 13 08 	lds	r25, 0x0813
    1a12:	80 91 14 08 	lds	r24, 0x0814
    1a16:	80 93 da 02 	sts	0x02DA, r24
	tmp_Buff[len++] = (uint8)(tmp_zrmp.zrm_Id);
    1a1a:	90 93 db 02 	sts	0x02DB, r25

	xcps_send_zigbee(tmp_Buff, len);
    1a1e:	87 ed       	ldi	r24, 0xD7	; 215
    1a20:	92 e0       	ldi	r25, 0x02	; 2
    1a22:	65 e0       	ldi	r22, 0x05	; 5
    1a24:	70 e0       	ldi	r23, 0x00	; 0
    1a26:	0e 94 49 0a 	call	0x1492	; 0x1492 <xcps_send_zigbee>
    1a2a:	80 ee       	ldi	r24, 0xE0	; 224
    1a2c:	9e e2       	ldi	r25, 0x2E	; 46
    1a2e:	01 97       	sbiw	r24, 0x01	; 1
    1a30:	f1 f7       	brne	.-4      	; 0x1a2e <sendData_Remote+0x2e>
	MSLEEP(3);
}
    1a32:	08 95       	ret

00001a34 <ZRMSendSetPreconfig>:
}

void ZRMSendSetPreconfig(uint8 preconfig){
	int len = 0;

	tmp_Buff[len++] = ZRMP_PROTOCOL_ID;
    1a34:	10 92 d7 02 	sts	0x02D7, r1
	tmp_Buff[len++] = ZRMP_REQ_CONFIG_SET;
    1a38:	90 e4       	ldi	r25, 0x40	; 64
    1a3a:	90 93 d8 02 	sts	0x02D8, r25
	tmp_Buff[len++] = 0x05;
    1a3e:	95 e0       	ldi	r25, 0x05	; 5
    1a40:	90 93 d9 02 	sts	0x02D9, r25
	tmp_Buff[len++] = (preconfig&0xff);
    1a44:	80 93 da 02 	sts	0x02DA, r24

	
	xcps_send_zigbee(tmp_Buff, len);	
    1a48:	87 ed       	ldi	r24, 0xD7	; 215
    1a4a:	92 e0       	ldi	r25, 0x02	; 2
    1a4c:	64 e0       	ldi	r22, 0x04	; 4
    1a4e:	70 e0       	ldi	r23, 0x00	; 0
    1a50:	0e 94 49 0a 	call	0x1492	; 0x1492 <xcps_send_zigbee>
    1a54:	80 ee       	ldi	r24, 0xE0	; 224
    1a56:	9e e2       	ldi	r25, 0x2E	; 46
    1a58:	01 97       	sbiw	r24, 0x01	; 1
    1a5a:	f1 f7       	brne	.-4      	; 0x1a58 <ZRMSendSetPreconfig+0x24>
	MSLEEP(3);
}
    1a5c:	08 95       	ret

00001a5e <ZRMSendSetChannel>:
}

void ZRMSendSetChannel(uint8 channel){
	int len = 0;

	tmp_Buff[len++] = ZRMP_PROTOCOL_ID;
    1a5e:	10 92 d7 02 	sts	0x02D7, r1
	tmp_Buff[len++] = ZRMP_REQ_CONFIG_SET;
    1a62:	90 e4       	ldi	r25, 0x40	; 64
    1a64:	90 93 d8 02 	sts	0x02D8, r25
	tmp_Buff[len++] = 0x02;
    1a68:	92 e0       	ldi	r25, 0x02	; 2
    1a6a:	90 93 d9 02 	sts	0x02D9, r25
	tmp_Buff[len++] = (channel&0xff);
    1a6e:	80 93 da 02 	sts	0x02DA, r24

	
	xcps_send_zigbee(tmp_Buff, len);	
    1a72:	87 ed       	ldi	r24, 0xD7	; 215
    1a74:	92 e0       	ldi	r25, 0x02	; 2
    1a76:	64 e0       	ldi	r22, 0x04	; 4
    1a78:	70 e0       	ldi	r23, 0x00	; 0
    1a7a:	0e 94 49 0a 	call	0x1492	; 0x1492 <xcps_send_zigbee>
    1a7e:	80 ee       	ldi	r24, 0xE0	; 224
    1a80:	9e e2       	ldi	r25, 0x2E	; 46
    1a82:	01 97       	sbiw	r24, 0x01	; 1
    1a84:	f1 f7       	brne	.-4      	; 0x1a82 <ZRMSendSetChannel+0x24>
	MSLEEP(3);
}
    1a86:	08 95       	ret

00001a88 <ZRMSendSetPanID>:
}

void ZRMSendSetPanID(uint16 panId){
	int len = 0;

	tmp_Buff[len++] = ZRMP_PROTOCOL_ID;
    1a88:	10 92 d7 02 	sts	0x02D7, r1
	tmp_Buff[len++] = ZRMP_REQ_PANID_SET;
    1a8c:	20 e3       	ldi	r18, 0x30	; 48
    1a8e:	20 93 d8 02 	sts	0x02D8, r18
	tmp_Buff[len++] = panId >> 8;
    1a92:	90 93 d9 02 	sts	0x02D9, r25
	tmp_Buff[len++] = (panId&0xff);
    1a96:	80 93 da 02 	sts	0x02DA, r24

	
	xcps_send_zigbee(tmp_Buff, len);	
    1a9a:	87 ed       	ldi	r24, 0xD7	; 215
    1a9c:	92 e0       	ldi	r25, 0x02	; 2
    1a9e:	64 e0       	ldi	r22, 0x04	; 4
    1aa0:	70 e0       	ldi	r23, 0x00	; 0
    1aa2:	0e 94 49 0a 	call	0x1492	; 0x1492 <xcps_send_zigbee>
    1aa6:	80 ee       	ldi	r24, 0xE0	; 224
    1aa8:	9e e2       	ldi	r25, 0x2E	; 46
    1aaa:	01 97       	sbiw	r24, 0x01	; 1
    1aac:	f1 f7       	brne	.-4      	; 0x1aaa <ZRMSendSetPanID+0x22>
	MSLEEP(3);
}
    1aae:	08 95       	ret

00001ab0 <ZRMSendReset>:
}

void ZRMSendReset(){
	int len = 0;
	
	tmp_Buff[len++] = ZRMP_PROTOCOL_ID;
    1ab0:	10 92 d7 02 	sts	0x02D7, r1
	tmp_Buff[len++] = ZRMP_REQ_RESET;
    1ab4:	81 e0       	ldi	r24, 0x01	; 1
    1ab6:	80 93 d8 02 	sts	0x02D8, r24
	tmp_Buff[len++] = ZRMP_REQ_RESET;
    1aba:	80 93 d9 02 	sts	0x02D9, r24
	
	xcps_send_zigbee(tmp_Buff, len);
    1abe:	87 ed       	ldi	r24, 0xD7	; 215
    1ac0:	92 e0       	ldi	r25, 0x02	; 2
    1ac2:	63 e0       	ldi	r22, 0x03	; 3
    1ac4:	70 e0       	ldi	r23, 0x00	; 0
    1ac6:	0e 94 49 0a 	call	0x1492	; 0x1492 <xcps_send_zigbee>
    1aca:	80 ee       	ldi	r24, 0xE0	; 224
    1acc:	9e e2       	ldi	r25, 0x2E	; 46
    1ace:	01 97       	sbiw	r24, 0x01	; 1
    1ad0:	f1 f7       	brne	.-4      	; 0x1ace <ZRMSendReset+0x1e>
	MSLEEP(3);
}
    1ad2:	08 95       	ret

00001ad4 <ZRMsendConfig>:

void ZRMsendConfig()
{
	int len = 0;

	tmp_Buff[len++] = ZRMP_PROTOCOL_ID;
    1ad4:	10 92 d7 02 	sts	0x02D7, r1
	tmp_Buff[len++] = ZRMP_REQ_CONFIG;
    1ad8:	80 e1       	ldi	r24, 0x10	; 16
    1ada:	80 93 d8 02 	sts	0x02D8, r24
	tmp_Buff[len++] = ZRMP_MSG_FORMAT;
    1ade:	10 92 d9 02 	sts	0x02D9, r1
	
	xcps_send_zigbee(tmp_Buff, len);	
    1ae2:	87 ed       	ldi	r24, 0xD7	; 215
    1ae4:	92 e0       	ldi	r25, 0x02	; 2
    1ae6:	63 e0       	ldi	r22, 0x03	; 3
    1ae8:	70 e0       	ldi	r23, 0x00	; 0
    1aea:	0e 94 49 0a 	call	0x1492	; 0x1492 <xcps_send_zigbee>
    1aee:	80 ee       	ldi	r24, 0xE0	; 224
    1af0:	9e e2       	ldi	r25, 0x2E	; 46
    1af2:	01 97       	sbiw	r24, 0x01	; 1
    1af4:	f1 f7       	brne	.-4      	; 0x1af2 <ZRMsendConfig+0x1e>
	MSLEEP(3);
}
    1af6:	08 95       	ret

00001af8 <ZRMsendPing>:

void ZRMsendPing()
{
	int len = 0;
	
	tmp_Buff[len++] = ZRMP_PROTOCOL_ID;
    1af8:	10 92 d7 02 	sts	0x02D7, r1
	tmp_Buff[len++] = ZRMP_REQ_PING;
    1afc:	10 92 d8 02 	sts	0x02D8, r1
	
	xcps_send_zigbee(tmp_Buff, len);
    1b00:	87 ed       	ldi	r24, 0xD7	; 215
    1b02:	92 e0       	ldi	r25, 0x02	; 2
    1b04:	62 e0       	ldi	r22, 0x02	; 2
    1b06:	70 e0       	ldi	r23, 0x00	; 0
    1b08:	0e 94 49 0a 	call	0x1492	; 0x1492 <xcps_send_zigbee>
    1b0c:	80 ee       	ldi	r24, 0xE0	; 224
    1b0e:	9e e2       	ldi	r25, 0x2E	; 46
    1b10:	01 97       	sbiw	r24, 0x01	; 1
    1b12:	f1 f7       	brne	.-4      	; 0x1b10 <ZRMsendPing+0x18>
	MSLEEP(3);
}
    1b14:	08 95       	ret

00001b16 <sendData>:
}


//
void sendData(uint16 dst_Addr, uint8 msg[], int length)
{
    1b16:	ef 92       	push	r14
    1b18:	ff 92       	push	r15
    1b1a:	0f 93       	push	r16
    1b1c:	1f 93       	push	r17
    1b1e:	df 93       	push	r29
    1b20:	cf 93       	push	r28
    1b22:	cd b7       	in	r28, 0x3d	; 61
    1b24:	de b7       	in	r29, 0x3e	; 62
    1b26:	c0 58       	subi	r28, 0x80	; 128
    1b28:	d0 40       	sbci	r29, 0x00	; 0
    1b2a:	0f b6       	in	r0, 0x3f	; 63
    1b2c:	f8 94       	cli
    1b2e:	de bf       	out	0x3e, r29	; 62
    1b30:	0f be       	out	0x3f, r0	; 63
    1b32:	cd bf       	out	0x3d, r28	; 61
    1b34:	7b 01       	movw	r14, r22
    1b36:	8a 01       	movw	r16, r20
	int resultLen;
	int i=0;
	uint8 tmp_Buff[64];	
	uint8 resultBuff[64];

	tmp_Buff[len++] = 0x10;
    1b38:	20 e1       	ldi	r18, 0x10	; 16
    1b3a:	29 83       	std	Y+1, r18	; 0x01
	tmp_Buff[len++] = (uint8)(dst_Addr >> 8);
    1b3c:	9a 83       	std	Y+2, r25	; 0x02
	tmp_Buff[len++] = (uint8)(dst_Addr);
    1b3e:	8b 83       	std	Y+3, r24	; 0x03
	tmp_Buff[len++] = (uint8)(tmp_zrmp.zrm_Id >> 8);
    1b40:	90 91 13 08 	lds	r25, 0x0813
    1b44:	80 91 14 08 	lds	r24, 0x0814
    1b48:	8c 83       	std	Y+4, r24	; 0x04
	tmp_Buff[len++] = (uint8)(tmp_zrmp.zrm_Id);
    1b4a:	9d 83       	std	Y+5, r25	; 0x05
    1b4c:	45 e0       	ldi	r20, 0x05	; 5
    1b4e:	50 e0       	ldi	r21, 0x00	; 0
    1b50:	20 e0       	ldi	r18, 0x00	; 0
    1b52:	30 e0       	ldi	r19, 0x00	; 0
    1b54:	be 01       	movw	r22, r28
    1b56:	6f 5f       	subi	r22, 0xFF	; 255
    1b58:	7f 4f       	sbci	r23, 0xFF	; 255
    1b5a:	0c c0       	rjmp	.+24     	; 0x1b74 <sendData+0x5e>
	for(i=0; i < length; i++)
		tmp_Buff[len++] = msg[i];
    1b5c:	fb 01       	movw	r30, r22
    1b5e:	e4 0f       	add	r30, r20
    1b60:	f5 1f       	adc	r31, r21
    1b62:	d7 01       	movw	r26, r14
    1b64:	a2 0f       	add	r26, r18
    1b66:	b3 1f       	adc	r27, r19
    1b68:	8c 91       	ld	r24, X
    1b6a:	80 83       	st	Z, r24
    1b6c:	4f 5f       	subi	r20, 0xFF	; 255
    1b6e:	5f 4f       	sbci	r21, 0xFF	; 255
	tmp_Buff[len++] = 0x10;
	tmp_Buff[len++] = (uint8)(dst_Addr >> 8);
	tmp_Buff[len++] = (uint8)(dst_Addr);
	tmp_Buff[len++] = (uint8)(tmp_zrmp.zrm_Id >> 8);
	tmp_Buff[len++] = (uint8)(tmp_zrmp.zrm_Id);
	for(i=0; i < length; i++)
    1b70:	2f 5f       	subi	r18, 0xFF	; 255
    1b72:	3f 4f       	sbci	r19, 0xFF	; 255
    1b74:	20 17       	cp	r18, r16
    1b76:	31 07       	cpc	r19, r17
    1b78:	8c f3       	brlt	.-30     	; 0x1b5c <sendData+0x46>
		tmp_Buff[len++] = msg[i];
	
	//(uint8 *resultBuff, uint8 *buff, int buff_length){
	resultLen = xcps_getTrnalatedCode(resultBuff, tmp_Buff, len);
    1b7a:	8e 01       	movw	r16, r28
    1b7c:	0f 5b       	subi	r16, 0xBF	; 191
    1b7e:	1f 4f       	sbci	r17, 0xFF	; 255
    1b80:	c8 01       	movw	r24, r16
    1b82:	0e 94 be 0c 	call	0x197c	; 0x197c <xcps_getTrnalatedCode>
    1b86:	bc 01       	movw	r22, r24
		
	xcps_send_zigbee(resultBuff, resultLen);
    1b88:	c8 01       	movw	r24, r16
    1b8a:	0e 94 49 0a 	call	0x1492	; 0x1492 <xcps_send_zigbee>
    1b8e:	80 ee       	ldi	r24, 0xE0	; 224
    1b90:	9e e2       	ldi	r25, 0x2E	; 46
    1b92:	01 97       	sbiw	r24, 0x01	; 1
    1b94:	f1 f7       	brne	.-4      	; 0x1b92 <sendData+0x7c>
	MSLEEP(3);
}
    1b96:	c0 58       	subi	r28, 0x80	; 128
    1b98:	df 4f       	sbci	r29, 0xFF	; 255
    1b9a:	0f b6       	in	r0, 0x3f	; 63
    1b9c:	f8 94       	cli
    1b9e:	de bf       	out	0x3e, r29	; 62
    1ba0:	0f be       	out	0x3f, r0	; 63
    1ba2:	cd bf       	out	0x3d, r28	; 61
    1ba4:	cf 91       	pop	r28
    1ba6:	df 91       	pop	r29
    1ba8:	1f 91       	pop	r17
    1baa:	0f 91       	pop	r16
    1bac:	ff 90       	pop	r15
    1bae:	ef 90       	pop	r14
    1bb0:	08 95       	ret

00001bb2 <ZRMPMessage>:

#define PanIDEnable 1


void ZRMPMessage(uint8 buff[], int buff_length)
{
    1bb2:	ff 92       	push	r15
    1bb4:	0f 93       	push	r16
    1bb6:	1f 93       	push	r17
    1bb8:	fc 01       	movw	r30, r24
	switch(buff[0])
    1bba:	f0 80       	ld	r15, Z
    1bbc:	81 e1       	ldi	r24, 0x11	; 17
    1bbe:	f8 16       	cp	r15, r24
    1bc0:	a9 f1       	breq	.+106    	; 0x1c2c <ZRMPMessage+0x7a>
    1bc2:	81 ea       	ldi	r24, 0xA1	; 161
    1bc4:	f8 16       	cp	r15, r24
    1bc6:	09 f4       	brne	.+2      	; 0x1bca <ZRMPMessage+0x18>
    1bc8:	4b c0       	rjmp	.+150    	; 0x1c60 <ZRMPMessage+0xae>
    1bca:	81 e0       	ldi	r24, 0x01	; 1
    1bcc:	f8 16       	cp	r15, r24
    1bce:	09 f0       	breq	.+2      	; 0x1bd2 <ZRMPMessage+0x20>
    1bd0:	49 c0       	rjmp	.+146    	; 0x1c64 <ZRMPMessage+0xb2>
	{
		case ZRMP_RES_PING:
			// Response Ping			
			tmp_zrmp.zrm_Id = (uint16)(buff[11] << 8) | (buff[12]);
    1bd2:	93 85       	ldd	r25, Z+11	; 0x0b
    1bd4:	80 e0       	ldi	r24, 0x00	; 0
    1bd6:	24 85       	ldd	r18, Z+12	; 0x0c
    1bd8:	30 e0       	ldi	r19, 0x00	; 0
    1bda:	82 2b       	or	r24, r18
    1bdc:	93 2b       	or	r25, r19
    1bde:	90 93 14 08 	sts	0x0814, r25
    1be2:	80 93 13 08 	sts	0x0813, r24
			tmp_zrmp.zrm_Panid = (uint16)(buff[13] << 8) | (buff[14]);
    1be6:	95 85       	ldd	r25, Z+13	; 0x0d
    1be8:	80 e0       	ldi	r24, 0x00	; 0
    1bea:	06 85       	ldd	r16, Z+14	; 0x0e
    1bec:	10 e0       	ldi	r17, 0x00	; 0
    1bee:	08 2b       	or	r16, r24
    1bf0:	19 2b       	or	r17, r25
    1bf2:	10 93 17 08 	sts	0x0817, r17
    1bf6:	00 93 16 08 	sts	0x0816, r16
			if(PanIDEnable==1){
				if(tmp_zrmp.zrm_Panid != (0x0100 | (rotary_GetValue()&0x0f))){
    1bfa:	0e 94 43 0e 	call	0x1c86	; 0x1c86 <rotary_GetValue>
    1bfe:	90 e0       	ldi	r25, 0x00	; 0
    1c00:	8f 70       	andi	r24, 0x0F	; 15
    1c02:	90 70       	andi	r25, 0x00	; 0
    1c04:	91 60       	ori	r25, 0x01	; 1
    1c06:	08 17       	cp	r16, r24
    1c08:	19 07       	cpc	r17, r25
    1c0a:	69 f0       	breq	.+26     	; 0x1c26 <ZRMPMessage+0x74>
					tmp_zrmp.zrm_State = ZRM_INIT;
    1c0c:	10 92 15 08 	sts	0x0815, r1
					ZRMSendSetPanID(0x0100 | (rotary_GetValue()&0x0f));
    1c10:	0e 94 43 0e 	call	0x1c86	; 0x1c86 <rotary_GetValue>
    1c14:	90 e0       	ldi	r25, 0x00	; 0
    1c16:	8f 70       	andi	r24, 0x0F	; 15
    1c18:	90 70       	andi	r25, 0x00	; 0
    1c1a:	91 60       	ori	r25, 0x01	; 1
    1c1c:	0e 94 44 0d 	call	0x1a88	; 0x1a88 <ZRMSendSetPanID>
					ZRMSendReset();
    1c20:	0e 94 58 0d 	call	0x1ab0	; 0x1ab0 <ZRMSendReset>
    1c24:	1f c0       	rjmp	.+62     	; 0x1c64 <ZRMPMessage+0xb2>
				}
				else{
					//if(tmp_zrmp.zrm_State!=ZRM_CONNECT)	
					{
						tmp_zrmp.zrm_State = ZRM_PING_COMPLETE;			
    1c26:	f0 92 15 08 	sts	0x0815, r15
    1c2a:	13 c0       	rjmp	.+38     	; 0x1c52 <ZRMPMessage+0xa0>
			break;
			
		case ZRMP_RES_CONFIG:
			// Response Config
			if(PanIDEnable==1){
				tmp_zrmp.zrm_Channel = buff[9];
    1c2c:	01 85       	ldd	r16, Z+9	; 0x09
    1c2e:	00 93 18 08 	sts	0x0818, r16

				if(tmp_zrmp.zrm_Channel != (rotary_GetValue()%16 + 11)) {
    1c32:	0e 94 43 0e 	call	0x1c86	; 0x1c86 <rotary_GetValue>
    1c36:	10 e0       	ldi	r17, 0x00	; 0
    1c38:	90 e0       	ldi	r25, 0x00	; 0
    1c3a:	8f 70       	andi	r24, 0x0F	; 15
    1c3c:	90 70       	andi	r25, 0x00	; 0
    1c3e:	0b 96       	adiw	r24, 0x0b	; 11
    1c40:	08 17       	cp	r16, r24
    1c42:	19 07       	cpc	r17, r25
    1c44:	49 f0       	breq	.+18     	; 0x1c58 <ZRMPMessage+0xa6>
					ZRMSendSetChannel(rotary_GetValue()%16 + 11);
    1c46:	0e 94 43 0e 	call	0x1c86	; 0x1c86 <rotary_GetValue>
    1c4a:	8f 70       	andi	r24, 0x0F	; 15
    1c4c:	85 5f       	subi	r24, 0xF5	; 245
    1c4e:	0e 94 2f 0d 	call	0x1a5e	; 0x1a5e <ZRMSendSetChannel>
					ZRMsendConfig();
    1c52:	0e 94 6a 0d 	call	0x1ad4	; 0x1ad4 <ZRMsendConfig>
    1c56:	06 c0       	rjmp	.+12     	; 0x1c64 <ZRMPMessage+0xb2>
				}else
					tmp_zrmp.zrm_State = ZRM_CONNECT;
    1c58:	83 e0       	ldi	r24, 0x03	; 3
    1c5a:	80 93 15 08 	sts	0x0815, r24
    1c5e:	02 c0       	rjmp	.+4      	; 0x1c64 <ZRMPMessage+0xb2>

		case ZRMP_RES_NWK_INIT:
#ifdef DEBUG_ENABLE
			printf("\nZigbee Module Initalize");
#endif			
			ZRMsendPing();
    1c60:	0e 94 7c 0d 	call	0x1af8	; 0x1af8 <ZRMsendPing>
			
		default:
			// ERROR
			break;
	}
}
    1c64:	1f 91       	pop	r17
    1c66:	0f 91       	pop	r16
    1c68:	ff 90       	pop	r15
    1c6a:	08 95       	ret

00001c6c <initRotary>:
#include <avr/io.h>
#include <avr/iom128.h>


void initRotary(){
    DDRB &= ~(0xF0);    
    1c6c:	87 b3       	in	r24, 0x17	; 23
    1c6e:	8f 70       	andi	r24, 0x0F	; 15
    1c70:	87 bb       	out	0x17, r24	; 23
    DDRE &= ~(0xF0);    
    1c72:	82 b1       	in	r24, 0x02	; 2
    1c74:	8f 70       	andi	r24, 0x0F	; 15
    1c76:	82 b9       	out	0x02, r24	; 2

	PORTB |= 0xF0;
    1c78:	88 b3       	in	r24, 0x18	; 24
    1c7a:	80 6f       	ori	r24, 0xF0	; 240
    1c7c:	88 bb       	out	0x18, r24	; 24
	PORTE |= 0xF0;
    1c7e:	83 b1       	in	r24, 0x03	; 3
    1c80:	80 6f       	ori	r24, 0xF0	; 240
    1c82:	83 b9       	out	0x03, r24	; 3
}
    1c84:	08 95       	ret

00001c86 <rotary_GetValue>:

uint8 rotary_GetValue() {
    uint8 id=0;

	id = (PINB & 0xF0) | (PINE>>4);
    1c86:	96 b3       	in	r25, 0x16	; 22
    1c88:	81 b1       	in	r24, 0x01	; 1
    1c8a:	82 95       	swap	r24
    1c8c:	8f 70       	andi	r24, 0x0F	; 15
    1c8e:	90 7f       	andi	r25, 0xF0	; 240
    1c90:	89 2b       	or	r24, r25
    
    return 0xff-id;    
}
    1c92:	80 95       	com	r24
    1c94:	08 95       	ret

00001c96 <__mulsi3>:
    1c96:	62 9f       	mul	r22, r18
    1c98:	d0 01       	movw	r26, r0
    1c9a:	73 9f       	mul	r23, r19
    1c9c:	f0 01       	movw	r30, r0
    1c9e:	82 9f       	mul	r24, r18
    1ca0:	e0 0d       	add	r30, r0
    1ca2:	f1 1d       	adc	r31, r1
    1ca4:	64 9f       	mul	r22, r20
    1ca6:	e0 0d       	add	r30, r0
    1ca8:	f1 1d       	adc	r31, r1
    1caa:	92 9f       	mul	r25, r18
    1cac:	f0 0d       	add	r31, r0
    1cae:	83 9f       	mul	r24, r19
    1cb0:	f0 0d       	add	r31, r0
    1cb2:	74 9f       	mul	r23, r20
    1cb4:	f0 0d       	add	r31, r0
    1cb6:	65 9f       	mul	r22, r21
    1cb8:	f0 0d       	add	r31, r0
    1cba:	99 27       	eor	r25, r25
    1cbc:	72 9f       	mul	r23, r18
    1cbe:	b0 0d       	add	r27, r0
    1cc0:	e1 1d       	adc	r30, r1
    1cc2:	f9 1f       	adc	r31, r25
    1cc4:	63 9f       	mul	r22, r19
    1cc6:	b0 0d       	add	r27, r0
    1cc8:	e1 1d       	adc	r30, r1
    1cca:	f9 1f       	adc	r31, r25
    1ccc:	bd 01       	movw	r22, r26
    1cce:	cf 01       	movw	r24, r30
    1cd0:	11 24       	eor	r1, r1
    1cd2:	08 95       	ret

00001cd4 <printf_P>:
    1cd4:	df 93       	push	r29
    1cd6:	cf 93       	push	r28
    1cd8:	cd b7       	in	r28, 0x3d	; 61
    1cda:	de b7       	in	r29, 0x3e	; 62
    1cdc:	fe 01       	movw	r30, r28
    1cde:	35 96       	adiw	r30, 0x05	; 5
    1ce0:	61 91       	ld	r22, Z+
    1ce2:	71 91       	ld	r23, Z+
    1ce4:	a0 91 1b 08 	lds	r26, 0x081B
    1ce8:	b0 91 1c 08 	lds	r27, 0x081C
    1cec:	13 96       	adiw	r26, 0x03	; 3
    1cee:	8c 91       	ld	r24, X
    1cf0:	13 97       	sbiw	r26, 0x03	; 3
    1cf2:	88 60       	ori	r24, 0x08	; 8
    1cf4:	13 96       	adiw	r26, 0x03	; 3
    1cf6:	8c 93       	st	X, r24
    1cf8:	80 91 1b 08 	lds	r24, 0x081B
    1cfc:	90 91 1c 08 	lds	r25, 0x081C
    1d00:	af 01       	movw	r20, r30
    1d02:	0e 94 8d 0e 	call	0x1d1a	; 0x1d1a <vfprintf>
    1d06:	e0 91 1b 08 	lds	r30, 0x081B
    1d0a:	f0 91 1c 08 	lds	r31, 0x081C
    1d0e:	23 81       	ldd	r18, Z+3	; 0x03
    1d10:	27 7f       	andi	r18, 0xF7	; 247
    1d12:	23 83       	std	Z+3, r18	; 0x03
    1d14:	cf 91       	pop	r28
    1d16:	df 91       	pop	r29
    1d18:	08 95       	ret

00001d1a <vfprintf>:
    1d1a:	2f 92       	push	r2
    1d1c:	3f 92       	push	r3
    1d1e:	4f 92       	push	r4
    1d20:	5f 92       	push	r5
    1d22:	6f 92       	push	r6
    1d24:	7f 92       	push	r7
    1d26:	8f 92       	push	r8
    1d28:	9f 92       	push	r9
    1d2a:	af 92       	push	r10
    1d2c:	bf 92       	push	r11
    1d2e:	cf 92       	push	r12
    1d30:	df 92       	push	r13
    1d32:	ef 92       	push	r14
    1d34:	ff 92       	push	r15
    1d36:	0f 93       	push	r16
    1d38:	1f 93       	push	r17
    1d3a:	df 93       	push	r29
    1d3c:	cf 93       	push	r28
    1d3e:	cd b7       	in	r28, 0x3d	; 61
    1d40:	de b7       	in	r29, 0x3e	; 62
    1d42:	2b 97       	sbiw	r28, 0x0b	; 11
    1d44:	0f b6       	in	r0, 0x3f	; 63
    1d46:	f8 94       	cli
    1d48:	de bf       	out	0x3e, r29	; 62
    1d4a:	0f be       	out	0x3f, r0	; 63
    1d4c:	cd bf       	out	0x3d, r28	; 61
    1d4e:	3c 01       	movw	r6, r24
    1d50:	2b 01       	movw	r4, r22
    1d52:	5a 01       	movw	r10, r20
    1d54:	fc 01       	movw	r30, r24
    1d56:	17 82       	std	Z+7, r1	; 0x07
    1d58:	16 82       	std	Z+6, r1	; 0x06
    1d5a:	83 81       	ldd	r24, Z+3	; 0x03
    1d5c:	81 fd       	sbrc	r24, 1
    1d5e:	03 c0       	rjmp	.+6      	; 0x1d66 <vfprintf+0x4c>
    1d60:	6f ef       	ldi	r22, 0xFF	; 255
    1d62:	7f ef       	ldi	r23, 0xFF	; 255
    1d64:	c6 c1       	rjmp	.+908    	; 0x20f2 <vfprintf+0x3d8>
    1d66:	9a e0       	ldi	r25, 0x0A	; 10
    1d68:	89 2e       	mov	r8, r25
    1d6a:	1e 01       	movw	r2, r28
    1d6c:	08 94       	sec
    1d6e:	21 1c       	adc	r2, r1
    1d70:	31 1c       	adc	r3, r1
    1d72:	f3 01       	movw	r30, r6
    1d74:	23 81       	ldd	r18, Z+3	; 0x03
    1d76:	f2 01       	movw	r30, r4
    1d78:	23 fd       	sbrc	r18, 3
    1d7a:	85 91       	lpm	r24, Z+
    1d7c:	23 ff       	sbrs	r18, 3
    1d7e:	81 91       	ld	r24, Z+
    1d80:	2f 01       	movw	r4, r30
    1d82:	88 23       	and	r24, r24
    1d84:	09 f4       	brne	.+2      	; 0x1d88 <vfprintf+0x6e>
    1d86:	b2 c1       	rjmp	.+868    	; 0x20ec <vfprintf+0x3d2>
    1d88:	85 32       	cpi	r24, 0x25	; 37
    1d8a:	39 f4       	brne	.+14     	; 0x1d9a <vfprintf+0x80>
    1d8c:	23 fd       	sbrc	r18, 3
    1d8e:	85 91       	lpm	r24, Z+
    1d90:	23 ff       	sbrs	r18, 3
    1d92:	81 91       	ld	r24, Z+
    1d94:	2f 01       	movw	r4, r30
    1d96:	85 32       	cpi	r24, 0x25	; 37
    1d98:	29 f4       	brne	.+10     	; 0x1da4 <vfprintf+0x8a>
    1d9a:	90 e0       	ldi	r25, 0x00	; 0
    1d9c:	b3 01       	movw	r22, r6
    1d9e:	0e 94 a9 10 	call	0x2152	; 0x2152 <fputc>
    1da2:	e7 cf       	rjmp	.-50     	; 0x1d72 <vfprintf+0x58>
    1da4:	98 2f       	mov	r25, r24
    1da6:	ff 24       	eor	r15, r15
    1da8:	ee 24       	eor	r14, r14
    1daa:	99 24       	eor	r9, r9
    1dac:	ff e1       	ldi	r31, 0x1F	; 31
    1dae:	ff 15       	cp	r31, r15
    1db0:	d0 f0       	brcs	.+52     	; 0x1de6 <vfprintf+0xcc>
    1db2:	9b 32       	cpi	r25, 0x2B	; 43
    1db4:	69 f0       	breq	.+26     	; 0x1dd0 <vfprintf+0xb6>
    1db6:	9c 32       	cpi	r25, 0x2C	; 44
    1db8:	28 f4       	brcc	.+10     	; 0x1dc4 <vfprintf+0xaa>
    1dba:	90 32       	cpi	r25, 0x20	; 32
    1dbc:	59 f0       	breq	.+22     	; 0x1dd4 <vfprintf+0xba>
    1dbe:	93 32       	cpi	r25, 0x23	; 35
    1dc0:	91 f4       	brne	.+36     	; 0x1de6 <vfprintf+0xcc>
    1dc2:	0e c0       	rjmp	.+28     	; 0x1de0 <vfprintf+0xc6>
    1dc4:	9d 32       	cpi	r25, 0x2D	; 45
    1dc6:	49 f0       	breq	.+18     	; 0x1dda <vfprintf+0xc0>
    1dc8:	90 33       	cpi	r25, 0x30	; 48
    1dca:	69 f4       	brne	.+26     	; 0x1de6 <vfprintf+0xcc>
    1dcc:	41 e0       	ldi	r20, 0x01	; 1
    1dce:	24 c0       	rjmp	.+72     	; 0x1e18 <vfprintf+0xfe>
    1dd0:	52 e0       	ldi	r21, 0x02	; 2
    1dd2:	f5 2a       	or	r15, r21
    1dd4:	84 e0       	ldi	r24, 0x04	; 4
    1dd6:	f8 2a       	or	r15, r24
    1dd8:	28 c0       	rjmp	.+80     	; 0x1e2a <vfprintf+0x110>
    1dda:	98 e0       	ldi	r25, 0x08	; 8
    1ddc:	f9 2a       	or	r15, r25
    1dde:	25 c0       	rjmp	.+74     	; 0x1e2a <vfprintf+0x110>
    1de0:	e0 e1       	ldi	r30, 0x10	; 16
    1de2:	fe 2a       	or	r15, r30
    1de4:	22 c0       	rjmp	.+68     	; 0x1e2a <vfprintf+0x110>
    1de6:	f7 fc       	sbrc	r15, 7
    1de8:	29 c0       	rjmp	.+82     	; 0x1e3c <vfprintf+0x122>
    1dea:	89 2f       	mov	r24, r25
    1dec:	80 53       	subi	r24, 0x30	; 48
    1dee:	8a 30       	cpi	r24, 0x0A	; 10
    1df0:	70 f4       	brcc	.+28     	; 0x1e0e <vfprintf+0xf4>
    1df2:	f6 fe       	sbrs	r15, 6
    1df4:	05 c0       	rjmp	.+10     	; 0x1e00 <vfprintf+0xe6>
    1df6:	98 9c       	mul	r9, r8
    1df8:	90 2c       	mov	r9, r0
    1dfa:	11 24       	eor	r1, r1
    1dfc:	98 0e       	add	r9, r24
    1dfe:	15 c0       	rjmp	.+42     	; 0x1e2a <vfprintf+0x110>
    1e00:	e8 9c       	mul	r14, r8
    1e02:	e0 2c       	mov	r14, r0
    1e04:	11 24       	eor	r1, r1
    1e06:	e8 0e       	add	r14, r24
    1e08:	f0 e2       	ldi	r31, 0x20	; 32
    1e0a:	ff 2a       	or	r15, r31
    1e0c:	0e c0       	rjmp	.+28     	; 0x1e2a <vfprintf+0x110>
    1e0e:	9e 32       	cpi	r25, 0x2E	; 46
    1e10:	29 f4       	brne	.+10     	; 0x1e1c <vfprintf+0x102>
    1e12:	f6 fc       	sbrc	r15, 6
    1e14:	6b c1       	rjmp	.+726    	; 0x20ec <vfprintf+0x3d2>
    1e16:	40 e4       	ldi	r20, 0x40	; 64
    1e18:	f4 2a       	or	r15, r20
    1e1a:	07 c0       	rjmp	.+14     	; 0x1e2a <vfprintf+0x110>
    1e1c:	9c 36       	cpi	r25, 0x6C	; 108
    1e1e:	19 f4       	brne	.+6      	; 0x1e26 <vfprintf+0x10c>
    1e20:	50 e8       	ldi	r21, 0x80	; 128
    1e22:	f5 2a       	or	r15, r21
    1e24:	02 c0       	rjmp	.+4      	; 0x1e2a <vfprintf+0x110>
    1e26:	98 36       	cpi	r25, 0x68	; 104
    1e28:	49 f4       	brne	.+18     	; 0x1e3c <vfprintf+0x122>
    1e2a:	f2 01       	movw	r30, r4
    1e2c:	23 fd       	sbrc	r18, 3
    1e2e:	95 91       	lpm	r25, Z+
    1e30:	23 ff       	sbrs	r18, 3
    1e32:	91 91       	ld	r25, Z+
    1e34:	2f 01       	movw	r4, r30
    1e36:	99 23       	and	r25, r25
    1e38:	09 f0       	breq	.+2      	; 0x1e3c <vfprintf+0x122>
    1e3a:	b8 cf       	rjmp	.-144    	; 0x1dac <vfprintf+0x92>
    1e3c:	89 2f       	mov	r24, r25
    1e3e:	85 54       	subi	r24, 0x45	; 69
    1e40:	83 30       	cpi	r24, 0x03	; 3
    1e42:	18 f0       	brcs	.+6      	; 0x1e4a <vfprintf+0x130>
    1e44:	80 52       	subi	r24, 0x20	; 32
    1e46:	83 30       	cpi	r24, 0x03	; 3
    1e48:	38 f4       	brcc	.+14     	; 0x1e58 <vfprintf+0x13e>
    1e4a:	44 e0       	ldi	r20, 0x04	; 4
    1e4c:	50 e0       	ldi	r21, 0x00	; 0
    1e4e:	a4 0e       	add	r10, r20
    1e50:	b5 1e       	adc	r11, r21
    1e52:	5f e3       	ldi	r21, 0x3F	; 63
    1e54:	59 83       	std	Y+1, r21	; 0x01
    1e56:	0f c0       	rjmp	.+30     	; 0x1e76 <vfprintf+0x15c>
    1e58:	93 36       	cpi	r25, 0x63	; 99
    1e5a:	31 f0       	breq	.+12     	; 0x1e68 <vfprintf+0x14e>
    1e5c:	93 37       	cpi	r25, 0x73	; 115
    1e5e:	79 f0       	breq	.+30     	; 0x1e7e <vfprintf+0x164>
    1e60:	93 35       	cpi	r25, 0x53	; 83
    1e62:	09 f0       	breq	.+2      	; 0x1e66 <vfprintf+0x14c>
    1e64:	56 c0       	rjmp	.+172    	; 0x1f12 <vfprintf+0x1f8>
    1e66:	20 c0       	rjmp	.+64     	; 0x1ea8 <vfprintf+0x18e>
    1e68:	f5 01       	movw	r30, r10
    1e6a:	80 81       	ld	r24, Z
    1e6c:	89 83       	std	Y+1, r24	; 0x01
    1e6e:	42 e0       	ldi	r20, 0x02	; 2
    1e70:	50 e0       	ldi	r21, 0x00	; 0
    1e72:	a4 0e       	add	r10, r20
    1e74:	b5 1e       	adc	r11, r21
    1e76:	61 01       	movw	r12, r2
    1e78:	01 e0       	ldi	r16, 0x01	; 1
    1e7a:	10 e0       	ldi	r17, 0x00	; 0
    1e7c:	12 c0       	rjmp	.+36     	; 0x1ea2 <vfprintf+0x188>
    1e7e:	f5 01       	movw	r30, r10
    1e80:	c0 80       	ld	r12, Z
    1e82:	d1 80       	ldd	r13, Z+1	; 0x01
    1e84:	f6 fc       	sbrc	r15, 6
    1e86:	03 c0       	rjmp	.+6      	; 0x1e8e <vfprintf+0x174>
    1e88:	6f ef       	ldi	r22, 0xFF	; 255
    1e8a:	7f ef       	ldi	r23, 0xFF	; 255
    1e8c:	02 c0       	rjmp	.+4      	; 0x1e92 <vfprintf+0x178>
    1e8e:	69 2d       	mov	r22, r9
    1e90:	70 e0       	ldi	r23, 0x00	; 0
    1e92:	42 e0       	ldi	r20, 0x02	; 2
    1e94:	50 e0       	ldi	r21, 0x00	; 0
    1e96:	a4 0e       	add	r10, r20
    1e98:	b5 1e       	adc	r11, r21
    1e9a:	c6 01       	movw	r24, r12
    1e9c:	0e 94 9e 10 	call	0x213c	; 0x213c <strnlen>
    1ea0:	8c 01       	movw	r16, r24
    1ea2:	5f e7       	ldi	r21, 0x7F	; 127
    1ea4:	f5 22       	and	r15, r21
    1ea6:	14 c0       	rjmp	.+40     	; 0x1ed0 <vfprintf+0x1b6>
    1ea8:	f5 01       	movw	r30, r10
    1eaa:	c0 80       	ld	r12, Z
    1eac:	d1 80       	ldd	r13, Z+1	; 0x01
    1eae:	f6 fc       	sbrc	r15, 6
    1eb0:	03 c0       	rjmp	.+6      	; 0x1eb8 <vfprintf+0x19e>
    1eb2:	6f ef       	ldi	r22, 0xFF	; 255
    1eb4:	7f ef       	ldi	r23, 0xFF	; 255
    1eb6:	02 c0       	rjmp	.+4      	; 0x1ebc <vfprintf+0x1a2>
    1eb8:	69 2d       	mov	r22, r9
    1eba:	70 e0       	ldi	r23, 0x00	; 0
    1ebc:	42 e0       	ldi	r20, 0x02	; 2
    1ebe:	50 e0       	ldi	r21, 0x00	; 0
    1ec0:	a4 0e       	add	r10, r20
    1ec2:	b5 1e       	adc	r11, r21
    1ec4:	c6 01       	movw	r24, r12
    1ec6:	0e 94 93 10 	call	0x2126	; 0x2126 <strnlen_P>
    1eca:	8c 01       	movw	r16, r24
    1ecc:	50 e8       	ldi	r21, 0x80	; 128
    1ece:	f5 2a       	or	r15, r21
    1ed0:	f3 fe       	sbrs	r15, 3
    1ed2:	07 c0       	rjmp	.+14     	; 0x1ee2 <vfprintf+0x1c8>
    1ed4:	1a c0       	rjmp	.+52     	; 0x1f0a <vfprintf+0x1f0>
    1ed6:	80 e2       	ldi	r24, 0x20	; 32
    1ed8:	90 e0       	ldi	r25, 0x00	; 0
    1eda:	b3 01       	movw	r22, r6
    1edc:	0e 94 a9 10 	call	0x2152	; 0x2152 <fputc>
    1ee0:	ea 94       	dec	r14
    1ee2:	8e 2d       	mov	r24, r14
    1ee4:	90 e0       	ldi	r25, 0x00	; 0
    1ee6:	08 17       	cp	r16, r24
    1ee8:	19 07       	cpc	r17, r25
    1eea:	a8 f3       	brcs	.-22     	; 0x1ed6 <vfprintf+0x1bc>
    1eec:	0e c0       	rjmp	.+28     	; 0x1f0a <vfprintf+0x1f0>
    1eee:	f6 01       	movw	r30, r12
    1ef0:	f7 fc       	sbrc	r15, 7
    1ef2:	85 91       	lpm	r24, Z+
    1ef4:	f7 fe       	sbrs	r15, 7
    1ef6:	81 91       	ld	r24, Z+
    1ef8:	6f 01       	movw	r12, r30
    1efa:	90 e0       	ldi	r25, 0x00	; 0
    1efc:	b3 01       	movw	r22, r6
    1efe:	0e 94 a9 10 	call	0x2152	; 0x2152 <fputc>
    1f02:	e1 10       	cpse	r14, r1
    1f04:	ea 94       	dec	r14
    1f06:	01 50       	subi	r16, 0x01	; 1
    1f08:	10 40       	sbci	r17, 0x00	; 0
    1f0a:	01 15       	cp	r16, r1
    1f0c:	11 05       	cpc	r17, r1
    1f0e:	79 f7       	brne	.-34     	; 0x1eee <vfprintf+0x1d4>
    1f10:	ea c0       	rjmp	.+468    	; 0x20e6 <vfprintf+0x3cc>
    1f12:	94 36       	cpi	r25, 0x64	; 100
    1f14:	11 f0       	breq	.+4      	; 0x1f1a <vfprintf+0x200>
    1f16:	99 36       	cpi	r25, 0x69	; 105
    1f18:	69 f5       	brne	.+90     	; 0x1f74 <vfprintf+0x25a>
    1f1a:	f7 fe       	sbrs	r15, 7
    1f1c:	08 c0       	rjmp	.+16     	; 0x1f2e <vfprintf+0x214>
    1f1e:	f5 01       	movw	r30, r10
    1f20:	20 81       	ld	r18, Z
    1f22:	31 81       	ldd	r19, Z+1	; 0x01
    1f24:	42 81       	ldd	r20, Z+2	; 0x02
    1f26:	53 81       	ldd	r21, Z+3	; 0x03
    1f28:	84 e0       	ldi	r24, 0x04	; 4
    1f2a:	90 e0       	ldi	r25, 0x00	; 0
    1f2c:	0a c0       	rjmp	.+20     	; 0x1f42 <vfprintf+0x228>
    1f2e:	f5 01       	movw	r30, r10
    1f30:	80 81       	ld	r24, Z
    1f32:	91 81       	ldd	r25, Z+1	; 0x01
    1f34:	9c 01       	movw	r18, r24
    1f36:	44 27       	eor	r20, r20
    1f38:	37 fd       	sbrc	r19, 7
    1f3a:	40 95       	com	r20
    1f3c:	54 2f       	mov	r21, r20
    1f3e:	82 e0       	ldi	r24, 0x02	; 2
    1f40:	90 e0       	ldi	r25, 0x00	; 0
    1f42:	a8 0e       	add	r10, r24
    1f44:	b9 1e       	adc	r11, r25
    1f46:	9f e6       	ldi	r25, 0x6F	; 111
    1f48:	f9 22       	and	r15, r25
    1f4a:	57 ff       	sbrs	r21, 7
    1f4c:	09 c0       	rjmp	.+18     	; 0x1f60 <vfprintf+0x246>
    1f4e:	50 95       	com	r21
    1f50:	40 95       	com	r20
    1f52:	30 95       	com	r19
    1f54:	21 95       	neg	r18
    1f56:	3f 4f       	sbci	r19, 0xFF	; 255
    1f58:	4f 4f       	sbci	r20, 0xFF	; 255
    1f5a:	5f 4f       	sbci	r21, 0xFF	; 255
    1f5c:	e0 e8       	ldi	r30, 0x80	; 128
    1f5e:	fe 2a       	or	r15, r30
    1f60:	ca 01       	movw	r24, r20
    1f62:	b9 01       	movw	r22, r18
    1f64:	a1 01       	movw	r20, r2
    1f66:	2a e0       	ldi	r18, 0x0A	; 10
    1f68:	30 e0       	ldi	r19, 0x00	; 0
    1f6a:	0e 94 d5 10 	call	0x21aa	; 0x21aa <__ultoa_invert>
    1f6e:	d8 2e       	mov	r13, r24
    1f70:	d2 18       	sub	r13, r2
    1f72:	40 c0       	rjmp	.+128    	; 0x1ff4 <vfprintf+0x2da>
    1f74:	95 37       	cpi	r25, 0x75	; 117
    1f76:	29 f4       	brne	.+10     	; 0x1f82 <vfprintf+0x268>
    1f78:	1f 2d       	mov	r17, r15
    1f7a:	1f 7e       	andi	r17, 0xEF	; 239
    1f7c:	2a e0       	ldi	r18, 0x0A	; 10
    1f7e:	30 e0       	ldi	r19, 0x00	; 0
    1f80:	1d c0       	rjmp	.+58     	; 0x1fbc <vfprintf+0x2a2>
    1f82:	1f 2d       	mov	r17, r15
    1f84:	19 7f       	andi	r17, 0xF9	; 249
    1f86:	9f 36       	cpi	r25, 0x6F	; 111
    1f88:	61 f0       	breq	.+24     	; 0x1fa2 <vfprintf+0x288>
    1f8a:	90 37       	cpi	r25, 0x70	; 112
    1f8c:	20 f4       	brcc	.+8      	; 0x1f96 <vfprintf+0x27c>
    1f8e:	98 35       	cpi	r25, 0x58	; 88
    1f90:	09 f0       	breq	.+2      	; 0x1f94 <vfprintf+0x27a>
    1f92:	ac c0       	rjmp	.+344    	; 0x20ec <vfprintf+0x3d2>
    1f94:	0f c0       	rjmp	.+30     	; 0x1fb4 <vfprintf+0x29a>
    1f96:	90 37       	cpi	r25, 0x70	; 112
    1f98:	39 f0       	breq	.+14     	; 0x1fa8 <vfprintf+0x28e>
    1f9a:	98 37       	cpi	r25, 0x78	; 120
    1f9c:	09 f0       	breq	.+2      	; 0x1fa0 <vfprintf+0x286>
    1f9e:	a6 c0       	rjmp	.+332    	; 0x20ec <vfprintf+0x3d2>
    1fa0:	04 c0       	rjmp	.+8      	; 0x1faa <vfprintf+0x290>
    1fa2:	28 e0       	ldi	r18, 0x08	; 8
    1fa4:	30 e0       	ldi	r19, 0x00	; 0
    1fa6:	0a c0       	rjmp	.+20     	; 0x1fbc <vfprintf+0x2a2>
    1fa8:	10 61       	ori	r17, 0x10	; 16
    1faa:	14 fd       	sbrc	r17, 4
    1fac:	14 60       	ori	r17, 0x04	; 4
    1fae:	20 e1       	ldi	r18, 0x10	; 16
    1fb0:	30 e0       	ldi	r19, 0x00	; 0
    1fb2:	04 c0       	rjmp	.+8      	; 0x1fbc <vfprintf+0x2a2>
    1fb4:	14 fd       	sbrc	r17, 4
    1fb6:	16 60       	ori	r17, 0x06	; 6
    1fb8:	20 e1       	ldi	r18, 0x10	; 16
    1fba:	32 e0       	ldi	r19, 0x02	; 2
    1fbc:	17 ff       	sbrs	r17, 7
    1fbe:	08 c0       	rjmp	.+16     	; 0x1fd0 <vfprintf+0x2b6>
    1fc0:	f5 01       	movw	r30, r10
    1fc2:	60 81       	ld	r22, Z
    1fc4:	71 81       	ldd	r23, Z+1	; 0x01
    1fc6:	82 81       	ldd	r24, Z+2	; 0x02
    1fc8:	93 81       	ldd	r25, Z+3	; 0x03
    1fca:	44 e0       	ldi	r20, 0x04	; 4
    1fcc:	50 e0       	ldi	r21, 0x00	; 0
    1fce:	08 c0       	rjmp	.+16     	; 0x1fe0 <vfprintf+0x2c6>
    1fd0:	f5 01       	movw	r30, r10
    1fd2:	80 81       	ld	r24, Z
    1fd4:	91 81       	ldd	r25, Z+1	; 0x01
    1fd6:	bc 01       	movw	r22, r24
    1fd8:	80 e0       	ldi	r24, 0x00	; 0
    1fda:	90 e0       	ldi	r25, 0x00	; 0
    1fdc:	42 e0       	ldi	r20, 0x02	; 2
    1fde:	50 e0       	ldi	r21, 0x00	; 0
    1fe0:	a4 0e       	add	r10, r20
    1fe2:	b5 1e       	adc	r11, r21
    1fe4:	a1 01       	movw	r20, r2
    1fe6:	0e 94 d5 10 	call	0x21aa	; 0x21aa <__ultoa_invert>
    1fea:	d8 2e       	mov	r13, r24
    1fec:	d2 18       	sub	r13, r2
    1fee:	8f e7       	ldi	r24, 0x7F	; 127
    1ff0:	f8 2e       	mov	r15, r24
    1ff2:	f1 22       	and	r15, r17
    1ff4:	f6 fe       	sbrs	r15, 6
    1ff6:	0b c0       	rjmp	.+22     	; 0x200e <vfprintf+0x2f4>
    1ff8:	5e ef       	ldi	r21, 0xFE	; 254
    1ffa:	f5 22       	and	r15, r21
    1ffc:	d9 14       	cp	r13, r9
    1ffe:	38 f4       	brcc	.+14     	; 0x200e <vfprintf+0x2f4>
    2000:	f4 fe       	sbrs	r15, 4
    2002:	07 c0       	rjmp	.+14     	; 0x2012 <vfprintf+0x2f8>
    2004:	f2 fc       	sbrc	r15, 2
    2006:	05 c0       	rjmp	.+10     	; 0x2012 <vfprintf+0x2f8>
    2008:	8f ee       	ldi	r24, 0xEF	; 239
    200a:	f8 22       	and	r15, r24
    200c:	02 c0       	rjmp	.+4      	; 0x2012 <vfprintf+0x2f8>
    200e:	1d 2d       	mov	r17, r13
    2010:	01 c0       	rjmp	.+2      	; 0x2014 <vfprintf+0x2fa>
    2012:	19 2d       	mov	r17, r9
    2014:	f4 fe       	sbrs	r15, 4
    2016:	0d c0       	rjmp	.+26     	; 0x2032 <vfprintf+0x318>
    2018:	fe 01       	movw	r30, r28
    201a:	ed 0d       	add	r30, r13
    201c:	f1 1d       	adc	r31, r1
    201e:	80 81       	ld	r24, Z
    2020:	80 33       	cpi	r24, 0x30	; 48
    2022:	19 f4       	brne	.+6      	; 0x202a <vfprintf+0x310>
    2024:	99 ee       	ldi	r25, 0xE9	; 233
    2026:	f9 22       	and	r15, r25
    2028:	08 c0       	rjmp	.+16     	; 0x203a <vfprintf+0x320>
    202a:	1f 5f       	subi	r17, 0xFF	; 255
    202c:	f2 fe       	sbrs	r15, 2
    202e:	05 c0       	rjmp	.+10     	; 0x203a <vfprintf+0x320>
    2030:	03 c0       	rjmp	.+6      	; 0x2038 <vfprintf+0x31e>
    2032:	8f 2d       	mov	r24, r15
    2034:	86 78       	andi	r24, 0x86	; 134
    2036:	09 f0       	breq	.+2      	; 0x203a <vfprintf+0x320>
    2038:	1f 5f       	subi	r17, 0xFF	; 255
    203a:	0f 2d       	mov	r16, r15
    203c:	f3 fc       	sbrc	r15, 3
    203e:	14 c0       	rjmp	.+40     	; 0x2068 <vfprintf+0x34e>
    2040:	f0 fe       	sbrs	r15, 0
    2042:	0f c0       	rjmp	.+30     	; 0x2062 <vfprintf+0x348>
    2044:	1e 15       	cp	r17, r14
    2046:	10 f0       	brcs	.+4      	; 0x204c <vfprintf+0x332>
    2048:	9d 2c       	mov	r9, r13
    204a:	0b c0       	rjmp	.+22     	; 0x2062 <vfprintf+0x348>
    204c:	9d 2c       	mov	r9, r13
    204e:	9e 0c       	add	r9, r14
    2050:	91 1a       	sub	r9, r17
    2052:	1e 2d       	mov	r17, r14
    2054:	06 c0       	rjmp	.+12     	; 0x2062 <vfprintf+0x348>
    2056:	80 e2       	ldi	r24, 0x20	; 32
    2058:	90 e0       	ldi	r25, 0x00	; 0
    205a:	b3 01       	movw	r22, r6
    205c:	0e 94 a9 10 	call	0x2152	; 0x2152 <fputc>
    2060:	1f 5f       	subi	r17, 0xFF	; 255
    2062:	1e 15       	cp	r17, r14
    2064:	c0 f3       	brcs	.-16     	; 0x2056 <vfprintf+0x33c>
    2066:	04 c0       	rjmp	.+8      	; 0x2070 <vfprintf+0x356>
    2068:	1e 15       	cp	r17, r14
    206a:	10 f4       	brcc	.+4      	; 0x2070 <vfprintf+0x356>
    206c:	e1 1a       	sub	r14, r17
    206e:	01 c0       	rjmp	.+2      	; 0x2072 <vfprintf+0x358>
    2070:	ee 24       	eor	r14, r14
    2072:	04 ff       	sbrs	r16, 4
    2074:	0f c0       	rjmp	.+30     	; 0x2094 <vfprintf+0x37a>
    2076:	80 e3       	ldi	r24, 0x30	; 48
    2078:	90 e0       	ldi	r25, 0x00	; 0
    207a:	b3 01       	movw	r22, r6
    207c:	0e 94 a9 10 	call	0x2152	; 0x2152 <fputc>
    2080:	02 ff       	sbrs	r16, 2
    2082:	1d c0       	rjmp	.+58     	; 0x20be <vfprintf+0x3a4>
    2084:	01 fd       	sbrc	r16, 1
    2086:	03 c0       	rjmp	.+6      	; 0x208e <vfprintf+0x374>
    2088:	88 e7       	ldi	r24, 0x78	; 120
    208a:	90 e0       	ldi	r25, 0x00	; 0
    208c:	0e c0       	rjmp	.+28     	; 0x20aa <vfprintf+0x390>
    208e:	88 e5       	ldi	r24, 0x58	; 88
    2090:	90 e0       	ldi	r25, 0x00	; 0
    2092:	0b c0       	rjmp	.+22     	; 0x20aa <vfprintf+0x390>
    2094:	80 2f       	mov	r24, r16
    2096:	86 78       	andi	r24, 0x86	; 134
    2098:	91 f0       	breq	.+36     	; 0x20be <vfprintf+0x3a4>
    209a:	01 ff       	sbrs	r16, 1
    209c:	02 c0       	rjmp	.+4      	; 0x20a2 <vfprintf+0x388>
    209e:	8b e2       	ldi	r24, 0x2B	; 43
    20a0:	01 c0       	rjmp	.+2      	; 0x20a4 <vfprintf+0x38a>
    20a2:	80 e2       	ldi	r24, 0x20	; 32
    20a4:	f7 fc       	sbrc	r15, 7
    20a6:	8d e2       	ldi	r24, 0x2D	; 45
    20a8:	90 e0       	ldi	r25, 0x00	; 0
    20aa:	b3 01       	movw	r22, r6
    20ac:	0e 94 a9 10 	call	0x2152	; 0x2152 <fputc>
    20b0:	06 c0       	rjmp	.+12     	; 0x20be <vfprintf+0x3a4>
    20b2:	80 e3       	ldi	r24, 0x30	; 48
    20b4:	90 e0       	ldi	r25, 0x00	; 0
    20b6:	b3 01       	movw	r22, r6
    20b8:	0e 94 a9 10 	call	0x2152	; 0x2152 <fputc>
    20bc:	9a 94       	dec	r9
    20be:	d9 14       	cp	r13, r9
    20c0:	c0 f3       	brcs	.-16     	; 0x20b2 <vfprintf+0x398>
    20c2:	da 94       	dec	r13
    20c4:	f1 01       	movw	r30, r2
    20c6:	ed 0d       	add	r30, r13
    20c8:	f1 1d       	adc	r31, r1
    20ca:	80 81       	ld	r24, Z
    20cc:	90 e0       	ldi	r25, 0x00	; 0
    20ce:	b3 01       	movw	r22, r6
    20d0:	0e 94 a9 10 	call	0x2152	; 0x2152 <fputc>
    20d4:	dd 20       	and	r13, r13
    20d6:	a9 f7       	brne	.-22     	; 0x20c2 <vfprintf+0x3a8>
    20d8:	06 c0       	rjmp	.+12     	; 0x20e6 <vfprintf+0x3cc>
    20da:	80 e2       	ldi	r24, 0x20	; 32
    20dc:	90 e0       	ldi	r25, 0x00	; 0
    20de:	b3 01       	movw	r22, r6
    20e0:	0e 94 a9 10 	call	0x2152	; 0x2152 <fputc>
    20e4:	ea 94       	dec	r14
    20e6:	ee 20       	and	r14, r14
    20e8:	c1 f7       	brne	.-16     	; 0x20da <vfprintf+0x3c0>
    20ea:	43 ce       	rjmp	.-890    	; 0x1d72 <vfprintf+0x58>
    20ec:	f3 01       	movw	r30, r6
    20ee:	66 81       	ldd	r22, Z+6	; 0x06
    20f0:	77 81       	ldd	r23, Z+7	; 0x07
    20f2:	cb 01       	movw	r24, r22
    20f4:	2b 96       	adiw	r28, 0x0b	; 11
    20f6:	0f b6       	in	r0, 0x3f	; 63
    20f8:	f8 94       	cli
    20fa:	de bf       	out	0x3e, r29	; 62
    20fc:	0f be       	out	0x3f, r0	; 63
    20fe:	cd bf       	out	0x3d, r28	; 61
    2100:	cf 91       	pop	r28
    2102:	df 91       	pop	r29
    2104:	1f 91       	pop	r17
    2106:	0f 91       	pop	r16
    2108:	ff 90       	pop	r15
    210a:	ef 90       	pop	r14
    210c:	df 90       	pop	r13
    210e:	cf 90       	pop	r12
    2110:	bf 90       	pop	r11
    2112:	af 90       	pop	r10
    2114:	9f 90       	pop	r9
    2116:	8f 90       	pop	r8
    2118:	7f 90       	pop	r7
    211a:	6f 90       	pop	r6
    211c:	5f 90       	pop	r5
    211e:	4f 90       	pop	r4
    2120:	3f 90       	pop	r3
    2122:	2f 90       	pop	r2
    2124:	08 95       	ret

00002126 <strnlen_P>:
    2126:	fc 01       	movw	r30, r24
    2128:	05 90       	lpm	r0, Z+
    212a:	61 50       	subi	r22, 0x01	; 1
    212c:	70 40       	sbci	r23, 0x00	; 0
    212e:	01 10       	cpse	r0, r1
    2130:	d8 f7       	brcc	.-10     	; 0x2128 <strnlen_P+0x2>
    2132:	80 95       	com	r24
    2134:	90 95       	com	r25
    2136:	8e 0f       	add	r24, r30
    2138:	9f 1f       	adc	r25, r31
    213a:	08 95       	ret

0000213c <strnlen>:
    213c:	fc 01       	movw	r30, r24
    213e:	61 50       	subi	r22, 0x01	; 1
    2140:	70 40       	sbci	r23, 0x00	; 0
    2142:	01 90       	ld	r0, Z+
    2144:	01 10       	cpse	r0, r1
    2146:	d8 f7       	brcc	.-10     	; 0x213e <strnlen+0x2>
    2148:	80 95       	com	r24
    214a:	90 95       	com	r25
    214c:	8e 0f       	add	r24, r30
    214e:	9f 1f       	adc	r25, r31
    2150:	08 95       	ret

00002152 <fputc>:
    2152:	0f 93       	push	r16
    2154:	1f 93       	push	r17
    2156:	cf 93       	push	r28
    2158:	df 93       	push	r29
    215a:	8c 01       	movw	r16, r24
    215c:	eb 01       	movw	r28, r22
    215e:	8b 81       	ldd	r24, Y+3	; 0x03
    2160:	81 ff       	sbrs	r24, 1
    2162:	1b c0       	rjmp	.+54     	; 0x219a <fputc+0x48>
    2164:	82 ff       	sbrs	r24, 2
    2166:	0d c0       	rjmp	.+26     	; 0x2182 <fputc+0x30>
    2168:	2e 81       	ldd	r18, Y+6	; 0x06
    216a:	3f 81       	ldd	r19, Y+7	; 0x07
    216c:	8c 81       	ldd	r24, Y+4	; 0x04
    216e:	9d 81       	ldd	r25, Y+5	; 0x05
    2170:	28 17       	cp	r18, r24
    2172:	39 07       	cpc	r19, r25
    2174:	64 f4       	brge	.+24     	; 0x218e <fputc+0x3c>
    2176:	e8 81       	ld	r30, Y
    2178:	f9 81       	ldd	r31, Y+1	; 0x01
    217a:	01 93       	st	Z+, r16
    217c:	f9 83       	std	Y+1, r31	; 0x01
    217e:	e8 83       	st	Y, r30
    2180:	06 c0       	rjmp	.+12     	; 0x218e <fputc+0x3c>
    2182:	e8 85       	ldd	r30, Y+8	; 0x08
    2184:	f9 85       	ldd	r31, Y+9	; 0x09
    2186:	80 2f       	mov	r24, r16
    2188:	09 95       	icall
    218a:	89 2b       	or	r24, r25
    218c:	31 f4       	brne	.+12     	; 0x219a <fputc+0x48>
    218e:	8e 81       	ldd	r24, Y+6	; 0x06
    2190:	9f 81       	ldd	r25, Y+7	; 0x07
    2192:	01 96       	adiw	r24, 0x01	; 1
    2194:	9f 83       	std	Y+7, r25	; 0x07
    2196:	8e 83       	std	Y+6, r24	; 0x06
    2198:	02 c0       	rjmp	.+4      	; 0x219e <fputc+0x4c>
    219a:	0f ef       	ldi	r16, 0xFF	; 255
    219c:	1f ef       	ldi	r17, 0xFF	; 255
    219e:	c8 01       	movw	r24, r16
    21a0:	df 91       	pop	r29
    21a2:	cf 91       	pop	r28
    21a4:	1f 91       	pop	r17
    21a6:	0f 91       	pop	r16
    21a8:	08 95       	ret

000021aa <__ultoa_invert>:
    21aa:	fa 01       	movw	r30, r20
    21ac:	aa 27       	eor	r26, r26
    21ae:	28 30       	cpi	r18, 0x08	; 8
    21b0:	51 f1       	breq	.+84     	; 0x2206 <__ultoa_invert+0x5c>
    21b2:	20 31       	cpi	r18, 0x10	; 16
    21b4:	81 f1       	breq	.+96     	; 0x2216 <__ultoa_invert+0x6c>
    21b6:	e8 94       	clt
    21b8:	6f 93       	push	r22
    21ba:	6e 7f       	andi	r22, 0xFE	; 254
    21bc:	6e 5f       	subi	r22, 0xFE	; 254
    21be:	7f 4f       	sbci	r23, 0xFF	; 255
    21c0:	8f 4f       	sbci	r24, 0xFF	; 255
    21c2:	9f 4f       	sbci	r25, 0xFF	; 255
    21c4:	af 4f       	sbci	r26, 0xFF	; 255
    21c6:	b1 e0       	ldi	r27, 0x01	; 1
    21c8:	3e d0       	rcall	.+124    	; 0x2246 <__ultoa_invert+0x9c>
    21ca:	b4 e0       	ldi	r27, 0x04	; 4
    21cc:	3c d0       	rcall	.+120    	; 0x2246 <__ultoa_invert+0x9c>
    21ce:	67 0f       	add	r22, r23
    21d0:	78 1f       	adc	r23, r24
    21d2:	89 1f       	adc	r24, r25
    21d4:	9a 1f       	adc	r25, r26
    21d6:	a1 1d       	adc	r26, r1
    21d8:	68 0f       	add	r22, r24
    21da:	79 1f       	adc	r23, r25
    21dc:	8a 1f       	adc	r24, r26
    21de:	91 1d       	adc	r25, r1
    21e0:	a1 1d       	adc	r26, r1
    21e2:	6a 0f       	add	r22, r26
    21e4:	71 1d       	adc	r23, r1
    21e6:	81 1d       	adc	r24, r1
    21e8:	91 1d       	adc	r25, r1
    21ea:	a1 1d       	adc	r26, r1
    21ec:	20 d0       	rcall	.+64     	; 0x222e <__ultoa_invert+0x84>
    21ee:	09 f4       	brne	.+2      	; 0x21f2 <__ultoa_invert+0x48>
    21f0:	68 94       	set
    21f2:	3f 91       	pop	r19
    21f4:	2a e0       	ldi	r18, 0x0A	; 10
    21f6:	26 9f       	mul	r18, r22
    21f8:	11 24       	eor	r1, r1
    21fa:	30 19       	sub	r19, r0
    21fc:	30 5d       	subi	r19, 0xD0	; 208
    21fe:	31 93       	st	Z+, r19
    2200:	de f6       	brtc	.-74     	; 0x21b8 <__ultoa_invert+0xe>
    2202:	cf 01       	movw	r24, r30
    2204:	08 95       	ret
    2206:	46 2f       	mov	r20, r22
    2208:	47 70       	andi	r20, 0x07	; 7
    220a:	40 5d       	subi	r20, 0xD0	; 208
    220c:	41 93       	st	Z+, r20
    220e:	b3 e0       	ldi	r27, 0x03	; 3
    2210:	0f d0       	rcall	.+30     	; 0x2230 <__ultoa_invert+0x86>
    2212:	c9 f7       	brne	.-14     	; 0x2206 <__ultoa_invert+0x5c>
    2214:	f6 cf       	rjmp	.-20     	; 0x2202 <__ultoa_invert+0x58>
    2216:	46 2f       	mov	r20, r22
    2218:	4f 70       	andi	r20, 0x0F	; 15
    221a:	40 5d       	subi	r20, 0xD0	; 208
    221c:	4a 33       	cpi	r20, 0x3A	; 58
    221e:	18 f0       	brcs	.+6      	; 0x2226 <__ultoa_invert+0x7c>
    2220:	49 5d       	subi	r20, 0xD9	; 217
    2222:	31 fd       	sbrc	r19, 1
    2224:	40 52       	subi	r20, 0x20	; 32
    2226:	41 93       	st	Z+, r20
    2228:	02 d0       	rcall	.+4      	; 0x222e <__ultoa_invert+0x84>
    222a:	a9 f7       	brne	.-22     	; 0x2216 <__ultoa_invert+0x6c>
    222c:	ea cf       	rjmp	.-44     	; 0x2202 <__ultoa_invert+0x58>
    222e:	b4 e0       	ldi	r27, 0x04	; 4
    2230:	a6 95       	lsr	r26
    2232:	97 95       	ror	r25
    2234:	87 95       	ror	r24
    2236:	77 95       	ror	r23
    2238:	67 95       	ror	r22
    223a:	ba 95       	dec	r27
    223c:	c9 f7       	brne	.-14     	; 0x2230 <__ultoa_invert+0x86>
    223e:	00 97       	sbiw	r24, 0x00	; 0
    2240:	61 05       	cpc	r22, r1
    2242:	71 05       	cpc	r23, r1
    2244:	08 95       	ret
    2246:	9b 01       	movw	r18, r22
    2248:	ac 01       	movw	r20, r24
    224a:	0a 2e       	mov	r0, r26
    224c:	06 94       	lsr	r0
    224e:	57 95       	ror	r21
    2250:	47 95       	ror	r20
    2252:	37 95       	ror	r19
    2254:	27 95       	ror	r18
    2256:	ba 95       	dec	r27
    2258:	c9 f7       	brne	.-14     	; 0x224c <__ultoa_invert+0xa2>
    225a:	62 0f       	add	r22, r18
    225c:	73 1f       	adc	r23, r19
    225e:	84 1f       	adc	r24, r20
    2260:	95 1f       	adc	r25, r21
    2262:	a0 1d       	adc	r26, r0
    2264:	08 95       	ret

00002266 <_exit>:
    2266:	f8 94       	cli

00002268 <__stop_program>:
    2268:	ff cf       	rjmp	.-2      	; 0x2268 <__stop_program>
